---
triple:          'arm64-apple-darwin'
binary-path:     '/Users/macbookpro/Projects/rdx-lang/rdx/target/debug/deps/lib_rdx.dylib'
relocations:
  - { offset: 0x1E, size: 0x8, addend: 0x0, symName: '__ZN10serde_json3map59Map$LT$alloc..string..String$C$serde_json..value..Value$GT$3len17h34db8617be803dcbE', symObjAddr: 0x0, symBinAddr: 0x2554, symSize: 0x24 }
  - { offset: 0xA5, size: 0x8, addend: 0x0, symName: '__ZN138_$LT$serde_json..map..Map$LT$alloc..string..String$C$serde_json..value..Value$GT$$u20$as$u20$core..iter..traits..collect..IntoIterator$GT$9into_iter17h8d89f8e979f20fa4E', symObjAddr: 0x80, symBinAddr: 0x25D4, symSize: 0x54 }
  - { offset: 0xDA, size: 0x8, addend: 0x0, symName: '__ZN142_$LT$$RF$serde_json..map..Map$LT$alloc..string..String$C$serde_json..value..Value$GT$$u20$as$u20$core..iter..traits..collect..IntoIterator$GT$9into_iter17h7cc933f43f4bc891E', symObjAddr: 0xD4, symBinAddr: 0x2628, symSize: 0x44 }
  - { offset: 0x10E, size: 0x8, addend: 0x0, symName: '__ZN80_$LT$serde_json..map..Iter$u20$as$u20$core..iter..traits..iterator..Iterator$GT$4next17h340b10410b783054E', symObjAddr: 0x118, symBinAddr: 0x266C, symSize: 0x24 }
  - { offset: 0x142, size: 0x8, addend: 0x0, symName: '__ZN84_$LT$serde_json..map..IntoIter$u20$as$u20$core..iter..traits..iterator..Iterator$GT$4next17h689d7c4a6355c8faE', symObjAddr: 0x13C, symBinAddr: 0x2690, symSize: 0x24 }
  - { offset: 0x176, size: 0x8, addend: 0x0, symName: '__ZN95_$LT$serde_json..map..IntoIter$u20$as$u20$core..iter..traits..exact_size..ExactSizeIterator$GT$3len17h71239d4a238b6842E', symObjAddr: 0x160, symBinAddr: 0x26B4, symSize: 0x24 }
  - { offset: 0x1055, size: 0x8, addend: 0x0, symName: '__ZN10serde_json3map59Map$LT$alloc..string..String$C$serde_json..value..Value$GT$3len17h34db8617be803dcbE', symObjAddr: 0x0, symBinAddr: 0x2554, symSize: 0x24 }
  - { offset: 0x1078, size: 0x8, addend: 0x0, symName: '__ZN10serde_json3map59Map$LT$alloc..string..String$C$serde_json..value..Value$GT$3new17h75108efaa5ee087eE', symObjAddr: 0x24, symBinAddr: 0x2578, symSize: 0x38 }
  - { offset: 0x1098, size: 0x8, addend: 0x0, symName: '__ZN10serde_json3map59Map$LT$alloc..string..String$C$serde_json..value..Value$GT$6insert17h30afbd0fae995717E', symObjAddr: 0x5C, symBinAddr: 0x25B0, symSize: 0x24 }
  - { offset: 0x11DA, size: 0x8, addend: 0x0, symName: __ZN10serde_core3ser10Serializer11collect_seq17hc3625ab81f3675a4E, symObjAddr: 0x0, symBinAddr: 0x26D8, symSize: 0x204 }
  - { offset: 0x145B, size: 0x8, addend: 0x0, symName: __ZN10serde_core3ser10Serializer11collect_seq17hc3625ab81f3675a4E, symObjAddr: 0x0, symBinAddr: 0x26D8, symSize: 0x204 }
  - { offset: 0x152F, size: 0x8, addend: 0x0, symName: __ZN10serde_core3ser10Serializer11collect_seq17hd5b0995913d16e8aE, symObjAddr: 0x204, symBinAddr: 0x28DC, symSize: 0x204 }
  - { offset: 0x1603, size: 0x8, addend: 0x0, symName: __ZN10serde_core3ser10Serializer11collect_seq17hd88c40f88e338096E, symObjAddr: 0x408, symBinAddr: 0x2AE0, symSize: 0x204 }
  - { offset: 0x16D7, size: 0x8, addend: 0x0, symName: __ZN10serde_core3ser10Serializer11collect_seq17hf416b7fba8560ba0E, symObjAddr: 0x60C, symBinAddr: 0x2CE4, symSize: 0x204 }
  - { offset: 0x17B1, size: 0x8, addend: 0x0, symName: __ZN10serde_core3ser12SerializeMap15serialize_entry17h1c632d1ffe9b21a9E, symObjAddr: 0x810, symBinAddr: 0x2EE8, symSize: 0x7C }
  - { offset: 0x1835, size: 0x8, addend: 0x0, symName: __ZN10serde_core3ser12SerializeMap15serialize_entry17h4d2d0c05ecb039a1E, symObjAddr: 0x88C, symBinAddr: 0x2F64, symSize: 0x7C }
  - { offset: 0x18B9, size: 0x8, addend: 0x0, symName: __ZN10serde_core3ser12SerializeMap15serialize_entry17h50cd917aef7cf1abE, symObjAddr: 0x908, symBinAddr: 0x2FE0, symSize: 0x7C }
  - { offset: 0x193D, size: 0x8, addend: 0x0, symName: __ZN10serde_core3ser12SerializeMap15serialize_entry17h51bf8f43a1e4e804E, symObjAddr: 0x984, symBinAddr: 0x305C, symSize: 0x7C }
  - { offset: 0x19C1, size: 0x8, addend: 0x0, symName: __ZN10serde_core3ser12SerializeMap15serialize_entry17h65b6e35ce6a258b4E, symObjAddr: 0xA00, symBinAddr: 0x30D8, symSize: 0x7C }
  - { offset: 0x1A45, size: 0x8, addend: 0x0, symName: __ZN10serde_core3ser12SerializeMap15serialize_entry17h7e5da6cdc9b68d98E, symObjAddr: 0xA7C, symBinAddr: 0x3154, symSize: 0x7C }
  - { offset: 0x1AC9, size: 0x8, addend: 0x0, symName: __ZN10serde_core3ser12SerializeMap15serialize_entry17h880d3f84108e21f1E, symObjAddr: 0xAF8, symBinAddr: 0x31D0, symSize: 0x78 }
  - { offset: 0x1B4D, size: 0x8, addend: 0x0, symName: __ZN10serde_core3ser12SerializeMap15serialize_entry17h9accf6f0ddd8d120E, symObjAddr: 0xB70, symBinAddr: 0x3248, symSize: 0x7C }
  - { offset: 0x1BD1, size: 0x8, addend: 0x0, symName: __ZN10serde_core3ser12SerializeMap15serialize_entry17ha693649d9e9648a2E, symObjAddr: 0xBEC, symBinAddr: 0x32C4, symSize: 0x88 }
  - { offset: 0x1C55, size: 0x8, addend: 0x0, symName: __ZN10serde_core3ser12SerializeMap15serialize_entry17ha9c6776e6015f441E, symObjAddr: 0xC74, symBinAddr: 0x334C, symSize: 0x7C }
  - { offset: 0x1CD9, size: 0x8, addend: 0x0, symName: __ZN10serde_core3ser12SerializeMap15serialize_entry17hc1a6c831f1470aacE, symObjAddr: 0xCF0, symBinAddr: 0x33C8, symSize: 0x7C }
  - { offset: 0x1D5D, size: 0x8, addend: 0x0, symName: __ZN10serde_core3ser12SerializeMap15serialize_entry17hd0cdef84bf7c625cE, symObjAddr: 0xD6C, symBinAddr: 0x3444, symSize: 0x7C }
  - { offset: 0x1DE1, size: 0x8, addend: 0x0, symName: __ZN10serde_core3ser12SerializeMap15serialize_entry17hd6ac710032d55d81E, symObjAddr: 0xDE8, symBinAddr: 0x34C0, symSize: 0x7C }
  - { offset: 0x1E65, size: 0x8, addend: 0x0, symName: __ZN10serde_core3ser12SerializeMap15serialize_entry17he31e586d2eca1ed2E, symObjAddr: 0xE64, symBinAddr: 0x353C, symSize: 0x7C }
  - { offset: 0x1EE9, size: 0x8, addend: 0x0, symName: __ZN10serde_core3ser12SerializeMap15serialize_entry17hfc70433574d2bb74E, symObjAddr: 0xEE0, symBinAddr: 0x35B8, symSize: 0x7C }
  - { offset: 0x1F73, size: 0x8, addend: 0x0, symName: __ZN10serde_core3ser15SerializeStruct10skip_field17hc98f49c928f85e57E, symObjAddr: 0xF5C, symBinAddr: 0x3634, symSize: 0x1C }
  - { offset: 0x1FD0, size: 0x8, addend: 0x0, symName: '__ZN82_$LT$serde_json..value..ser..Serializer$u20$as$u20$serde_core..ser..Serializer$GT$14serialize_some17h1aa2d0444b2a5441E', symObjAddr: 0xF78, symBinAddr: 0x3650, symSize: 0x24 }
  - { offset: 0x201E, size: 0x8, addend: 0x0, symName: '__ZN82_$LT$serde_json..value..ser..Serializer$u20$as$u20$serde_core..ser..Serializer$GT$14serialize_some17h9271bfaaf9d69f2aE', symObjAddr: 0xF9C, symBinAddr: 0x3674, symSize: 0x24 }
  - { offset: 0x206C, size: 0x8, addend: 0x0, symName: '__ZN82_$LT$serde_json..value..ser..Serializer$u20$as$u20$serde_core..ser..Serializer$GT$14serialize_some17hd6eb9d774ae287afE', symObjAddr: 0xFC0, symBinAddr: 0x3698, symSize: 0x24 }
  - { offset: 0x20BA, size: 0x8, addend: 0x0, symName: '__ZN82_$LT$serde_json..value..ser..Serializer$u20$as$u20$serde_core..ser..Serializer$GT$14serialize_some17hdeaf3093d40f7519E', symObjAddr: 0xFE4, symBinAddr: 0x36BC, symSize: 0x24 }
  - { offset: 0x210E, size: 0x8, addend: 0x0, symName: '__ZN86_$LT$serde_json..value..ser..SerializeMap$u20$as$u20$serde_core..ser..SerializeMap$GT$13serialize_key17h7dd36a587f15f786E', symObjAddr: 0x1008, symBinAddr: 0x36E0, symSize: 0xEC }
  - { offset: 0x2188, size: 0x8, addend: 0x0, symName: '__ZN86_$LT$serde_json..value..ser..SerializeMap$u20$as$u20$serde_core..ser..SerializeMap$GT$13serialize_key17h966458118efdf3e1E', symObjAddr: 0x10F4, symBinAddr: 0x37CC, symSize: 0xE4 }
  - { offset: 0x2202, size: 0x8, addend: 0x0, symName: '__ZN86_$LT$serde_json..value..ser..SerializeMap$u20$as$u20$serde_core..ser..SerializeMap$GT$15serialize_value17h1450d41123715a14E', symObjAddr: 0x11D8, symBinAddr: 0x38B0, symSize: 0x134 }
  - { offset: 0x22BA, size: 0x8, addend: 0x0, symName: '__ZN86_$LT$serde_json..value..ser..SerializeMap$u20$as$u20$serde_core..ser..SerializeMap$GT$15serialize_value17h19f4b85dc5585f27E', symObjAddr: 0x130C, symBinAddr: 0x39E4, symSize: 0x134 }
  - { offset: 0x2372, size: 0x8, addend: 0x0, symName: '__ZN86_$LT$serde_json..value..ser..SerializeMap$u20$as$u20$serde_core..ser..SerializeMap$GT$15serialize_value17h2a41ac51e5038476E', symObjAddr: 0x1440, symBinAddr: 0x3B18, symSize: 0x134 }
  - { offset: 0x242A, size: 0x8, addend: 0x0, symName: '__ZN86_$LT$serde_json..value..ser..SerializeMap$u20$as$u20$serde_core..ser..SerializeMap$GT$15serialize_value17h3513c23e82caa606E', symObjAddr: 0x1574, symBinAddr: 0x3C4C, symSize: 0x134 }
  - { offset: 0x24E2, size: 0x8, addend: 0x0, symName: '__ZN86_$LT$serde_json..value..ser..SerializeMap$u20$as$u20$serde_core..ser..SerializeMap$GT$15serialize_value17h3cb135982e9cd936E', symObjAddr: 0x16A8, symBinAddr: 0x3D80, symSize: 0x134 }
  - { offset: 0x259A, size: 0x8, addend: 0x0, symName: '__ZN86_$LT$serde_json..value..ser..SerializeMap$u20$as$u20$serde_core..ser..SerializeMap$GT$15serialize_value17h4ed1ccfa363e72f7E', symObjAddr: 0x17DC, symBinAddr: 0x3EB4, symSize: 0x134 }
  - { offset: 0x2652, size: 0x8, addend: 0x0, symName: '__ZN86_$LT$serde_json..value..ser..SerializeMap$u20$as$u20$serde_core..ser..SerializeMap$GT$15serialize_value17h54cd9134dcf5f609E', symObjAddr: 0x1910, symBinAddr: 0x3FE8, symSize: 0x134 }
  - { offset: 0x270A, size: 0x8, addend: 0x0, symName: '__ZN86_$LT$serde_json..value..ser..SerializeMap$u20$as$u20$serde_core..ser..SerializeMap$GT$15serialize_value17h61dc07c95dac2402E', symObjAddr: 0x1A44, symBinAddr: 0x411C, symSize: 0x134 }
  - { offset: 0x27C2, size: 0x8, addend: 0x0, symName: '__ZN86_$LT$serde_json..value..ser..SerializeMap$u20$as$u20$serde_core..ser..SerializeMap$GT$15serialize_value17h7b91028bd3bb22b6E', symObjAddr: 0x1B78, symBinAddr: 0x4250, symSize: 0x140 }
  - { offset: 0x287C, size: 0x8, addend: 0x0, symName: '__ZN86_$LT$serde_json..value..ser..SerializeMap$u20$as$u20$serde_core..ser..SerializeMap$GT$15serialize_value17ha785790606104f8dE', symObjAddr: 0x1CB8, symBinAddr: 0x4390, symSize: 0x134 }
  - { offset: 0x2934, size: 0x8, addend: 0x0, symName: '__ZN86_$LT$serde_json..value..ser..SerializeMap$u20$as$u20$serde_core..ser..SerializeMap$GT$15serialize_value17hbdbefbdc4f9c5166E', symObjAddr: 0x1DEC, symBinAddr: 0x44C4, symSize: 0x134 }
  - { offset: 0x29EC, size: 0x8, addend: 0x0, symName: '__ZN86_$LT$serde_json..value..ser..SerializeMap$u20$as$u20$serde_core..ser..SerializeMap$GT$15serialize_value17hc55214cdc53165baE', symObjAddr: 0x1F20, symBinAddr: 0x45F8, symSize: 0x134 }
  - { offset: 0x2AA4, size: 0x8, addend: 0x0, symName: '__ZN86_$LT$serde_json..value..ser..SerializeMap$u20$as$u20$serde_core..ser..SerializeMap$GT$15serialize_value17hdb54050cf1b79a4dE', symObjAddr: 0x2054, symBinAddr: 0x472C, symSize: 0x134 }
  - { offset: 0x2B5C, size: 0x8, addend: 0x0, symName: '__ZN86_$LT$serde_json..value..ser..SerializeMap$u20$as$u20$serde_core..ser..SerializeMap$GT$15serialize_value17hf4714e8e72fea3dcE', symObjAddr: 0x2188, symBinAddr: 0x4860, symSize: 0x134 }
  - { offset: 0x2C14, size: 0x8, addend: 0x0, symName: '__ZN86_$LT$serde_json..value..ser..SerializeMap$u20$as$u20$serde_core..ser..SerializeMap$GT$15serialize_value17hfb33e22fa65ee07bE', symObjAddr: 0x22BC, symBinAddr: 0x4994, symSize: 0x134 }
  - { offset: 0x2CD2, size: 0x8, addend: 0x0, symName: '__ZN86_$LT$serde_json..value..ser..SerializeVec$u20$as$u20$serde_core..ser..SerializeSeq$GT$17serialize_element17h0835540ea21ba192E', symObjAddr: 0x23F0, symBinAddr: 0x4AC8, symSize: 0x88 }
  - { offset: 0x2D36, size: 0x8, addend: 0x0, symName: '__ZN86_$LT$serde_json..value..ser..SerializeVec$u20$as$u20$serde_core..ser..SerializeSeq$GT$17serialize_element17h13e485c9e3cf6d9bE', symObjAddr: 0x2478, symBinAddr: 0x4B50, symSize: 0x88 }
  - { offset: 0x2D9A, size: 0x8, addend: 0x0, symName: '__ZN86_$LT$serde_json..value..ser..SerializeVec$u20$as$u20$serde_core..ser..SerializeSeq$GT$17serialize_element17h18331a14734ea172E', symObjAddr: 0x2500, symBinAddr: 0x4BD8, symSize: 0x88 }
  - { offset: 0x2DFE, size: 0x8, addend: 0x0, symName: '__ZN86_$LT$serde_json..value..ser..SerializeVec$u20$as$u20$serde_core..ser..SerializeSeq$GT$17serialize_element17hcd3aa19e357e3531E', symObjAddr: 0x2588, symBinAddr: 0x4C60, symSize: 0x88 }
  - { offset: 0x2E68, size: 0x8, addend: 0x0, symName: '__ZN89_$LT$serde_json..value..ser..SerializeMap$u20$as$u20$serde_core..ser..SerializeStruct$GT$15serialize_field17h0d8e15038c23c199E', symObjAddr: 0x2610, symBinAddr: 0x4CE8, symSize: 0x38 }
  - { offset: 0x2EBD, size: 0x8, addend: 0x0, symName: '__ZN89_$LT$serde_json..value..ser..SerializeMap$u20$as$u20$serde_core..ser..SerializeStruct$GT$15serialize_field17h490210c6278000bfE', symObjAddr: 0x2648, symBinAddr: 0x4D20, symSize: 0x38 }
  - { offset: 0x2F12, size: 0x8, addend: 0x0, symName: '__ZN89_$LT$serde_json..value..ser..SerializeMap$u20$as$u20$serde_core..ser..SerializeStruct$GT$15serialize_field17h4c694a57c683aa3cE', symObjAddr: 0x2680, symBinAddr: 0x4D58, symSize: 0x3C }
  - { offset: 0x2F67, size: 0x8, addend: 0x0, symName: '__ZN89_$LT$serde_json..value..ser..SerializeMap$u20$as$u20$serde_core..ser..SerializeStruct$GT$15serialize_field17h52db06c8e0011c4cE', symObjAddr: 0x26BC, symBinAddr: 0x4D94, symSize: 0x38 }
  - { offset: 0x2FBC, size: 0x8, addend: 0x0, symName: '__ZN89_$LT$serde_json..value..ser..SerializeMap$u20$as$u20$serde_core..ser..SerializeStruct$GT$15serialize_field17h66e1206305f11fdcE', symObjAddr: 0x26F4, symBinAddr: 0x4DCC, symSize: 0x38 }
  - { offset: 0x3011, size: 0x8, addend: 0x0, symName: '__ZN89_$LT$serde_json..value..ser..SerializeMap$u20$as$u20$serde_core..ser..SerializeStruct$GT$15serialize_field17h809d7e994e4e7dcfE', symObjAddr: 0x272C, symBinAddr: 0x4E04, symSize: 0x38 }
  - { offset: 0x3066, size: 0x8, addend: 0x0, symName: '__ZN89_$LT$serde_json..value..ser..SerializeMap$u20$as$u20$serde_core..ser..SerializeStruct$GT$15serialize_field17h88fcd1a5882cd2beE', symObjAddr: 0x2764, symBinAddr: 0x4E3C, symSize: 0x38 }
  - { offset: 0x30BB, size: 0x8, addend: 0x0, symName: '__ZN89_$LT$serde_json..value..ser..SerializeMap$u20$as$u20$serde_core..ser..SerializeStruct$GT$15serialize_field17h9b128a4f4c5ab9e1E', symObjAddr: 0x279C, symBinAddr: 0x4E74, symSize: 0x38 }
  - { offset: 0x3110, size: 0x8, addend: 0x0, symName: '__ZN89_$LT$serde_json..value..ser..SerializeMap$u20$as$u20$serde_core..ser..SerializeStruct$GT$15serialize_field17hb512e49fe24b965aE', symObjAddr: 0x27D4, symBinAddr: 0x4EAC, symSize: 0x38 }
  - { offset: 0x3165, size: 0x8, addend: 0x0, symName: '__ZN89_$LT$serde_json..value..ser..SerializeMap$u20$as$u20$serde_core..ser..SerializeStruct$GT$15serialize_field17hc327f9ab059d5ecaE', symObjAddr: 0x280C, symBinAddr: 0x4EE4, symSize: 0x38 }
  - { offset: 0x31BA, size: 0x8, addend: 0x0, symName: '__ZN89_$LT$serde_json..value..ser..SerializeMap$u20$as$u20$serde_core..ser..SerializeStruct$GT$15serialize_field17hc9ef98564f618996E', symObjAddr: 0x2844, symBinAddr: 0x4F1C, symSize: 0x38 }
  - { offset: 0x320F, size: 0x8, addend: 0x0, symName: '__ZN89_$LT$serde_json..value..ser..SerializeMap$u20$as$u20$serde_core..ser..SerializeStruct$GT$15serialize_field17hcb6f55e494e479e6E', symObjAddr: 0x287C, symBinAddr: 0x4F54, symSize: 0x38 }
  - { offset: 0x3264, size: 0x8, addend: 0x0, symName: '__ZN89_$LT$serde_json..value..ser..SerializeMap$u20$as$u20$serde_core..ser..SerializeStruct$GT$15serialize_field17hd33b5dedd268cd6aE', symObjAddr: 0x28B4, symBinAddr: 0x4F8C, symSize: 0x38 }
  - { offset: 0x32B9, size: 0x8, addend: 0x0, symName: '__ZN89_$LT$serde_json..value..ser..SerializeMap$u20$as$u20$serde_core..ser..SerializeStruct$GT$15serialize_field17he8767d3d342665e9E', symObjAddr: 0x28EC, symBinAddr: 0x4FC4, symSize: 0x38 }
  - { offset: 0x4E3F, size: 0x8, addend: 0x0, symName: '__ZN159_$LT$pyo3..conversion..FromPyObject..sequence_extractor..NeverASequence$LT$T$GT$$u20$as$u20$pyo3..conversion..from_py_object_sequence..FromPyObjectSequence$GT$6to_vec17h0bf0731eeeaec4a8E', symObjAddr: 0x0, symBinAddr: 0x4FFC, symSize: 0x2C }
  - { offset: 0x4E65, size: 0x8, addend: 0x0, symName: '__ZN159_$LT$pyo3..conversion..FromPyObject..sequence_extractor..NeverASequence$LT$T$GT$$u20$as$u20$pyo3..conversion..from_py_object_sequence..FromPyObjectSequence$GT$6to_vec17h0bf0731eeeaec4a8E', symObjAddr: 0x0, symBinAddr: 0x4FFC, symSize: 0x2C }
  - { offset: 0x50ED, size: 0x8, addend: 0x0, symName: '__ZN10rdx_schema1_76_$LT$impl$u20$serde_core..de..Deserialize$u20$for$u20$rdx_schema..Schema$GT$11deserialize17h6df760edfc4fab61E', symObjAddr: 0x0, symBinAddr: 0x5028, symSize: 0x34 }
  - { offset: 0x524C, size: 0x8, addend: 0x0, symName: '__ZN158_$LT$rdx_schema.._..$LT$impl$u20$serde_core..de..Deserialize$u20$for$u20$rdx_schema..Schema$GT$..deserialize..__Visitor$u20$as$u20$serde_core..de..Visitor$GT$9visit_map17h363168662f9b2c7cE', symObjAddr: 0x3E8, symBinAddr: 0x5410, symSize: 0x54C }
  - { offset: 0x53F2, size: 0x8, addend: 0x0, symName: '__ZN158_$LT$rdx_schema.._..$LT$impl$u20$serde_core..de..Deserialize$u20$for$u20$rdx_schema..Schema$GT$..deserialize..__Visitor$u20$as$u20$serde_core..de..Visitor$GT$9visit_seq17ha636a22673774a43E', symObjAddr: 0x934, symBinAddr: 0x595C, symSize: 0x238 }
  - { offset: 0x54F6, size: 0x8, addend: 0x0, symName: '__ZN160_$LT$rdx_schema.._..$LT$impl$u20$serde_core..de..Deserialize$u20$for$u20$rdx_schema..PropType$GT$..deserialize..__Visitor$u20$as$u20$serde_core..de..Visitor$GT$10visit_enum17hb54eab1bd28dbfaaE', symObjAddr: 0xB6C, symBinAddr: 0x5B94, symSize: 0x45C }
  - { offset: 0x56FF, size: 0x8, addend: 0x0, symName: '__ZN162_$LT$rdx_schema.._..$LT$impl$u20$serde_core..de..Deserialize$u20$for$u20$rdx_schema..PropSchema$GT$..deserialize..__Visitor$u20$as$u20$serde_core..de..Visitor$GT$9visit_map17hae5c9bfb168900b9E', symObjAddr: 0xFDC, symBinAddr: 0x6004, symSize: 0xA14 }
  - { offset: 0x59CB, size: 0x8, addend: 0x0, symName: '__ZN162_$LT$rdx_schema.._..$LT$impl$u20$serde_core..de..Deserialize$u20$for$u20$rdx_schema..PropSchema$GT$..deserialize..__Visitor$u20$as$u20$serde_core..de..Visitor$GT$9visit_seq17hfd715c247cf0afd5E', symObjAddr: 0x19F0, symBinAddr: 0x6A18, symSize: 0x4AC }
  - { offset: 0x5B8C, size: 0x8, addend: 0x0, symName: '__ZN167_$LT$rdx_schema.._..$LT$impl$u20$serde_core..de..Deserialize$u20$for$u20$rdx_schema..ComponentSchema$GT$..deserialize..__Visitor$u20$as$u20$serde_core..de..Visitor$GT$9visit_map17h14b93cddf88f6be0E', symObjAddr: 0x2180, symBinAddr: 0x71A8, symSize: 0x998 }
  - { offset: 0x5DF9, size: 0x8, addend: 0x0, symName: '__ZN167_$LT$rdx_schema.._..$LT$impl$u20$serde_core..de..Deserialize$u20$for$u20$rdx_schema..ComponentSchema$GT$..deserialize..__Visitor$u20$as$u20$serde_core..de..Visitor$GT$9visit_seq17h936fd8c264051bd4E', symObjAddr: 0x2B18, symBinAddr: 0x7B40, symSize: 0x43C }
  - { offset: 0x5F97, size: 0x8, addend: 0x0, symName: '__ZN160_$LT$rdx_schema.._..$LT$impl$u20$serde_core..de..Deserialize$u20$for$u20$rdx_schema..Schema$GT$..deserialize..__Field$u20$as$u20$serde_core..de..Deserialize$GT$11deserialize17h751e467bad69efc3E', symObjAddr: 0xFC8, symBinAddr: 0x5FF0, symSize: 0x14 }
  - { offset: 0x5FCD, size: 0x8, addend: 0x0, symName: '__ZN162_$LT$rdx_schema.._..$LT$impl$u20$serde_core..de..Deserialize$u20$for$u20$rdx_schema..PropType$GT$..deserialize..__Field$u20$as$u20$serde_core..de..Deserialize$GT$11deserialize17h1a11d75621d9e194E', symObjAddr: 0x1E9C, symBinAddr: 0x6EC4, symSize: 0x14 }
  - { offset: 0x6003, size: 0x8, addend: 0x0, symName: '__ZN164_$LT$rdx_schema.._..$LT$impl$u20$serde_core..de..Deserialize$u20$for$u20$rdx_schema..PropSchema$GT$..deserialize..__Field$u20$as$u20$serde_core..de..Deserialize$GT$11deserialize17h48675773be86060eE', symObjAddr: 0x1F58, symBinAddr: 0x6F80, symSize: 0x14 }
  - { offset: 0x6039, size: 0x8, addend: 0x0, symName: '__ZN169_$LT$rdx_schema.._..$LT$impl$u20$serde_core..de..Deserialize$u20$for$u20$rdx_schema..ComponentSchema$GT$..deserialize..__Field$u20$as$u20$serde_core..de..Deserialize$GT$11deserialize17h4035ce0002dd2e88E', symObjAddr: 0x30A4, symBinAddr: 0x80CC, symSize: 0x14 }
  - { offset: 0x6075, size: 0x8, addend: 0x0, symName: '__ZN163_$LT$rdx_schema.._..$LT$impl$u20$serde_core..de..Deserialize$u20$for$u20$rdx_schema..Schema$GT$..deserialize..__FieldVisitor$u20$as$u20$serde_core..de..Visitor$GT$9visit_str17h583d2c340da03b2cE', symObjAddr: 0x1EB0, symBinAddr: 0x6ED8, symSize: 0xA8 }
  - { offset: 0x60C3, size: 0x8, addend: 0x0, symName: '__ZN165_$LT$rdx_schema.._..$LT$impl$u20$serde_core..de..Deserialize$u20$for$u20$rdx_schema..PropType$GT$..deserialize..__FieldVisitor$u20$as$u20$serde_core..de..Visitor$GT$9visit_str17he16ef73fa1a8e5b3E', symObjAddr: 0x1F6C, symBinAddr: 0x6F94, symSize: 0x214 }
  - { offset: 0x6111, size: 0x8, addend: 0x0, symName: '__ZN167_$LT$rdx_schema.._..$LT$impl$u20$serde_core..de..Deserialize$u20$for$u20$rdx_schema..PropSchema$GT$..deserialize..__FieldVisitor$u20$as$u20$serde_core..de..Visitor$GT$9visit_str17hd3b3ebe3c4f95788E', symObjAddr: 0x2F54, symBinAddr: 0x7F7C, symSize: 0x150 }
  - { offset: 0x615F, size: 0x8, addend: 0x0, symName: '__ZN172_$LT$rdx_schema.._..$LT$impl$u20$serde_core..de..Deserialize$u20$for$u20$rdx_schema..ComponentSchema$GT$..deserialize..__FieldVisitor$u20$as$u20$serde_core..de..Visitor$GT$9visit_str17hbf049c28277e935eE', symObjAddr: 0x30B8, symBinAddr: 0x80E0, symSize: 0x118 }
  - { offset: 0x6253, size: 0x8, addend: 0x0, symName: '__ZN10rdx_schema1_76_$LT$impl$u20$serde_core..de..Deserialize$u20$for$u20$rdx_schema..Schema$GT$11deserialize17h6df760edfc4fab61E', symObjAddr: 0x0, symBinAddr: 0x5028, symSize: 0x34 }
  - { offset: 0x6289, size: 0x8, addend: 0x0, symName: '__ZN10rdx_schema1_78_$LT$impl$u20$serde_core..de..Deserialize$u20$for$u20$rdx_schema..PropType$GT$11deserialize17he64d19f7897cccb8E', symObjAddr: 0x34, symBinAddr: 0x505C, symSize: 0x30 }
  - { offset: 0x62BF, size: 0x8, addend: 0x0, symName: '__ZN10rdx_schema1_78_$LT$impl$u20$serde_core..de..Deserialize$u20$for$u20$rdx_schema..PropType$GT$11deserialize17he9b20e1f0cefaf8cE', symObjAddr: 0x64, symBinAddr: 0x508C, symSize: 0x44 }
  - { offset: 0x62F4, size: 0x8, addend: 0x0, symName: '__ZN10rdx_schema1_80_$LT$impl$u20$serde_core..de..Deserialize$u20$for$u20$rdx_schema..PropSchema$GT$11deserialize17h3c3d3194851aeb53E', symObjAddr: 0xA8, symBinAddr: 0x50D0, symSize: 0x34 }
  - { offset: 0x632A, size: 0x8, addend: 0x0, symName: '__ZN10rdx_schema1_85_$LT$impl$u20$serde_core..de..Deserialize$u20$for$u20$rdx_schema..ComponentSchema$GT$11deserialize17ha65cbb59838bb5b5E', symObjAddr: 0xDC, symBinAddr: 0x5104, symSize: 0x34 }
  - { offset: 0x670E, size: 0x8, addend: 0x0, symName: __ZN10serde_core2de7Visitor12visit_string17h3c3346936e84ad20E, symObjAddr: 0x110, symBinAddr: 0x5138, symSize: 0x98 }
  - { offset: 0x675E, size: 0x8, addend: 0x0, symName: __ZN10serde_core2de7Visitor12visit_string17h4fdf7090aef66f3dE, symObjAddr: 0x1A8, symBinAddr: 0x51D0, symSize: 0x98 }
  - { offset: 0x67AE, size: 0x8, addend: 0x0, symName: __ZN10serde_core2de7Visitor12visit_string17hee05331d100fde5cE, symObjAddr: 0x240, symBinAddr: 0x5268, symSize: 0x98 }
  - { offset: 0x67FE, size: 0x8, addend: 0x0, symName: __ZN10serde_core2de7Visitor12visit_string17hf81a22c89fd55571E, symObjAddr: 0x2D8, symBinAddr: 0x5300, symSize: 0x98 }
  - { offset: 0x684E, size: 0x8, addend: 0x0, symName: __ZN10serde_core2de7Visitor18visit_borrowed_str17h1e5f968b42fd7ab3E, symObjAddr: 0x370, symBinAddr: 0x5398, symSize: 0x28 }
  - { offset: 0x689D, size: 0x8, addend: 0x0, symName: __ZN10serde_core2de7Visitor18visit_borrowed_str17h1f14008b08d56b61E, symObjAddr: 0x398, symBinAddr: 0x53C0, symSize: 0x28 }
  - { offset: 0x68EC, size: 0x8, addend: 0x0, symName: __ZN10serde_core2de7Visitor18visit_borrowed_str17h60679eb33d2e166bE, symObjAddr: 0x3C0, symBinAddr: 0x53E8, symSize: 0x28 }
  - { offset: 0x6941, size: 0x8, addend: 0x0, symName: '__ZN46_$LT$T$u20$as$u20$serde_core..de..Expected$GT$3fmt17h5f3cfd6d4b5573b5E', symObjAddr: 0x31D0, symBinAddr: 0x81F8, symSize: 0x2C }
  - { offset: 0x6987, size: 0x8, addend: 0x0, symName: '__ZN46_$LT$T$u20$as$u20$serde_core..de..Expected$GT$3fmt17haa4d57811635310fE', symObjAddr: 0x31FC, symBinAddr: 0x8224, symSize: 0x2C }
  - { offset: 0x69CD, size: 0x8, addend: 0x0, symName: '__ZN46_$LT$T$u20$as$u20$serde_core..de..Expected$GT$3fmt17hebd43d21b5cc7855E', symObjAddr: 0x3228, symBinAddr: 0x8250, symSize: 0x2C }
  - { offset: 0x877E, size: 0x8, addend: 0x0, symName: '__ZN52_$LT$T$u20$as$u20$pyo3..type_object..PyTypeCheck$GT$10type_check17hb6721427a207ad82E', symObjAddr: 0x0, symBinAddr: 0x827C, symSize: 0x24 }
  - { offset: 0x9940, size: 0x8, addend: 0x0, symName: '__ZN52_$LT$T$u20$as$u20$pyo3..type_object..PyTypeCheck$GT$10type_check17hb6721427a207ad82E', symObjAddr: 0x0, symBinAddr: 0x827C, symSize: 0x24 }
  - { offset: 0x9F48, size: 0x8, addend: 0x0, symName: '__ZN102_$LT$core..iter..adapters..map..Map$LT$I$C$F$GT$$u20$as$u20$core..iter..traits..iterator..Iterator$GT$4next17he7d762268492b7b3E', symObjAddr: 0x0, symBinAddr: 0x82A0, symSize: 0x98 }
  - { offset: 0xBA8D, size: 0x8, addend: 0x0, symName: '__ZN102_$LT$core..iter..adapters..map..Map$LT$I$C$F$GT$$u20$as$u20$core..iter..traits..iterator..Iterator$GT$4next17he7d762268492b7b3E', symObjAddr: 0x0, symBinAddr: 0x82A0, symSize: 0x98 }
  - { offset: 0xBB29, size: 0x8, addend: 0x0, symName: '__ZN102_$LT$core..iter..adapters..map..Map$LT$I$C$F$GT$$u20$as$u20$core..iter..traits..iterator..Iterator$GT$8try_fold17h9a9bf88cc6c046a2E', symObjAddr: 0x98, symBinAddr: 0x8338, symSize: 0x4C }
  - { offset: 0xBBA7, size: 0x8, addend: 0x0, symName: '__ZN102_$LT$core..iter..adapters..map..Map$LT$I$C$F$GT$$u20$as$u20$core..iter..traits..iterator..Iterator$GT$8try_fold17heff855b8ec584072E', symObjAddr: 0xE4, symBinAddr: 0x8384, symSize: 0x58 }
  - { offset: 0xBCCB, size: 0x8, addend: 0x0, symName: '__ZN4core4iter8adapters3map12map_try_fold28_$u7b$$u7b$closure$u7d$$u7d$17h4289dea647d2501fE', symObjAddr: 0x18C, symBinAddr: 0x842C, symSize: 0xC4 }
  - { offset: 0xBD5D, size: 0x8, addend: 0x0, symName: '__ZN4core4iter8adapters3map12map_try_fold28_$u7b$$u7b$closure$u7d$$u7d$17hbe7a0a51e7d883beE', symObjAddr: 0x250, symBinAddr: 0x84F0, symSize: 0x10C }
  - { offset: 0xBDF6, size: 0x8, addend: 0x0, symName: '__ZN113_$LT$core..iter..adapters..map..Map$LT$I$C$F$GT$$u20$as$u20$core..iter..traits..exact_size..ExactSizeIterator$GT$3len17h364b04a6a8fbd230E', symObjAddr: 0x13C, symBinAddr: 0x83DC, symSize: 0x24 }
  - { offset: 0xBE43, size: 0x8, addend: 0x0, symName: '__ZN96_$LT$core..iter..adapters..map..Map$LT$I$C$F$GT$$u20$as$u20$core..iter..adapters..SourceIter$GT$8as_inner17h3f77315d88cd350dE', symObjAddr: 0x49C, symBinAddr: 0x873C, symSize: 0x24 }
  - { offset: 0xBF59, size: 0x8, addend: 0x0, symName: __ZN4core4iter6traits8iterator8Iterator4take17h544929f869569463E, symObjAddr: 0x160, symBinAddr: 0x8400, symSize: 0x18 }
  - { offset: 0xBF9F, size: 0x8, addend: 0x0, symName: __ZN4core4iter6traits8iterator8Iterator7collect17h8f921aad6872e9c6E, symObjAddr: 0x178, symBinAddr: 0x8418, symSize: 0x14 }
  - { offset: 0xBFE6, size: 0x8, addend: 0x0, symName: '__ZN72_$LT$$RF$mut$u20$I$u20$as$u20$core..iter..traits..iterator..Iterator$GT$8try_fold17hc3bf09394d80815fE', symObjAddr: 0x370, symBinAddr: 0x8610, symSize: 0x38 }
  - { offset: 0xC05C, size: 0x8, addend: 0x0, symName: '__ZN79_$LT$$RF$mut$u20$I$u20$as$u20$core..iter..traits..iterator..IteratorRefSpec$GT$13spec_try_fold17hc44a3b5725557b9aE', symObjAddr: 0x3A8, symBinAddr: 0x8648, symSize: 0x3C }
  - { offset: 0xC0D8, size: 0x8, addend: 0x0, symName: '__ZN63_$LT$I$u20$as$u20$core..iter..traits..collect..IntoIterator$GT$9into_iter17h255c9a2a2ba2f31cE', symObjAddr: 0x35C, symBinAddr: 0x85FC, symSize: 0x14 }
  - { offset: 0xCB76, size: 0x8, addend: 0x0, symName: '__ZN83_$LT$I$u20$as$u20$alloc..vec..in_place_collect..SpecInPlaceCollect$LT$T$C$I$GT$$GT$16collect_in_place17h85ab911c63c6ce07E', symObjAddr: 0x3E4, symBinAddr: 0x8684, symSize: 0xB8 }
  - { offset: 0xD316, size: 0x8, addend: 0x0, symName: __ZN4core3ptr19copy_nonoverlapping18precondition_check17he032f9b372662fcfE, symObjAddr: 0x0, symBinAddr: 0x8760, symSize: 0x358 }
  - { offset: 0xD634, size: 0x8, addend: 0x0, symName: __ZN4core3ptr19copy_nonoverlapping18precondition_check17he032f9b372662fcfE, symObjAddr: 0x0, symBinAddr: 0x8760, symSize: 0x358 }
  - { offset: 0xDC85, size: 0x8, addend: 0x0, symName: __ZN4pyo35types4none6PyNone3get17h749de2f46e257b4dE, symObjAddr: 0x0, symBinAddr: 0x8AB8, symSize: 0x24 }
  - { offset: 0xF3F2, size: 0x8, addend: 0x0, symName: __ZN4pyo35types4none6PyNone3get17h749de2f46e257b4dE, symObjAddr: 0x0, symBinAddr: 0x8AB8, symSize: 0x24 }
  - { offset: 0xF43D, size: 0x8, addend: 0x0, symName: __ZN4core4hint16assert_unchecked18precondition_check17hb7edde1c78ce5986E, symObjAddr: 0x0, symBinAddr: 0x8ADC, symSize: 0xA4 }
  - { offset: 0xF75F, size: 0x8, addend: 0x0, symName: __ZN4core4hint16assert_unchecked18precondition_check17hb7edde1c78ce5986E, symObjAddr: 0x0, symBinAddr: 0x8ADC, symSize: 0xA4 }
  - { offset: 0xF7BF, size: 0x8, addend: 0x0, symName: __ZN4core4hint21unreachable_unchecked18precondition_check17h07411a5a087a6287E, symObjAddr: 0xA4, symBinAddr: 0x8B80, symSize: 0x84 }
  - { offset: 0xF9D2, size: 0x8, addend: 0x0, symName: '__ZN5alloc11collections5btree4node173Handle$LT$alloc..collections..btree..node..NodeRef$LT$alloc..collections..btree..node..marker..Dying$C$K$C$V$C$NodeType$GT$$C$alloc..collections..btree..node..marker..KV$GT$12into_key_val17h4754d650458c9be6E', symObjAddr: 0x0, symBinAddr: 0x8C04, symSize: 0x134 }
  - { offset: 0x108B7, size: 0x8, addend: 0x0, symName: '__ZN5alloc11collections5btree4node173Handle$LT$alloc..collections..btree..node..NodeRef$LT$alloc..collections..btree..node..marker..Dying$C$K$C$V$C$NodeType$GT$$C$alloc..collections..btree..node..marker..KV$GT$12into_key_val17h4754d650458c9be6E', symObjAddr: 0x0, symBinAddr: 0x8C04, symSize: 0x134 }
  - { offset: 0x10B41, size: 0x8, addend: 0x0, symName: '__ZN111_$LT$alloc..vec..in_place_drop..InPlaceDstDataSrcBufDrop$LT$Src$C$Dest$GT$$u20$as$u20$core..ops..drop..Drop$GT$4drop17hd9603b2fb3e1559bE', symObjAddr: 0x0, symBinAddr: 0x8D38, symSize: 0xB4 }
  - { offset: 0x11829, size: 0x8, addend: 0x0, symName: '__ZN4core3ptr101drop_in_place$LT$core..option..Option$LT$core..option..Option$LT$serde_json..value..Value$GT$$GT$$GT$17he0aa6183166edccfE', symObjAddr: 0x1340, symBinAddr: 0xA030, symSize: 0x44 }
  - { offset: 0x11858, size: 0x8, addend: 0x0, symName: '__ZN4core3ptr101drop_in_place$LT$serde..private..de..content..ContentDeserializer$LT$serde_json..error..Error$GT$$GT$17h98fa448ecf36a3ccE', symObjAddr: 0x1384, symBinAddr: 0xA074, symSize: 0x24 }
  - { offset: 0x11887, size: 0x8, addend: 0x0, symName: '__ZN4core3ptr103drop_in_place$LT$alloc..raw_vec..RawVec$LT$pyo3..instance..Bound$LT$pyo3..types..any..PyAny$GT$$GT$$GT$17h2853e1cf56ac1b5fE', symObjAddr: 0x13A8, symBinAddr: 0xA098, symSize: 0x24 }
  - { offset: 0x118B6, size: 0x8, addend: 0x0, symName: '__ZN4core3ptr103drop_in_place$LT$pythonize..ser..PythonCollectionSerializer$LT$pythonize..ser..PythonizeDefault$GT$$GT$17hfb7cef70d8e2d6fcE', symObjAddr: 0x13CC, symBinAddr: 0xA0BC, symSize: 0x24 }
  - { offset: 0x118E5, size: 0x8, addend: 0x0, symName: '__ZN4core3ptr105drop_in_place$LT$core..option..Option$LT$$LP$alloc..string..String$C$serde_json..value..Value$RP$$GT$$GT$17h5b958877dcf1d21dE', symObjAddr: 0x13F0, symBinAddr: 0xA0E0, symSize: 0x48 }
  - { offset: 0x11914, size: 0x8, addend: 0x0, symName: '__ZN4core3ptr112drop_in_place$LT$alloc..vec..into_iter..IntoIter$LT$pyo3..instance..Bound$LT$pyo3..types..any..PyAny$GT$$GT$$GT$17h406b64fae3ce5615E', symObjAddr: 0x1480, symBinAddr: 0xA128, symSize: 0x24 }
  - { offset: 0x11943, size: 0x8, addend: 0x0, symName: '__ZN4core3ptr114drop_in_place$LT$core..result..Result$LT$pythonize..de..PySetAsSequence$C$pythonize..error..PythonizeError$GT$$GT$17h1e1174b113ac01d8E', symObjAddr: 0x14A4, symBinAddr: 0xA14C, symSize: 0x50 }
  - { offset: 0x11972, size: 0x8, addend: 0x0, symName: '__ZN4core3ptr121drop_in_place$LT$core..option..Option$LT$core..option..Option$LT$alloc..vec..Vec$LT$alloc..string..String$GT$$GT$$GT$$GT$17hb87579787b330805E', symObjAddr: 0x1518, symBinAddr: 0xA19C, symSize: 0x48 }
  - { offset: 0x119A1, size: 0x8, addend: 0x0, symName: '__ZN4core3ptr139drop_in_place$LT$alloc..vec..in_place_drop..InPlaceDstDataSrcBufDrop$LT$rdx_schema..validate..Diagnostic$C$serde_json..value..Value$GT$$GT$17h2f78bed7ac47d961E', symObjAddr: 0x1584, symBinAddr: 0xA1E4, symSize: 0x24 }
  - { offset: 0x119D0, size: 0x8, addend: 0x0, symName: '__ZN4core3ptr139drop_in_place$LT$core..option..Option$LT$std..collections..hash..map..HashMap$LT$alloc..string..String$C$rdx_schema..PropSchema$GT$$GT$$GT$17h083373efa23ccd4cE', symObjAddr: 0x15A8, symBinAddr: 0xA208, symSize: 0x44 }
  - { offset: 0x119FF, size: 0x8, addend: 0x0, symName: '__ZN4core3ptr140drop_in_place$LT$core..result..Result$LT$$RF$pyo3..instance..Bound$LT$pyo3..types..num..PyInt$GT$$C$pyo3..err..cast_error..CastError$GT$$GT$17h6cf855c716704e91E', symObjAddr: 0x15EC, symBinAddr: 0xA24C, symSize: 0x44 }
  - { offset: 0x11A2E, size: 0x8, addend: 0x0, symName: '__ZN4core3ptr144drop_in_place$LT$core..option..Option$LT$std..collections..hash..map..HashMap$LT$alloc..string..String$C$rdx_schema..ComponentSchema$GT$$GT$$GT$17h2aad937004f90c14E', symObjAddr: 0x1630, symBinAddr: 0xA290, symSize: 0x44 }
  - { offset: 0x11A5D, size: 0x8, addend: 0x0, symName: '__ZN4core3ptr145drop_in_place$LT$alloc..vec..into_iter..IntoIter$LT$$LP$serde_core..private..content..Content$C$serde_core..private..content..Content$RP$$GT$$GT$17h3fd9e430c8b1266cE', symObjAddr: 0x1674, symBinAddr: 0xA2D4, symSize: 0x24 }
  - { offset: 0x11A8C, size: 0x8, addend: 0x0, symName: '__ZN4core3ptr148drop_in_place$LT$core..result..Result$LT$$RF$pyo3..instance..Bound$LT$pyo3..types..mapping..PyMapping$GT$$C$pyo3..err..cast_error..CastError$GT$$GT$17h81fe4d895ec3ff53E', symObjAddr: 0x1698, symBinAddr: 0xA2F8, symSize: 0x44 }
  - { offset: 0x11ABB, size: 0x8, addend: 0x0, symName: '__ZN4core3ptr150drop_in_place$LT$core..result..Result$LT$$RF$pyo3..instance..Bound$LT$pyo3..types..sequence..PySequence$GT$$C$pyo3..err..cast_error..CastError$GT$$GT$17h93bf685c8be7c198E', symObjAddr: 0x16DC, symBinAddr: 0xA33C, symSize: 0x44 }
  - { offset: 0x11AEA, size: 0x8, addend: 0x0, symName: '__ZN4core3ptr159drop_in_place$LT$pyo3..err..PyErr..new$LT$pyo3..exceptions..PyKeyError$C$pyo3..instance..Py$LT$pyo3..types..any..PyAny$GT$$GT$..$u7b$$u7b$closure$u7d$$u7d$$GT$17hf3764ff716a71a65E', symObjAddr: 0x1720, symBinAddr: 0xA380, symSize: 0x24 }
  - { offset: 0x11B19, size: 0x8, addend: 0x0, symName: '__ZN4core3ptr173drop_in_place$LT$$LP$rdx_ast.._..$LT$impl$u20$serde_core..de..Deserialize$u20$for$u20$rdx_ast..Node$GT$..deserialize..__Field$C$serde_core..private..content..Content$RP$$GT$17h95e0b570aef2862fE', symObjAddr: 0x1744, symBinAddr: 0xA3A4, symSize: 0x24 }
  - { offset: 0x11B48, size: 0x8, addend: 0x0, symName: '__ZN4core3ptr176drop_in_place$LT$core..iter..adapters..map..Map$LT$alloc..vec..into_iter..IntoIter$LT$rdx_schema..validate..Diagnostic$GT$$C$_rdx..validate..$u7b$$u7b$closure$u7d$$u7d$$GT$$GT$17h42e631566a2e937bE', symObjAddr: 0x1768, symBinAddr: 0xA3C8, symSize: 0x24 }
  - { offset: 0x11B77, size: 0x8, addend: 0x0, symName: '__ZN4core3ptr178drop_in_place$LT$$LT$alloc..vec..into_iter..IntoIter$LT$T$C$A$GT$$u20$as$u20$core..ops..drop..Drop$GT$..drop..DropGuard$LT$serde_json..value..Value$C$alloc..alloc..Global$GT$$GT$17h4ab2f5ea3c404befE', symObjAddr: 0x178C, symBinAddr: 0xA3EC, symSize: 0x24 }
  - { offset: 0x11BA6, size: 0x8, addend: 0x0, symName: '__ZN4core3ptr186drop_in_place$LT$$LT$alloc..vec..into_iter..IntoIter$LT$T$C$A$GT$$u20$as$u20$core..ops..drop..Drop$GT$..drop..DropGuard$LT$rdx_schema..validate..Diagnostic$C$alloc..alloc..Global$GT$$GT$17h9322181f35092a35E', symObjAddr: 0x17B0, symBinAddr: 0xA410, symSize: 0x24 }
  - { offset: 0x11BD5, size: 0x8, addend: 0x0, symName: '__ZN4core3ptr191drop_in_place$LT$$LT$alloc..vec..into_iter..IntoIter$LT$T$C$A$GT$$u20$as$u20$core..ops..drop..Drop$GT$..drop..DropGuard$LT$serde_core..private..content..Content$C$alloc..alloc..Global$GT$$GT$17h4130b57b424c79e4E', symObjAddr: 0x17D4, symBinAddr: 0xA434, symSize: 0x24 }
  - { offset: 0x11C04, size: 0x8, addend: 0x0, symName: '__ZN4core3ptr206drop_in_place$LT$$LT$alloc..vec..into_iter..IntoIter$LT$T$C$A$GT$$u20$as$u20$core..ops..drop..Drop$GT$..drop..DropGuard$LT$pyo3..instance..Bound$LT$pyo3..types..any..PyAny$GT$$C$alloc..alloc..Global$GT$$GT$17h057f1eab4dabf15cE', symObjAddr: 0x17F8, symBinAddr: 0xA458, symSize: 0x24 }
  - { offset: 0x11C33, size: 0x8, addend: 0x0, symName: '__ZN4core3ptr209drop_in_place$LT$$LT$pythonize..de..PyDataclassAccess$u20$as$u20$serde_core..de..MapAccess$GT$..next_value_seed$LT$core..marker..PhantomData$LT$serde_json..value..Value$GT$$GT$..$u7b$$u7b$closure$u7d$$u7d$$GT$17hf214a3e4b8b94065E', symObjAddr: 0x181C, symBinAddr: 0xA47C, symSize: 0x24 }
  - { offset: 0x11C62, size: 0x8, addend: 0x0, symName: '__ZN4core3ptr239drop_in_place$LT$$LT$alloc..vec..into_iter..IntoIter$LT$T$C$A$GT$$u20$as$u20$core..ops..drop..Drop$GT$..drop..DropGuard$LT$$LP$serde_core..private..content..Content$C$serde_core..private..content..Content$RP$$C$alloc..alloc..Global$GT$$GT$17h64de26c904c330d9E', symObjAddr: 0x1840, symBinAddr: 0xA4A0, symSize: 0x24 }
  - { offset: 0x11C91, size: 0x8, addend: 0x0, symName: '__ZN4core3ptr298drop_in_place$LT$$LT$serde_json..value..de..EnumDeserializer$u20$as$u20$serde_core..de..EnumAccess$GT$..variant_seed$LT$core..marker..PhantomData$LT$rdx_ast.._..$LT$impl$u20$serde_core..de..Deserialize$u20$for$u20$rdx_ast..RootType$GT$..deserialize..__Field$GT$$GT$..$u7b$$u7b$closure$u7d$$u7d$$GT$17h9add207d1257aef0E', symObjAddr: 0x1864, symBinAddr: 0xA4C4, symSize: 0x24 }
  - { offset: 0x11CC0, size: 0x8, addend: 0x0, symName: '__ZN4core3ptr304drop_in_place$LT$$LT$serde_json..value..de..EnumDeserializer$u20$as$u20$serde_core..de..EnumAccess$GT$..variant_seed$LT$core..marker..PhantomData$LT$rdx_schema.._..$LT$impl$u20$serde_core..de..Deserialize$u20$for$u20$rdx_schema..PropType$GT$..deserialize..__Field$GT$$GT$..$u7b$$u7b$closure$u7d$$u7d$$GT$17h42b3d865ab44b139E', symObjAddr: 0x1888, symBinAddr: 0xA4E8, symSize: 0x24 }
  - { offset: 0x11CEF, size: 0x8, addend: 0x0, symName: '__ZN4core3ptr444drop_in_place$LT$core..iter..adapters..map..Map$LT$alloc..vec..into_iter..IntoIter$LT$pyo3..instance..Bound$LT$pyo3..types..any..PyAny$GT$$GT$$C$pyo3..types..list..PyList..new$LT$pyo3..instance..Bound$LT$pyo3..types..any..PyAny$GT$$C$alloc..vec..into_iter..IntoIter$LT$pyo3..instance..Bound$LT$pyo3..types..any..PyAny$GT$$GT$$C$alloc..vec..Vec$LT$pyo3..instance..Bound$LT$pyo3..types..any..PyAny$GT$$GT$$GT$..$u7b$$u7b$closure$u7d$$u7d$$GT$$GT$17hdce683a4da39d021E', symObjAddr: 0x18AC, symBinAddr: 0xA50C, symSize: 0x24 }
  - { offset: 0x11D1E, size: 0x8, addend: 0x0, symName: '__ZN4core3ptr46drop_in_place$LT$serde_json..map..IntoIter$GT$17h22ecd7d5c4f7f4fdE', symObjAddr: 0x18D0, symBinAddr: 0xA530, symSize: 0x24 }
  - { offset: 0x11D4D, size: 0x8, addend: 0x0, symName: '__ZN4core3ptr51drop_in_place$LT$pythonize..de..PyMappingAccess$GT$17hec9deaab6ed6812fE', symObjAddr: 0x18F4, symBinAddr: 0xA554, symSize: 0x60 }
  - { offset: 0x11D7C, size: 0x8, addend: 0x0, symName: '__ZN4core3ptr51drop_in_place$LT$pythonize..de..PySetAsSequence$GT$17hc7a6c97802185e50E', symObjAddr: 0x1954, symBinAddr: 0xA5B4, symSize: 0x24 }
  - { offset: 0x11DAB, size: 0x8, addend: 0x0, symName: '__ZN4core3ptr53drop_in_place$LT$pythonize..de..PyDataclassAccess$GT$17h3aa37d8b75d63da6E', symObjAddr: 0x199C, symBinAddr: 0xA5D8, symSize: 0x60 }
  - { offset: 0x11DDA, size: 0x8, addend: 0x0, symName: '__ZN4core3ptr53drop_in_place$LT$pythonize..error..PythonizeError$GT$17h40242dfc148f8a3cE', symObjAddr: 0x19FC, symBinAddr: 0xA638, symSize: 0x24 }
  - { offset: 0x11E09, size: 0x8, addend: 0x0, symName: '__ZN4core3ptr57drop_in_place$LT$serde_json..value..ser..SerializeMap$GT$17hc3204d1e780ceab2E', symObjAddr: 0x1A20, symBinAddr: 0xA65C, symSize: 0x64 }
  - { offset: 0x11E38, size: 0x8, addend: 0x0, symName: '__ZN4core3ptr57drop_in_place$LT$serde_json..value..ser..SerializeVec$GT$17h16e7ccc12eb326c4E', symObjAddr: 0x1A84, symBinAddr: 0xA6C0, symSize: 0x24 }
  - { offset: 0x11E67, size: 0x8, addend: 0x0, symName: '__ZN4core3ptr59drop_in_place$LT$serde_json..value..de..MapDeserializer$GT$17hc36ed9e11555718cE', symObjAddr: 0x1AA8, symBinAddr: 0xA6E4, symSize: 0x60 }
  - { offset: 0x11E96, size: 0x8, addend: 0x0, symName: '__ZN4core3ptr59drop_in_place$LT$serde_json..value..de..SeqDeserializer$GT$17h39a2d0b12e2d2262E', symObjAddr: 0x1B08, symBinAddr: 0xA744, symSize: 0x24 }
  - { offset: 0x11EC5, size: 0x8, addend: 0x0, symName: '__ZN4core3ptr61drop_in_place$LT$alloc..vec..Vec$LT$$RF$rdx_ast..Node$GT$$GT$17h7d014bcac60bcc55E', symObjAddr: 0x1B2C, symBinAddr: 0xA768, symSize: 0x5C }
  - { offset: 0x11EF4, size: 0x8, addend: 0x0, symName: '__ZN4core3ptr62drop_in_place$LT$serde..private..de..content..TagOrContent$GT$17h17f136397c49bab4E', symObjAddr: 0x1B88, symBinAddr: 0xA7C4, symSize: 0x44 }
  - { offset: 0x11F23, size: 0x8, addend: 0x0, symName: '__ZN4core3ptr63drop_in_place$LT$serde_json..value..de..VariantDeserializer$GT$17h906202f826b738b4E', symObjAddr: 0x1BCC, symBinAddr: 0xA808, symSize: 0x24 }
  - { offset: 0x11F52, size: 0x8, addend: 0x0, symName: '__ZN4core3ptr68drop_in_place$LT$alloc..raw_vec..RawVec$LT$$RF$rdx_ast..Node$GT$$GT$17hcde3d766bcb196bdE', symObjAddr: 0x1BF0, symBinAddr: 0xA82C, symSize: 0x24 }
  - { offset: 0x11F81, size: 0x8, addend: 0x0, symName: '__ZN4core3ptr72drop_in_place$LT$core..option..Option$LT$rdx_ast..AttributeValue$GT$$GT$17h4314660c117bd73cE', symObjAddr: 0x1C14, symBinAddr: 0xA850, symSize: 0x4C }
  - { offset: 0x11FB0, size: 0x8, addend: 0x0, symName: '__ZN4core3ptr72drop_in_place$LT$core..result..Result$LT$i128$C$pyo3..err..PyErr$GT$$GT$17h9d11085523c58102E', symObjAddr: 0x1C60, symBinAddr: 0xA89C, symSize: 0x40 }
  - { offset: 0x11FDF, size: 0x8, addend: 0x0, symName: '__ZN4core3ptr72drop_in_place$LT$core..result..Result$LT$u128$C$pyo3..err..PyErr$GT$$GT$17h78da0e7be3c66fe4E', symObjAddr: 0x1CA0, symBinAddr: 0xA8DC, symSize: 0x40 }
  - { offset: 0x1200E, size: 0x8, addend: 0x0, symName: '__ZN4core3ptr73drop_in_place$LT$alloc..boxed..Box$LT$pythonize..error..ErrorImpl$GT$$GT$17h3f2a1e8a973a4e5bE', symObjAddr: 0x1CE0, symBinAddr: 0xA91C, symSize: 0x60 }
  - { offset: 0x1203D, size: 0x8, addend: 0x0, symName: '__ZN4core3ptr83drop_in_place$LT$pyo3..instance..Bound$LT$pyo3..types..sequence..PySequence$GT$$GT$17h923e4662afbb9cceE', symObjAddr: 0x1D40, symBinAddr: 0xA97C, symSize: 0x24 }
  - { offset: 0x1206C, size: 0x8, addend: 0x0, symName: '__ZN4core3ptr84drop_in_place$LT$alloc..vec..into_iter..IntoIter$LT$serde_json..value..Value$GT$$GT$17he6fefd129dac2118E', symObjAddr: 0x1D64, symBinAddr: 0xA9A0, symSize: 0x24 }
  - { offset: 0x1209B, size: 0x8, addend: 0x0, symName: '__ZN4core3ptr85drop_in_place$LT$core..option..Option$LT$alloc..vec..Vec$LT$rdx_ast..Node$GT$$GT$$GT$17h8ea672d1df10806fE', symObjAddr: 0x1D88, symBinAddr: 0xA9C4, symSize: 0x48 }
  - { offset: 0x120CA, size: 0x8, addend: 0x0, symName: '__ZN4core3ptr86drop_in_place$LT$core..option..Option$LT$serde_core..private..content..Content$GT$$GT$17h0c290938f9d9310dE', symObjAddr: 0x1DD0, symBinAddr: 0xAA0C, symSize: 0x44 }
  - { offset: 0x120F9, size: 0x8, addend: 0x0, symName: '__ZN4core3ptr89drop_in_place$LT$core..result..Result$LT$alloc..string..String$C$pyo3..err..PyErr$GT$$GT$17h1f1080ef9f879eb5E', symObjAddr: 0x1E14, symBinAddr: 0xAA50, symSize: 0x50 }
  - { offset: 0x12128, size: 0x8, addend: 0x0, symName: '__ZN4core3ptr91drop_in_place$LT$alloc..vec..in_place_drop..InPlaceDrop$LT$serde_json..value..Value$GT$$GT$17h68131fe37eee2532E', symObjAddr: 0x1E64, symBinAddr: 0xAAA0, symSize: 0x24 }
  - { offset: 0x12157, size: 0x8, addend: 0x0, symName: '__ZN4core3ptr92drop_in_place$LT$alloc..vec..into_iter..IntoIter$LT$rdx_schema..validate..Diagnostic$GT$$GT$17h3efb1d4801aba666E', symObjAddr: 0x1E88, symBinAddr: 0xAAC4, symSize: 0x24 }
  - { offset: 0x12186, size: 0x8, addend: 0x0, symName: '__ZN4core3ptr94drop_in_place$LT$core..option..Option$LT$alloc..vec..Vec$LT$rdx_ast..AttributeNode$GT$$GT$$GT$17h67c1a7a8cac1cddcE', symObjAddr: 0x1EAC, symBinAddr: 0xAAE8, symSize: 0x48 }
  - { offset: 0x121B5, size: 0x8, addend: 0x0, symName: '__ZN4core3ptr96drop_in_place$LT$alloc..vec..Vec$LT$pyo3..instance..Bound$LT$pyo3..types..any..PyAny$GT$$GT$$GT$17h8d49435a0210d7dbE', symObjAddr: 0x1EF4, symBinAddr: 0xAB30, symSize: 0x5C }
  - { offset: 0x121E4, size: 0x8, addend: 0x0, symName: '__ZN4core3ptr96drop_in_place$LT$pythonize..ser..PythonMapSerializer$LT$pythonize..ser..PythonizeDefault$GT$$GT$17hbf70089df70606a3E', symObjAddr: 0x1F50, symBinAddr: 0xAB8C, symSize: 0x60 }
  - { offset: 0x12213, size: 0x8, addend: 0x0, symName: '__ZN4core3ptr97drop_in_place$LT$alloc..vec..into_iter..IntoIter$LT$serde_core..private..content..Content$GT$$GT$17h370126c5a0511399E', symObjAddr: 0x1FB0, symBinAddr: 0xABEC, symSize: 0x24 }
  - { offset: 0x12242, size: 0x8, addend: 0x0, symName: '__ZN4core3ptr97drop_in_place$LT$serde..private..de..content..MapDeserializer$LT$serde_json..error..Error$GT$$GT$17h1261d497d4eab16cE', symObjAddr: 0x1FD4, symBinAddr: 0xAC10, symSize: 0x5C }
  - { offset: 0x12271, size: 0x8, addend: 0x0, symName: '__ZN4core3ptr97drop_in_place$LT$serde..private..de..content..SeqDeserializer$LT$serde_json..error..Error$GT$$GT$17ha2f5c1fc4577356aE', symObjAddr: 0x2030, symBinAddr: 0xAC6C, symSize: 0x24 }
  - { offset: 0x122A0, size: 0x8, addend: 0x0, symName: '__ZN4core3ptr98drop_in_place$LT$core..option..Option$LT$core..option..Option$LT$alloc..string..String$GT$$GT$$GT$17h71d3532f27594447E', symObjAddr: 0x2054, symBinAddr: 0xAC90, symSize: 0x48 }
  - { offset: 0x122CF, size: 0x8, addend: 0x0, symName: '__ZN4core3ptr99drop_in_place$LT$core..result..Result$LT$rdx_ast..AttributeValue$C$serde_json..error..Error$GT$$GT$17hf4dee2e386b51c96E', symObjAddr: 0x209C, symBinAddr: 0xACD8, symSize: 0x60 }
  - { offset: 0x14582, size: 0x8, addend: 0x0, symName: '__ZN4core3ops8function6FnOnce40call_once$u7b$$u7b$vtable.shim$u7d$$u7d$17h0c175263aa934040E', symObjAddr: 0x2D0, symBinAddr: 0x9008, symSize: 0x28 }
  - { offset: 0x145C6, size: 0x8, addend: 0x0, symName: __ZN4core3ops8function6FnOnce9call_once17h012d67f5ac0c0206E, symObjAddr: 0x2F8, symBinAddr: 0x9030, symSize: 0x40 }
  - { offset: 0x1460A, size: 0x8, addend: 0x0, symName: __ZN4core3ops8function6FnOnce9call_once17h08e821a09b44a5edE, symObjAddr: 0x35C, symBinAddr: 0x9070, symSize: 0x24 }
  - { offset: 0x1464E, size: 0x8, addend: 0x0, symName: __ZN4core3ops8function6FnOnce9call_once17h0aa1a3fb61927133E, symObjAddr: 0x380, symBinAddr: 0x9094, symSize: 0x40 }
  - { offset: 0x14692, size: 0x8, addend: 0x0, symName: __ZN4core3ops8function6FnOnce9call_once17h219cdc0d5dc7a2e2E, symObjAddr: 0x3C0, symBinAddr: 0x90D4, symSize: 0x40 }
  - { offset: 0x146D6, size: 0x8, addend: 0x0, symName: __ZN4core3ops8function6FnOnce9call_once17h22d67235c980f03eE, symObjAddr: 0x400, symBinAddr: 0x9114, symSize: 0x28 }
  - { offset: 0x1471A, size: 0x8, addend: 0x0, symName: __ZN4core3ops8function6FnOnce9call_once17h24e167a3633fcf8eE, symObjAddr: 0x428, symBinAddr: 0x913C, symSize: 0x34 }
  - { offset: 0x1475E, size: 0x8, addend: 0x0, symName: __ZN4core3ops8function6FnOnce9call_once17h2e8593606ad5f100E, symObjAddr: 0x480, symBinAddr: 0x9170, symSize: 0x40 }
  - { offset: 0x147A2, size: 0x8, addend: 0x0, symName: __ZN4core3ops8function6FnOnce9call_once17h2fc7ba53b0f14100E, symObjAddr: 0x4C0, symBinAddr: 0x91B0, symSize: 0x40 }
  - { offset: 0x147E6, size: 0x8, addend: 0x0, symName: __ZN4core3ops8function6FnOnce9call_once17h306f51949fd689ecE, symObjAddr: 0x500, symBinAddr: 0x91F0, symSize: 0x24 }
  - { offset: 0x1482A, size: 0x8, addend: 0x0, symName: __ZN4core3ops8function6FnOnce9call_once17h34b649618b103055E, symObjAddr: 0x524, symBinAddr: 0x9214, symSize: 0x34 }
  - { offset: 0x1486E, size: 0x8, addend: 0x0, symName: __ZN4core3ops8function6FnOnce9call_once17h39e88bb5bf42f98cE, symObjAddr: 0x558, symBinAddr: 0x9248, symSize: 0x40 }
  - { offset: 0x148B2, size: 0x8, addend: 0x0, symName: __ZN4core3ops8function6FnOnce9call_once17h3ce2f3354384fffaE, symObjAddr: 0x598, symBinAddr: 0x9288, symSize: 0x34 }
  - { offset: 0x148F6, size: 0x8, addend: 0x0, symName: __ZN4core3ops8function6FnOnce9call_once17h3e091f1806cb31a6E, symObjAddr: 0x5CC, symBinAddr: 0x92BC, symSize: 0x40 }
  - { offset: 0x1493A, size: 0x8, addend: 0x0, symName: __ZN4core3ops8function6FnOnce9call_once17h3ee05ad013177693E, symObjAddr: 0x60C, symBinAddr: 0x92FC, symSize: 0x24 }
  - { offset: 0x1497E, size: 0x8, addend: 0x0, symName: __ZN4core3ops8function6FnOnce9call_once17h41ffac2dfb365768E, symObjAddr: 0x630, symBinAddr: 0x9320, symSize: 0x34 }
  - { offset: 0x149C2, size: 0x8, addend: 0x0, symName: __ZN4core3ops8function6FnOnce9call_once17h42617a32beadb2a7E, symObjAddr: 0x664, symBinAddr: 0x9354, symSize: 0x40 }
  - { offset: 0x14A06, size: 0x8, addend: 0x0, symName: __ZN4core3ops8function6FnOnce9call_once17h42665b76f8289950E, symObjAddr: 0x6A4, symBinAddr: 0x9394, symSize: 0x24 }
  - { offset: 0x14A4A, size: 0x8, addend: 0x0, symName: __ZN4core3ops8function6FnOnce9call_once17h4361c19197d45427E, symObjAddr: 0x6C8, symBinAddr: 0x93B8, symSize: 0x40 }
  - { offset: 0x14A8E, size: 0x8, addend: 0x0, symName: __ZN4core3ops8function6FnOnce9call_once17h4718c6feae0e07f1E, symObjAddr: 0x708, symBinAddr: 0x93F8, symSize: 0x24 }
  - { offset: 0x14AD2, size: 0x8, addend: 0x0, symName: __ZN4core3ops8function6FnOnce9call_once17h4729f48f85c2b23fE, symObjAddr: 0x72C, symBinAddr: 0x941C, symSize: 0x40 }
  - { offset: 0x14B16, size: 0x8, addend: 0x0, symName: __ZN4core3ops8function6FnOnce9call_once17h4f1b569999ec2bd0E, symObjAddr: 0x76C, symBinAddr: 0x945C, symSize: 0x28 }
  - { offset: 0x14B5A, size: 0x8, addend: 0x0, symName: __ZN4core3ops8function6FnOnce9call_once17h5b4497694a5a4536E, symObjAddr: 0x794, symBinAddr: 0x9484, symSize: 0x34 }
  - { offset: 0x14B9E, size: 0x8, addend: 0x0, symName: __ZN4core3ops8function6FnOnce9call_once17h5ddebee06e76b929E, symObjAddr: 0x7C8, symBinAddr: 0x94B8, symSize: 0x40 }
  - { offset: 0x14BE2, size: 0x8, addend: 0x0, symName: __ZN4core3ops8function6FnOnce9call_once17h5e391309694f5eaaE, symObjAddr: 0x808, symBinAddr: 0x94F8, symSize: 0x24 }
  - { offset: 0x14C26, size: 0x8, addend: 0x0, symName: __ZN4core3ops8function6FnOnce9call_once17h618740bda596cd59E, symObjAddr: 0x82C, symBinAddr: 0x951C, symSize: 0x40 }
  - { offset: 0x14C6A, size: 0x8, addend: 0x0, symName: __ZN4core3ops8function6FnOnce9call_once17h61c7b3788bb22a58E, symObjAddr: 0x86C, symBinAddr: 0x955C, symSize: 0x34 }
  - { offset: 0x14CAE, size: 0x8, addend: 0x0, symName: __ZN4core3ops8function6FnOnce9call_once17h631efc42624ebba8E, symObjAddr: 0x8A0, symBinAddr: 0x9590, symSize: 0x24 }
  - { offset: 0x14CF2, size: 0x8, addend: 0x0, symName: __ZN4core3ops8function6FnOnce9call_once17h63ae9b9ec24666f2E, symObjAddr: 0x8C4, symBinAddr: 0x95B4, symSize: 0x30 }
  - { offset: 0x14D36, size: 0x8, addend: 0x0, symName: __ZN4core3ops8function6FnOnce9call_once17h67d35db44a545e1aE, symObjAddr: 0x8F4, symBinAddr: 0x95E4, symSize: 0x34 }
  - { offset: 0x14D7A, size: 0x8, addend: 0x0, symName: __ZN4core3ops8function6FnOnce9call_once17h687962a4626343c8E, symObjAddr: 0x928, symBinAddr: 0x9618, symSize: 0x40 }
  - { offset: 0x14DBE, size: 0x8, addend: 0x0, symName: __ZN4core3ops8function6FnOnce9call_once17h6b46f9b12d7f26e4E, symObjAddr: 0x968, symBinAddr: 0x9658, symSize: 0x34 }
  - { offset: 0x14E02, size: 0x8, addend: 0x0, symName: __ZN4core3ops8function6FnOnce9call_once17h6f7b3b859897edfdE, symObjAddr: 0x99C, symBinAddr: 0x968C, symSize: 0x34 }
  - { offset: 0x14E46, size: 0x8, addend: 0x0, symName: __ZN4core3ops8function6FnOnce9call_once17h70135ce954814600E, symObjAddr: 0x9D0, symBinAddr: 0x96C0, symSize: 0x4C }
  - { offset: 0x14E8A, size: 0x8, addend: 0x0, symName: __ZN4core3ops8function6FnOnce9call_once17h70a1bb4ef7585cf0E, symObjAddr: 0xA1C, symBinAddr: 0x970C, symSize: 0x40 }
  - { offset: 0x14ECE, size: 0x8, addend: 0x0, symName: __ZN4core3ops8function6FnOnce9call_once17h7146cbf489f8aa32E, symObjAddr: 0xA5C, symBinAddr: 0x974C, symSize: 0x34 }
  - { offset: 0x14F12, size: 0x8, addend: 0x0, symName: __ZN4core3ops8function6FnOnce9call_once17h72321d0a33349ebcE, symObjAddr: 0xA90, symBinAddr: 0x9780, symSize: 0x40 }
  - { offset: 0x14F56, size: 0x8, addend: 0x0, symName: __ZN4core3ops8function6FnOnce9call_once17h72e3a67b208f2b0cE, symObjAddr: 0xAD0, symBinAddr: 0x97C0, symSize: 0x40 }
  - { offset: 0x14F9A, size: 0x8, addend: 0x0, symName: __ZN4core3ops8function6FnOnce9call_once17h741d9d5fcce6840fE, symObjAddr: 0xB10, symBinAddr: 0x9800, symSize: 0x24 }
  - { offset: 0x14FDE, size: 0x8, addend: 0x0, symName: __ZN4core3ops8function6FnOnce9call_once17h747f86e481db31ddE, symObjAddr: 0xB34, symBinAddr: 0x9824, symSize: 0x28 }
  - { offset: 0x15022, size: 0x8, addend: 0x0, symName: __ZN4core3ops8function6FnOnce9call_once17h7ef064fe26cc748eE, symObjAddr: 0xB5C, symBinAddr: 0x984C, symSize: 0x40 }
  - { offset: 0x15066, size: 0x8, addend: 0x0, symName: __ZN4core3ops8function6FnOnce9call_once17h7feb49884b12dd1dE, symObjAddr: 0xB9C, symBinAddr: 0x988C, symSize: 0x24 }
  - { offset: 0x150AA, size: 0x8, addend: 0x0, symName: __ZN4core3ops8function6FnOnce9call_once17h8090cd9dc780f035E, symObjAddr: 0xBC0, symBinAddr: 0x98B0, symSize: 0x40 }
  - { offset: 0x150EE, size: 0x8, addend: 0x0, symName: __ZN4core3ops8function6FnOnce9call_once17h85a0c4380adbc648E, symObjAddr: 0xC00, symBinAddr: 0x98F0, symSize: 0x24 }
  - { offset: 0x15132, size: 0x8, addend: 0x0, symName: __ZN4core3ops8function6FnOnce9call_once17h8689ad2c2f1e0ab4E, symObjAddr: 0xC24, symBinAddr: 0x9914, symSize: 0x34 }
  - { offset: 0x15176, size: 0x8, addend: 0x0, symName: __ZN4core3ops8function6FnOnce9call_once17h8acaff8cceaf7380E, symObjAddr: 0xC58, symBinAddr: 0x9948, symSize: 0x34 }
  - { offset: 0x151BA, size: 0x8, addend: 0x0, symName: __ZN4core3ops8function6FnOnce9call_once17h8b1da7c566481bfaE, symObjAddr: 0xC8C, symBinAddr: 0x997C, symSize: 0x40 }
  - { offset: 0x151FE, size: 0x8, addend: 0x0, symName: __ZN4core3ops8function6FnOnce9call_once17h8dc5f9d85b48ea45E, symObjAddr: 0xCCC, symBinAddr: 0x99BC, symSize: 0x24 }
  - { offset: 0x15242, size: 0x8, addend: 0x0, symName: __ZN4core3ops8function6FnOnce9call_once17h91be17dd048f37bfE, symObjAddr: 0xCF0, symBinAddr: 0x99E0, symSize: 0x1C }
  - { offset: 0x15286, size: 0x8, addend: 0x0, symName: __ZN4core3ops8function6FnOnce9call_once17h94caaad3651d2354E, symObjAddr: 0xD0C, symBinAddr: 0x99FC, symSize: 0x40 }
  - { offset: 0x152CA, size: 0x8, addend: 0x0, symName: __ZN4core3ops8function6FnOnce9call_once17h968db5fa2c2ea78cE, symObjAddr: 0xD4C, symBinAddr: 0x9A3C, symSize: 0x40 }
  - { offset: 0x1530E, size: 0x8, addend: 0x0, symName: __ZN4core3ops8function6FnOnce9call_once17ha2a0e294d677e514E, symObjAddr: 0xD8C, symBinAddr: 0x9A7C, symSize: 0x40 }
  - { offset: 0x15352, size: 0x8, addend: 0x0, symName: __ZN4core3ops8function6FnOnce9call_once17ha3fc246828615371E, symObjAddr: 0xDCC, symBinAddr: 0x9ABC, symSize: 0x40 }
  - { offset: 0x15396, size: 0x8, addend: 0x0, symName: __ZN4core3ops8function6FnOnce9call_once17ha716e942662d9095E, symObjAddr: 0xE0C, symBinAddr: 0x9AFC, symSize: 0x40 }
  - { offset: 0x153DA, size: 0x8, addend: 0x0, symName: __ZN4core3ops8function6FnOnce9call_once17ha8ae63558bbfc993E, symObjAddr: 0xE4C, symBinAddr: 0x9B3C, symSize: 0x24 }
  - { offset: 0x1541E, size: 0x8, addend: 0x0, symName: __ZN4core3ops8function6FnOnce9call_once17haa17b6a5fde76a15E, symObjAddr: 0xE70, symBinAddr: 0x9B60, symSize: 0x28 }
  - { offset: 0x15462, size: 0x8, addend: 0x0, symName: __ZN4core3ops8function6FnOnce9call_once17hac16fce18e1fc310E, symObjAddr: 0xE98, symBinAddr: 0x9B88, symSize: 0x48 }
  - { offset: 0x154A6, size: 0x8, addend: 0x0, symName: __ZN4core3ops8function6FnOnce9call_once17haece826e0a4636f7E, symObjAddr: 0xEE0, symBinAddr: 0x9BD0, symSize: 0x28 }
  - { offset: 0x154EA, size: 0x8, addend: 0x0, symName: __ZN4core3ops8function6FnOnce9call_once17hb0cc7f6490cba540E, symObjAddr: 0xF08, symBinAddr: 0x9BF8, symSize: 0x34 }
  - { offset: 0x1552E, size: 0x8, addend: 0x0, symName: __ZN4core3ops8function6FnOnce9call_once17hb1dbe38c7b5bc701E, symObjAddr: 0xF3C, symBinAddr: 0x9C2C, symSize: 0x40 }
  - { offset: 0x15572, size: 0x8, addend: 0x0, symName: __ZN4core3ops8function6FnOnce9call_once17hb59705164646526cE, symObjAddr: 0xF7C, symBinAddr: 0x9C6C, symSize: 0x24 }
  - { offset: 0x155B6, size: 0x8, addend: 0x0, symName: __ZN4core3ops8function6FnOnce9call_once17hb943cc53136004a8E, symObjAddr: 0xFA0, symBinAddr: 0x9C90, symSize: 0x24 }
  - { offset: 0x155FA, size: 0x8, addend: 0x0, symName: __ZN4core3ops8function6FnOnce9call_once17hbd4038c75a537972E, symObjAddr: 0xFC4, symBinAddr: 0x9CB4, symSize: 0x24 }
  - { offset: 0x1563E, size: 0x8, addend: 0x0, symName: __ZN4core3ops8function6FnOnce9call_once17hbe1d9555b7a02430E, symObjAddr: 0xFE8, symBinAddr: 0x9CD8, symSize: 0x34 }
  - { offset: 0x15682, size: 0x8, addend: 0x0, symName: __ZN4core3ops8function6FnOnce9call_once17hc01bcb2844ca1bb8E, symObjAddr: 0x101C, symBinAddr: 0x9D0C, symSize: 0x40 }
  - { offset: 0x156C6, size: 0x8, addend: 0x0, symName: __ZN4core3ops8function6FnOnce9call_once17hc636ff440eb705fdE, symObjAddr: 0x105C, symBinAddr: 0x9D4C, symSize: 0x24 }
  - { offset: 0x1570A, size: 0x8, addend: 0x0, symName: __ZN4core3ops8function6FnOnce9call_once17hcb0068ccbd53b87aE, symObjAddr: 0x1080, symBinAddr: 0x9D70, symSize: 0x34 }
  - { offset: 0x1574E, size: 0x8, addend: 0x0, symName: __ZN4core3ops8function6FnOnce9call_once17hcc592928f3e60c2aE, symObjAddr: 0x10B4, symBinAddr: 0x9DA4, symSize: 0x40 }
  - { offset: 0x15792, size: 0x8, addend: 0x0, symName: __ZN4core3ops8function6FnOnce9call_once17hcc73ad9980cfc70bE, symObjAddr: 0x10F4, symBinAddr: 0x9DE4, symSize: 0x24 }
  - { offset: 0x157D6, size: 0x8, addend: 0x0, symName: __ZN4core3ops8function6FnOnce9call_once17hd0a0ec7e70cc45f8E, symObjAddr: 0x1118, symBinAddr: 0x9E08, symSize: 0x40 }
  - { offset: 0x1581A, size: 0x8, addend: 0x0, symName: __ZN4core3ops8function6FnOnce9call_once17hd3fdc06700642e01E, symObjAddr: 0x1158, symBinAddr: 0x9E48, symSize: 0x24 }
  - { offset: 0x1585E, size: 0x8, addend: 0x0, symName: __ZN4core3ops8function6FnOnce9call_once17hd492436361382462E, symObjAddr: 0x117C, symBinAddr: 0x9E6C, symSize: 0x34 }
  - { offset: 0x158A2, size: 0x8, addend: 0x0, symName: __ZN4core3ops8function6FnOnce9call_once17hd5ea5b3b6831fc50E, symObjAddr: 0x11B0, symBinAddr: 0x9EA0, symSize: 0x24 }
  - { offset: 0x158E6, size: 0x8, addend: 0x0, symName: __ZN4core3ops8function6FnOnce9call_once17hd98ba5bfcdf9a5ebE, symObjAddr: 0x11D4, symBinAddr: 0x9EC4, symSize: 0x40 }
  - { offset: 0x1592A, size: 0x8, addend: 0x0, symName: __ZN4core3ops8function6FnOnce9call_once17hda144ea222576095E, symObjAddr: 0x1214, symBinAddr: 0x9F04, symSize: 0x40 }
  - { offset: 0x1596E, size: 0x8, addend: 0x0, symName: __ZN4core3ops8function6FnOnce9call_once17he3421a3437efd23fE, symObjAddr: 0x1254, symBinAddr: 0x9F44, symSize: 0x24 }
  - { offset: 0x159B2, size: 0x8, addend: 0x0, symName: __ZN4core3ops8function6FnOnce9call_once17he8b4a80780eff2feE, symObjAddr: 0x1278, symBinAddr: 0x9F68, symSize: 0x24 }
  - { offset: 0x159F6, size: 0x8, addend: 0x0, symName: __ZN4core3ops8function6FnOnce9call_once17hedd6053e0b6100e2E, symObjAddr: 0x129C, symBinAddr: 0x9F8C, symSize: 0x24 }
  - { offset: 0x15A3A, size: 0x8, addend: 0x0, symName: __ZN4core3ops8function6FnOnce9call_once17hf77005268e85a043E, symObjAddr: 0x12C0, symBinAddr: 0x9FB0, symSize: 0x40 }
  - { offset: 0x15A7E, size: 0x8, addend: 0x0, symName: __ZN4core3ops8function6FnOnce9call_once17hfdaa342db028e7c7E, symObjAddr: 0x1300, symBinAddr: 0x9FF0, symSize: 0x40 }
  - { offset: 0x173A3, size: 0x8, addend: 0x0, symName: '__ZN111_$LT$alloc..vec..in_place_drop..InPlaceDstDataSrcBufDrop$LT$Src$C$Dest$GT$$u20$as$u20$core..ops..drop..Drop$GT$4drop17hd9603b2fb3e1559bE', symObjAddr: 0x0, symBinAddr: 0x8D38, symSize: 0xB4 }
  - { offset: 0x17525, size: 0x8, addend: 0x0, symName: '__ZN89_$LT$alloc..vec..in_place_drop..InPlaceDrop$LT$T$GT$$u20$as$u20$core..ops..drop..Drop$GT$4drop17h48a27c8c165681f7E', symObjAddr: 0x25B8, symBinAddr: 0xB1F4, symSize: 0x70 }
  - { offset: 0x17606, size: 0x8, addend: 0x0, symName: '__ZN157_$LT$$LT$alloc..vec..into_iter..IntoIter$LT$T$C$A$GT$$u20$as$u20$core..ops..drop..Drop$GT$..drop..DropGuard$LT$T$C$A$GT$$u20$as$u20$core..ops..drop..Drop$GT$4drop17h2f3a0f2554502d98E', symObjAddr: 0xB4, symBinAddr: 0x8DEC, symSize: 0x6C }
  - { offset: 0x17749, size: 0x8, addend: 0x0, symName: '__ZN157_$LT$$LT$alloc..vec..into_iter..IntoIter$LT$T$C$A$GT$$u20$as$u20$core..ops..drop..Drop$GT$..drop..DropGuard$LT$T$C$A$GT$$u20$as$u20$core..ops..drop..Drop$GT$4drop17h5feff1e673dc847bE', symObjAddr: 0x120, symBinAddr: 0x8E58, symSize: 0x6C }
  - { offset: 0x1788C, size: 0x8, addend: 0x0, symName: '__ZN157_$LT$$LT$alloc..vec..into_iter..IntoIter$LT$T$C$A$GT$$u20$as$u20$core..ops..drop..Drop$GT$..drop..DropGuard$LT$T$C$A$GT$$u20$as$u20$core..ops..drop..Drop$GT$4drop17h955f832a4bfd7c93E', symObjAddr: 0x18C, symBinAddr: 0x8EC4, symSize: 0x6C }
  - { offset: 0x179CF, size: 0x8, addend: 0x0, symName: '__ZN157_$LT$$LT$alloc..vec..into_iter..IntoIter$LT$T$C$A$GT$$u20$as$u20$core..ops..drop..Drop$GT$..drop..DropGuard$LT$T$C$A$GT$$u20$as$u20$core..ops..drop..Drop$GT$4drop17h9e8d53e0cdf2b508E', symObjAddr: 0x1F8, symBinAddr: 0x8F30, symSize: 0x6C }
  - { offset: 0x17B12, size: 0x8, addend: 0x0, symName: '__ZN157_$LT$$LT$alloc..vec..into_iter..IntoIter$LT$T$C$A$GT$$u20$as$u20$core..ops..drop..Drop$GT$..drop..DropGuard$LT$T$C$A$GT$$u20$as$u20$core..ops..drop..Drop$GT$4drop17hd91fdeb94704cd04E', symObjAddr: 0x264, symBinAddr: 0x8F9C, symSize: 0x6C }
  - { offset: 0x17D1A, size: 0x8, addend: 0x0, symName: '__ZN86_$LT$alloc..vec..into_iter..IntoIter$LT$T$C$A$GT$$u20$as$u20$core..ops..drop..Drop$GT$4drop17h101e6ea8817eef7fE', symObjAddr: 0x2360, symBinAddr: 0xAF9C, symSize: 0x78 }
  - { offset: 0x17D6C, size: 0x8, addend: 0x0, symName: '__ZN86_$LT$alloc..vec..into_iter..IntoIter$LT$T$C$A$GT$$u20$as$u20$core..ops..drop..Drop$GT$4drop17h462a84862728a501E', symObjAddr: 0x23D8, symBinAddr: 0xB014, symSize: 0x78 }
  - { offset: 0x17DBE, size: 0x8, addend: 0x0, symName: '__ZN86_$LT$alloc..vec..into_iter..IntoIter$LT$T$C$A$GT$$u20$as$u20$core..ops..drop..Drop$GT$4drop17h7a9dd82d1588c912E', symObjAddr: 0x2450, symBinAddr: 0xB08C, symSize: 0x78 }
  - { offset: 0x17E10, size: 0x8, addend: 0x0, symName: '__ZN86_$LT$alloc..vec..into_iter..IntoIter$LT$T$C$A$GT$$u20$as$u20$core..ops..drop..Drop$GT$4drop17hd56f1f6496ba822dE', symObjAddr: 0x24C8, symBinAddr: 0xB104, symSize: 0x78 }
  - { offset: 0x17E62, size: 0x8, addend: 0x0, symName: '__ZN86_$LT$alloc..vec..into_iter..IntoIter$LT$T$C$A$GT$$u20$as$u20$core..ops..drop..Drop$GT$4drop17he3c54def0c39cc5aE', symObjAddr: 0x2540, symBinAddr: 0xB17C, symSize: 0x78 }
  - { offset: 0x181D1, size: 0x8, addend: 0x0, symName: '__ZN70_$LT$alloc..vec..Vec$LT$T$C$A$GT$$u20$as$u20$core..ops..drop..Drop$GT$4drop17hbf1e56fcaac2c6adE', symObjAddr: 0x20FC, symBinAddr: 0xAD38, symSize: 0x24 }
  - { offset: 0x18281, size: 0x8, addend: 0x0, symName: '__ZN70_$LT$alloc..vec..Vec$LT$T$C$A$GT$$u20$as$u20$core..ops..drop..Drop$GT$4drop17hdbee95110272570bE', symObjAddr: 0x2120, symBinAddr: 0xAD5C, symSize: 0x38 }
  - { offset: 0x188CB, size: 0x8, addend: 0x0, symName: '__ZN77_$LT$alloc..raw_vec..RawVec$LT$T$C$A$GT$$u20$as$u20$core..ops..drop..Drop$GT$4drop17h06497637c54146a9E', symObjAddr: 0x2300, symBinAddr: 0xAF3C, symSize: 0x30 }
  - { offset: 0x18907, size: 0x8, addend: 0x0, symName: '__ZN77_$LT$alloc..raw_vec..RawVec$LT$T$C$A$GT$$u20$as$u20$core..ops..drop..Drop$GT$4drop17h654eae5d192dded6E', symObjAddr: 0x2330, symBinAddr: 0xAF6C, symSize: 0x30 }
  - { offset: 0x18F41, size: 0x8, addend: 0x0, symName: '__ZN72_$LT$pyo3..instance..Bound$LT$T$GT$$u20$as$u20$core..ops..drop..Drop$GT$4drop17hba4039878a720325E', symObjAddr: 0x2158, symBinAddr: 0xAD94, symSize: 0x1A8 }
  - { offset: 0x1B83D, size: 0x8, addend: 0x0, symName: __ZN10serde_core7private9size_hint11from_bounds17h11920aeacf450ad0E, symObjAddr: 0x0, symBinAddr: 0xB264, symSize: 0x34 }
  - { offset: 0x1B920, size: 0x8, addend: 0x0, symName: __ZN10serde_core7private9size_hint11from_bounds17h11920aeacf450ad0E, symObjAddr: 0x0, symBinAddr: 0xB264, symSize: 0x34 }
  - { offset: 0x1B955, size: 0x8, addend: 0x0, symName: __ZN10serde_core7private9size_hint11from_bounds17h5cbe34bd5e0a6610E, symObjAddr: 0x34, symBinAddr: 0xB298, symSize: 0x34 }
  - { offset: 0x1B98A, size: 0x8, addend: 0x0, symName: __ZN10serde_core7private9size_hint11from_bounds17h89127824a691a741E, symObjAddr: 0x68, symBinAddr: 0xB2CC, symSize: 0x34 }
  - { offset: 0x1B9BF, size: 0x8, addend: 0x0, symName: __ZN10serde_core7private9size_hint8cautious17h0d81fac0097610a5E, symObjAddr: 0x9C, symBinAddr: 0xB300, symSize: 0x84 }
  - { offset: 0x1B9F4, size: 0x8, addend: 0x0, symName: __ZN10serde_core7private9size_hint8cautious17h0e2f3438911e531bE, symObjAddr: 0x120, symBinAddr: 0xB384, symSize: 0x84 }
  - { offset: 0x1BA29, size: 0x8, addend: 0x0, symName: __ZN10serde_core7private9size_hint8cautious17h5dc69e0c54123430E, symObjAddr: 0x1A4, symBinAddr: 0xB408, symSize: 0x84 }
  - { offset: 0x1BA5E, size: 0x8, addend: 0x0, symName: __ZN10serde_core7private9size_hint8cautious17h78b67a0127abd36eE, symObjAddr: 0x228, symBinAddr: 0xB48C, symSize: 0x84 }
  - { offset: 0x1BA93, size: 0x8, addend: 0x0, symName: __ZN10serde_core7private9size_hint8cautious17hb97716889e7979c5E, symObjAddr: 0x2AC, symBinAddr: 0xB510, symSize: 0x84 }
  - { offset: 0x1BAC8, size: 0x8, addend: 0x0, symName: __ZN10serde_core7private9size_hint8cautious17hbbe571500e7cc726E, symObjAddr: 0x330, symBinAddr: 0xB594, symSize: 0x84 }
  - { offset: 0x1BAFD, size: 0x8, addend: 0x0, symName: __ZN10serde_core7private9size_hint8cautious17hcc4686b8c5f1724fE, symObjAddr: 0x3B4, symBinAddr: 0xB618, symSize: 0x84 }
  - { offset: 0x1BB32, size: 0x8, addend: 0x0, symName: __ZN10serde_core7private9size_hint8cautious17heb464cce76742f9cE, symObjAddr: 0x438, symBinAddr: 0xB69C, symSize: 0x84 }
  - { offset: 0x1D702, size: 0x8, addend: 0x0, symName: '__ZN4pyo35types10boolobject65_$LT$impl$u20$pyo3..conversion..IntoPyObject$u20$for$u20$bool$GT$13into_pyobject17hb47431b7d8992de5E', symObjAddr: 0x0, symBinAddr: 0xB720, symSize: 0x20 }
  - { offset: 0x1E93A, size: 0x8, addend: 0x0, symName: '__ZN4pyo35types10boolobject65_$LT$impl$u20$pyo3..conversion..IntoPyObject$u20$for$u20$bool$GT$13into_pyobject17hb47431b7d8992de5E', symObjAddr: 0x0, symBinAddr: 0xB720, symSize: 0x20 }
  - { offset: 0x1EF4F, size: 0x8, addend: 0x0, symName: __ZN4pyo35types10boolobject6PyBool3new17h6688deb491e557c0E, symObjAddr: 0x20, symBinAddr: 0xB740, symSize: 0x48 }
  - { offset: 0x1EFA8, size: 0x8, addend: 0x0, symName: __ZN4pyo35impl_10trampoline10trampoline17h2379240b8f4d4eedE, symObjAddr: 0x0, symBinAddr: 0xB788, symSize: 0x158 }
  - { offset: 0x20665, size: 0x8, addend: 0x0, symName: __ZN4pyo35impl_10trampoline10trampoline17h2379240b8f4d4eedE, symObjAddr: 0x0, symBinAddr: 0xB788, symSize: 0x158 }
  - { offset: 0x2070E, size: 0x8, addend: 0x0, symName: __ZN4pyo35impl_10trampoline10trampoline17hb587a4087970fe88E, symObjAddr: 0x158, symBinAddr: 0xB8E0, symSize: 0x158 }
  - { offset: 0x207B7, size: 0x8, addend: 0x0, symName: __ZN4pyo35impl_10trampoline10trampoline17hc0a978d03b992f9cE, symObjAddr: 0x2B0, symBinAddr: 0xBA38, symSize: 0x160 }
  - { offset: 0x20866, size: 0x8, addend: 0x0, symName: '__ZN4pyo35impl_10trampoline10trampoline28_$u7b$$u7b$closure$u7d$$u7d$17h2bcc02de42c7aae6E', symObjAddr: 0x410, symBinAddr: 0xBB98, symSize: 0x2C }
  - { offset: 0x208B7, size: 0x8, addend: 0x0, symName: '__ZN4pyo35impl_10trampoline10trampoline28_$u7b$$u7b$closure$u7d$$u7d$17h371819b492ebed9eE', symObjAddr: 0x43C, symBinAddr: 0xBBC4, symSize: 0x40 }
  - { offset: 0x20909, size: 0x8, addend: 0x0, symName: '__ZN4pyo35impl_10trampoline10trampoline28_$u7b$$u7b$closure$u7d$$u7d$17h7e07433093920aefE', symObjAddr: 0x47C, symBinAddr: 0xBC04, symSize: 0x2C }
  - { offset: 0x20960, size: 0x8, addend: 0x0, symName: '__ZN4pyo35impl_10trampoline11module_exec28_$u7b$$u7b$closure$u7d$$u7d$17hd5a4ff507a4eb6aaE', symObjAddr: 0x4A8, symBinAddr: 0xBC30, symSize: 0x174 }
  - { offset: 0x20A6E, size: 0x8, addend: 0x0, symName: __ZN4pyo35impl_10trampoline32fastcall_cfunction_with_keywords17h2745296af75986b9E, symObjAddr: 0x61C, symBinAddr: 0xBDA4, symSize: 0x50 }
  - { offset: 0x20ACD, size: 0x8, addend: 0x0, symName: __ZN4pyo35impl_10trampoline32fastcall_cfunction_with_keywords17h2a6dc6016808244cE, symObjAddr: 0x66C, symBinAddr: 0xBDF4, symSize: 0x50 }
  - { offset: 0x20B2C, size: 0x8, addend: 0x0, symName: __ZN4pyo35impl_10trampoline32fastcall_cfunction_with_keywords17h2e8d1a15fba46640E, symObjAddr: 0x6BC, symBinAddr: 0xBE44, symSize: 0x50 }
  - { offset: 0x20B8B, size: 0x8, addend: 0x0, symName: __ZN4pyo35impl_10trampoline32fastcall_cfunction_with_keywords17h5722d05b1061b2a5E, symObjAddr: 0x70C, symBinAddr: 0xBE94, symSize: 0x50 }
  - { offset: 0x20BEA, size: 0x8, addend: 0x0, symName: __ZN4pyo35impl_10trampoline32fastcall_cfunction_with_keywords17h8c6a3689eb2cf2e6E, symObjAddr: 0x75C, symBinAddr: 0xBEE4, symSize: 0x50 }
  - { offset: 0x20C49, size: 0x8, addend: 0x0, symName: __ZN4pyo35impl_10trampoline32fastcall_cfunction_with_keywords17hf94026d64056688cE, symObjAddr: 0x7AC, symBinAddr: 0xBF34, symSize: 0x50 }
  - { offset: 0x20CA8, size: 0x8, addend: 0x0, symName: __ZN4pyo35impl_10trampoline6noargs17h406acb0fa6ad1dd3E, symObjAddr: 0x7FC, symBinAddr: 0xBF84, symSize: 0x40 }
  - { offset: 0x218A1, size: 0x8, addend: 0x0, symName: '__ZN83_$LT$serde_core..de..ignored_any..IgnoredAny$u20$as$u20$serde_core..de..Visitor$GT$10visit_unit17hc3ef4b0d8689deeeE', symObjAddr: 0x0, symBinAddr: 0xBFC4, symSize: 0x10 }
  - { offset: 0x21B27, size: 0x8, addend: 0x0, symName: '__ZN83_$LT$serde_core..de..ignored_any..IgnoredAny$u20$as$u20$serde_core..de..Visitor$GT$10visit_unit17hc3ef4b0d8689deeeE', symObjAddr: 0x0, symBinAddr: 0xBFC4, symSize: 0x10 }
  - { offset: 0x21B6D, size: 0x8, addend: 0x0, symName: '__ZN87_$LT$serde_core..de..ignored_any..IgnoredAny$u20$as$u20$serde_core..de..Deserialize$GT$11deserialize17h62b7aff16c9bdc19E', symObjAddr: 0x10, symBinAddr: 0xBFD4, symSize: 0x14 }
  - { offset: 0x21BA3, size: 0x8, addend: 0x0, symName: '__ZN87_$LT$serde_core..de..ignored_any..IgnoredAny$u20$as$u20$serde_core..de..Deserialize$GT$11deserialize17hdc2c2aa494263a80E', symObjAddr: 0x24, symBinAddr: 0xBFE8, symSize: 0x14 }
  - { offset: 0x21BD9, size: 0x8, addend: 0x0, symName: '__ZN87_$LT$serde_core..de..ignored_any..IgnoredAny$u20$as$u20$serde_core..de..Deserialize$GT$11deserialize17hff8ae30881572e9fE', symObjAddr: 0x38, symBinAddr: 0xBFFC, symSize: 0x24 }
  - { offset: 0x22D7D, size: 0x8, addend: 0x0, symName: '__ZN4core7convert3num66_$LT$impl$u20$core..convert..TryFrom$LT$u64$GT$$u20$for$u20$u8$GT$8try_from17hb1917ebb06dad1b2E', symObjAddr: 0x0, symBinAddr: 0xC020, symSize: 0x60 }
  - { offset: 0x22D9E, size: 0x8, addend: 0x0, symName: '__ZN4core7convert3num66_$LT$impl$u20$core..convert..TryFrom$LT$u64$GT$$u20$for$u20$u8$GT$8try_from17hb1917ebb06dad1b2E', symObjAddr: 0x0, symBinAddr: 0xC020, symSize: 0x60 }
  - { offset: 0x22DD2, size: 0x8, addend: 0x0, symName: '__ZN4core7convert3num67_$LT$impl$u20$core..convert..TryFrom$LT$i128$GT$$u20$for$u20$i8$GT$8try_from17hff5e15d24dbdf2d3E', symObjAddr: 0x60, symBinAddr: 0xC080, symSize: 0xD4 }
  - { offset: 0x22E43, size: 0x8, addend: 0x0, symName: '__ZN4core7convert3num67_$LT$impl$u20$core..convert..TryFrom$LT$u128$GT$$u20$for$u20$u8$GT$8try_from17hbc961066fbd8b2d0E', symObjAddr: 0x134, symBinAddr: 0xC154, symSize: 0x7C }
  - { offset: 0x22E77, size: 0x8, addend: 0x0, symName: '__ZN4core7convert3num68_$LT$impl$u20$core..convert..TryFrom$LT$i128$GT$$u20$for$u20$i16$GT$8try_from17h5c316443a55a4949E', symObjAddr: 0x1B0, symBinAddr: 0xC1D0, symSize: 0xCC }
  - { offset: 0x22EE8, size: 0x8, addend: 0x0, symName: '__ZN4core7convert3num68_$LT$impl$u20$core..convert..TryFrom$LT$i128$GT$$u20$for$u20$i32$GT$8try_from17h30da62f1aa8d9395E', symObjAddr: 0x27C, symBinAddr: 0xC29C, symSize: 0xD0 }
  - { offset: 0x22F59, size: 0x8, addend: 0x0, symName: '__ZN4core7convert3num68_$LT$impl$u20$core..convert..TryFrom$LT$i128$GT$$u20$for$u20$i64$GT$8try_from17h341aa0eddd38a46cE', symObjAddr: 0x34C, symBinAddr: 0xC36C, symSize: 0xCC }
  - { offset: 0x22FCA, size: 0x8, addend: 0x0, symName: '__ZN4core7convert3num68_$LT$impl$u20$core..convert..TryFrom$LT$u128$GT$$u20$for$u20$u16$GT$8try_from17hf01711f114f4a9e5E', symObjAddr: 0x418, symBinAddr: 0xC438, symSize: 0x74 }
  - { offset: 0x22FFE, size: 0x8, addend: 0x0, symName: '__ZN4core7convert3num68_$LT$impl$u20$core..convert..TryFrom$LT$u128$GT$$u20$for$u20$u32$GT$8try_from17hc224b6eafe194d54E', symObjAddr: 0x48C, symBinAddr: 0xC4AC, symSize: 0x78 }
  - { offset: 0x23032, size: 0x8, addend: 0x0, symName: '__ZN4core7convert3num68_$LT$impl$u20$core..convert..TryFrom$LT$u128$GT$$u20$for$u20$u64$GT$8try_from17hc8fd1dc813713feaE', symObjAddr: 0x504, symBinAddr: 0xC524, symSize: 0x74 }
  - { offset: 0x234F6, size: 0x8, addend: 0x0, symName: '__ZN78_$LT$pyo3..exceptions..PyKeyError$u20$as$u20$pyo3..type_object..PyTypeInfo$GT$15type_object_raw17hcbe319eb48683c62E', symObjAddr: 0x0, symBinAddr: 0xC598, symSize: 0x24 }
  - { offset: 0x2462E, size: 0x8, addend: 0x0, symName: '__ZN78_$LT$pyo3..exceptions..PyKeyError$u20$as$u20$pyo3..type_object..PyTypeInfo$GT$15type_object_raw17hcbe319eb48683c62E', symObjAddr: 0x0, symBinAddr: 0xC598, symSize: 0x24 }
  - { offset: 0x24B81, size: 0x8, addend: 0x0, symName: __ZN10serde_core2de10EnumAccess7variant17h482eb793b8d0f809E, symObjAddr: 0x0, symBinAddr: 0xC5BC, symSize: 0x14 }
  - { offset: 0x24BCF, size: 0x8, addend: 0x0, symName: '__ZN175_$LT$serde_json..value..de..$LT$impl$u20$serde_core..de..Deserialize$u20$for$u20$serde_json..value..Value$GT$..deserialize..ValueVisitor$u20$as$u20$serde_core..de..Visitor$GT$10visit_bool17hf4008602d7399cf4E', symObjAddr: 0x2B00, symBinAddr: 0xF0BC, symSize: 0x2C }
  - { offset: 0x24C1D, size: 0x8, addend: 0x0, symName: '__ZN175_$LT$serde_json..value..de..$LT$impl$u20$serde_core..de..Deserialize$u20$for$u20$serde_json..value..Value$GT$..deserialize..ValueVisitor$u20$as$u20$serde_core..de..Visitor$GT$10visit_i12817h610b1ae0a3878cc1E', symObjAddr: 0x2B2C, symBinAddr: 0xF0E8, symSize: 0x50 }
  - { offset: 0x24C88, size: 0x8, addend: 0x0, symName: '__ZN175_$LT$serde_json..value..de..$LT$impl$u20$serde_core..de..Deserialize$u20$for$u20$serde_json..value..Value$GT$..deserialize..ValueVisitor$u20$as$u20$serde_core..de..Visitor$GT$10visit_none17hf38ab9f5baaed897E', symObjAddr: 0x2B7C, symBinAddr: 0xF138, symSize: 0x20 }
  - { offset: 0x24CC8, size: 0x8, addend: 0x0, symName: '__ZN175_$LT$serde_json..value..de..$LT$impl$u20$serde_core..de..Deserialize$u20$for$u20$serde_json..value..Value$GT$..deserialize..ValueVisitor$u20$as$u20$serde_core..de..Visitor$GT$10visit_some17he2d6395c7b0da6e1E', symObjAddr: 0x2B9C, symBinAddr: 0xF158, symSize: 0x24 }
  - { offset: 0x24D16, size: 0x8, addend: 0x0, symName: '__ZN175_$LT$serde_json..value..de..$LT$impl$u20$serde_core..de..Deserialize$u20$for$u20$serde_json..value..Value$GT$..deserialize..ValueVisitor$u20$as$u20$serde_core..de..Visitor$GT$10visit_u12817hb94f2f9fde147a69E', symObjAddr: 0x2BC0, symBinAddr: 0xF17C, symSize: 0x50 }
  - { offset: 0x24D81, size: 0x8, addend: 0x0, symName: '__ZN175_$LT$serde_json..value..de..$LT$impl$u20$serde_core..de..Deserialize$u20$for$u20$serde_json..value..Value$GT$..deserialize..ValueVisitor$u20$as$u20$serde_core..de..Visitor$GT$10visit_unit17h00f0a66a4cad6dd6E', symObjAddr: 0x2C10, symBinAddr: 0xF1CC, symSize: 0x20 }
  - { offset: 0x24DC1, size: 0x8, addend: 0x0, symName: '__ZN175_$LT$serde_json..value..de..$LT$impl$u20$serde_core..de..Deserialize$u20$for$u20$serde_json..value..Value$GT$..deserialize..ValueVisitor$u20$as$u20$serde_core..de..Visitor$GT$12visit_string17h089a49c3310e1005E', symObjAddr: 0x2C30, symBinAddr: 0xF1EC, symSize: 0x38 }
  - { offset: 0x24E0F, size: 0x8, addend: 0x0, symName: '__ZN175_$LT$serde_json..value..de..$LT$impl$u20$serde_core..de..Deserialize$u20$for$u20$serde_json..value..Value$GT$..deserialize..ValueVisitor$u20$as$u20$serde_core..de..Visitor$GT$9visit_f6417hdb1fdd53a7b726aaE', symObjAddr: 0x2C68, symBinAddr: 0xF224, symSize: 0x54 }
  - { offset: 0x24E5D, size: 0x8, addend: 0x0, symName: '__ZN175_$LT$serde_json..value..de..$LT$impl$u20$serde_core..de..Deserialize$u20$for$u20$serde_json..value..Value$GT$..deserialize..ValueVisitor$u20$as$u20$serde_core..de..Visitor$GT$9visit_i6417hfb7754a28a864929E', symObjAddr: 0x2CBC, symBinAddr: 0xF278, symSize: 0x58 }
  - { offset: 0x24EAB, size: 0x8, addend: 0x0, symName: '__ZN175_$LT$serde_json..value..de..$LT$impl$u20$serde_core..de..Deserialize$u20$for$u20$serde_json..value..Value$GT$..deserialize..ValueVisitor$u20$as$u20$serde_core..de..Visitor$GT$9visit_map17h2d6e99fc182a86d6E', symObjAddr: 0x2D14, symBinAddr: 0xF2D0, symSize: 0x3B4 }
  - { offset: 0x24FA5, size: 0x8, addend: 0x0, symName: '__ZN175_$LT$serde_json..value..de..$LT$impl$u20$serde_core..de..Deserialize$u20$for$u20$serde_json..value..Value$GT$..deserialize..ValueVisitor$u20$as$u20$serde_core..de..Visitor$GT$9visit_map17h472ae3e4f826fe62E', symObjAddr: 0x30C8, symBinAddr: 0xF684, symSize: 0x3D4 }
  - { offset: 0x250A0, size: 0x8, addend: 0x0, symName: '__ZN175_$LT$serde_json..value..de..$LT$impl$u20$serde_core..de..Deserialize$u20$for$u20$serde_json..value..Value$GT$..deserialize..ValueVisitor$u20$as$u20$serde_core..de..Visitor$GT$9visit_map17he4e4ef08fa50f049E', symObjAddr: 0x349C, symBinAddr: 0xFA58, symSize: 0x3B4 }
  - { offset: 0x2519A, size: 0x8, addend: 0x0, symName: '__ZN175_$LT$serde_json..value..de..$LT$impl$u20$serde_core..de..Deserialize$u20$for$u20$serde_json..value..Value$GT$..deserialize..ValueVisitor$u20$as$u20$serde_core..de..Visitor$GT$9visit_map17hec64f3b5272496cdE', symObjAddr: 0x3850, symBinAddr: 0xFE0C, symSize: 0x3D4 }
  - { offset: 0x25295, size: 0x8, addend: 0x0, symName: '__ZN175_$LT$serde_json..value..de..$LT$impl$u20$serde_core..de..Deserialize$u20$for$u20$serde_json..value..Value$GT$..deserialize..ValueVisitor$u20$as$u20$serde_core..de..Visitor$GT$9visit_seq17h029385f0e249818eE', symObjAddr: 0x3C24, symBinAddr: 0x101E0, symSize: 0x168 }
  - { offset: 0x2532C, size: 0x8, addend: 0x0, symName: '__ZN175_$LT$serde_json..value..de..$LT$impl$u20$serde_core..de..Deserialize$u20$for$u20$serde_json..value..Value$GT$..deserialize..ValueVisitor$u20$as$u20$serde_core..de..Visitor$GT$9visit_seq17h3309dce0a0d3c717E', symObjAddr: 0x3D8C, symBinAddr: 0x10348, symSize: 0x158 }
  - { offset: 0x253C4, size: 0x8, addend: 0x0, symName: '__ZN175_$LT$serde_json..value..de..$LT$impl$u20$serde_core..de..Deserialize$u20$for$u20$serde_json..value..Value$GT$..deserialize..ValueVisitor$u20$as$u20$serde_core..de..Visitor$GT$9visit_seq17h59f23275db977384E', symObjAddr: 0x3EE4, symBinAddr: 0x104A0, symSize: 0x14C }
  - { offset: 0x2545B, size: 0x8, addend: 0x0, symName: '__ZN175_$LT$serde_json..value..de..$LT$impl$u20$serde_core..de..Deserialize$u20$for$u20$serde_json..value..Value$GT$..deserialize..ValueVisitor$u20$as$u20$serde_core..de..Visitor$GT$9visit_seq17he7c12509f153f3f6E', symObjAddr: 0x4030, symBinAddr: 0x105EC, symSize: 0x14C }
  - { offset: 0x254F2, size: 0x8, addend: 0x0, symName: '__ZN175_$LT$serde_json..value..de..$LT$impl$u20$serde_core..de..Deserialize$u20$for$u20$serde_json..value..Value$GT$..deserialize..ValueVisitor$u20$as$u20$serde_core..de..Visitor$GT$9visit_str17h2cbf99b34a6c9742E', symObjAddr: 0x417C, symBinAddr: 0x10738, symSize: 0x40 }
  - { offset: 0x25540, size: 0x8, addend: 0x0, symName: '__ZN175_$LT$serde_json..value..de..$LT$impl$u20$serde_core..de..Deserialize$u20$for$u20$serde_json..value..Value$GT$..deserialize..ValueVisitor$u20$as$u20$serde_core..de..Visitor$GT$9visit_u6417h6ed1411ced9cd6bfE', symObjAddr: 0x41BC, symBinAddr: 0x10778, symSize: 0x58 }
  - { offset: 0x25599, size: 0x8, addend: 0x0, symName: __ZN10serde_json5value2de11visit_array17h29b4a11989b238d6E, symObjAddr: 0x1318, symBinAddr: 0xD8D4, symSize: 0x234 }
  - { offset: 0x25678, size: 0x8, addend: 0x0, symName: __ZN10serde_json5value2de11visit_array17h3e520103998d4477E, symObjAddr: 0x154C, symBinAddr: 0xDB08, symSize: 0x238 }
  - { offset: 0x25757, size: 0x8, addend: 0x0, symName: __ZN10serde_json5value2de11visit_array17h454529b6e2b3c467E, symObjAddr: 0x1784, symBinAddr: 0xDD40, symSize: 0x220 }
  - { offset: 0x25835, size: 0x8, addend: 0x0, symName: __ZN10serde_json5value2de11visit_array17h7f0edb3a95fdba85E, symObjAddr: 0x19A4, symBinAddr: 0xDF60, symSize: 0x224 }
  - { offset: 0x25913, size: 0x8, addend: 0x0, symName: __ZN10serde_json5value2de11visit_array17h9143f47d11588865E, symObjAddr: 0x1BC8, symBinAddr: 0xE184, symSize: 0x238 }
  - { offset: 0x259F2, size: 0x8, addend: 0x0, symName: __ZN10serde_json5value2de11visit_array17habeba479a1223223E, symObjAddr: 0x1E00, symBinAddr: 0xE3BC, symSize: 0x224 }
  - { offset: 0x25AD0, size: 0x8, addend: 0x0, symName: __ZN10serde_json5value2de11visit_array17hccb5c0fd2098d59cE, symObjAddr: 0x2024, symBinAddr: 0xE5E0, symSize: 0x220 }
  - { offset: 0x25BAE, size: 0x8, addend: 0x0, symName: __ZN10serde_json5value2de11visit_array17hd533daada81ac14bE, symObjAddr: 0x2244, symBinAddr: 0xE800, symSize: 0x20C }
  - { offset: 0x25C8C, size: 0x8, addend: 0x0, symName: __ZN10serde_json5value2de11visit_array17he370ce269cebeec7E, symObjAddr: 0x2450, symBinAddr: 0xEA0C, symSize: 0x250 }
  - { offset: 0x25D6C, size: 0x8, addend: 0x0, symName: __ZN10serde_json5value2de11visit_array17he54aa4ee480ac753E, symObjAddr: 0x26A0, symBinAddr: 0xEC5C, symSize: 0x228 }
  - { offset: 0x25E4B, size: 0x8, addend: 0x0, symName: __ZN10serde_json5value2de11visit_array17hf0a0cf4b2af2c0daE, symObjAddr: 0x28C8, symBinAddr: 0xEE84, symSize: 0x238 }
  - { offset: 0x25F2F, size: 0x8, addend: 0x0, symName: '__ZN80_$LT$serde_json..value..de..KeyClassifier$u20$as$u20$serde_core..de..Visitor$GT$12visit_string17h964d4e52e4a93162E', symObjAddr: 0x49D0, symBinAddr: 0x10F8C, symSize: 0x88 }
  - { offset: 0x25F82, size: 0x8, addend: 0x0, symName: '__ZN80_$LT$serde_json..value..de..KeyClassifier$u20$as$u20$serde_core..de..Visitor$GT$9visit_str17hce963cd6c377f77dE', symObjAddr: 0x4A58, symBinAddr: 0x11014, symSize: 0x54 }
  - { offset: 0x25FDA, size: 0x8, addend: 0x0, symName: '__ZN84_$LT$serde_json..value..de..MapDeserializer$u20$as$u20$serde_core..de..MapAccess$GT$13next_key_seed17h032581772f86f421E', symObjAddr: 0x4AAC, symBinAddr: 0x11068, symSize: 0x1FC }
  - { offset: 0x2605F, size: 0x8, addend: 0x0, symName: '__ZN84_$LT$serde_json..value..de..MapDeserializer$u20$as$u20$serde_core..de..MapAccess$GT$13next_key_seed17h0c83aff69d0a85eeE', symObjAddr: 0x4CA8, symBinAddr: 0x11264, symSize: 0x1F0 }
  - { offset: 0x260E4, size: 0x8, addend: 0x0, symName: '__ZN84_$LT$serde_json..value..de..MapDeserializer$u20$as$u20$serde_core..de..MapAccess$GT$13next_key_seed17h0f38a07e4216814eE', symObjAddr: 0x4E98, symBinAddr: 0x11454, symSize: 0x1F0 }
  - { offset: 0x26169, size: 0x8, addend: 0x0, symName: '__ZN84_$LT$serde_json..value..de..MapDeserializer$u20$as$u20$serde_core..de..MapAccess$GT$13next_key_seed17h1f62040f4fe4e9faE', symObjAddr: 0x5088, symBinAddr: 0x11644, symSize: 0x1F0 }
  - { offset: 0x261EE, size: 0x8, addend: 0x0, symName: '__ZN84_$LT$serde_json..value..de..MapDeserializer$u20$as$u20$serde_core..de..MapAccess$GT$13next_key_seed17h3a64e488291c2eecE', symObjAddr: 0x5278, symBinAddr: 0x11834, symSize: 0x1F0 }
  - { offset: 0x26273, size: 0x8, addend: 0x0, symName: '__ZN84_$LT$serde_json..value..de..MapDeserializer$u20$as$u20$serde_core..de..MapAccess$GT$13next_key_seed17h8d157ebfd3d8b2a3E', symObjAddr: 0x5468, symBinAddr: 0x11A24, symSize: 0x1F0 }
  - { offset: 0x262F8, size: 0x8, addend: 0x0, symName: '__ZN84_$LT$serde_json..value..de..MapDeserializer$u20$as$u20$serde_core..de..MapAccess$GT$13next_key_seed17hcbecbd35abb8fde6E', symObjAddr: 0x5658, symBinAddr: 0x11C14, symSize: 0x200 }
  - { offset: 0x2637D, size: 0x8, addend: 0x0, symName: '__ZN84_$LT$serde_json..value..de..MapDeserializer$u20$as$u20$serde_core..de..MapAccess$GT$13next_key_seed17hcc7517d8fbc0ec76E', symObjAddr: 0x5858, symBinAddr: 0x11E14, symSize: 0x1F0 }
  - { offset: 0x26402, size: 0x8, addend: 0x0, symName: '__ZN84_$LT$serde_json..value..de..MapDeserializer$u20$as$u20$serde_core..de..MapAccess$GT$13next_key_seed17hcfc3229b8a94d64eE', symObjAddr: 0x5A48, symBinAddr: 0x12004, symSize: 0x200 }
  - { offset: 0x26487, size: 0x8, addend: 0x0, symName: '__ZN84_$LT$serde_json..value..de..MapDeserializer$u20$as$u20$serde_core..de..MapAccess$GT$13next_key_seed17hd4f5ced2686330dcE', symObjAddr: 0x5C48, symBinAddr: 0x12204, symSize: 0x218 }
  - { offset: 0x2650C, size: 0x8, addend: 0x0, symName: '__ZN84_$LT$serde_json..value..de..MapDeserializer$u20$as$u20$serde_core..de..MapAccess$GT$15next_value_seed17h02ed24c2ece194a4E', symObjAddr: 0x5E60, symBinAddr: 0x1241C, symSize: 0xE4 }
  - { offset: 0x26568, size: 0x8, addend: 0x0, symName: '__ZN84_$LT$serde_json..value..de..MapDeserializer$u20$as$u20$serde_core..de..MapAccess$GT$15next_value_seed17h066ae8dcd0341c2bE', symObjAddr: 0x5F44, symBinAddr: 0x12500, symSize: 0xE4 }
  - { offset: 0x265C4, size: 0x8, addend: 0x0, symName: '__ZN84_$LT$serde_json..value..de..MapDeserializer$u20$as$u20$serde_core..de..MapAccess$GT$15next_value_seed17h16a904fa1ca964f5E', symObjAddr: 0x6028, symBinAddr: 0x125E4, symSize: 0xE0 }
  - { offset: 0x26621, size: 0x8, addend: 0x0, symName: '__ZN84_$LT$serde_json..value..de..MapDeserializer$u20$as$u20$serde_core..de..MapAccess$GT$15next_value_seed17h347e54db8ed73942E', symObjAddr: 0x6108, symBinAddr: 0x126C4, symSize: 0xE4 }
  - { offset: 0x2667D, size: 0x8, addend: 0x0, symName: '__ZN84_$LT$serde_json..value..de..MapDeserializer$u20$as$u20$serde_core..de..MapAccess$GT$15next_value_seed17h5b82408b3f358528E', symObjAddr: 0x61EC, symBinAddr: 0x127A8, symSize: 0xE0 }
  - { offset: 0x266D9, size: 0x8, addend: 0x0, symName: '__ZN84_$LT$serde_json..value..de..MapDeserializer$u20$as$u20$serde_core..de..MapAccess$GT$15next_value_seed17h633809c531697733E', symObjAddr: 0x62CC, symBinAddr: 0x12888, symSize: 0xE4 }
  - { offset: 0x26735, size: 0x8, addend: 0x0, symName: '__ZN84_$LT$serde_json..value..de..MapDeserializer$u20$as$u20$serde_core..de..MapAccess$GT$15next_value_seed17h747ba462edd95d3aE', symObjAddr: 0x63B0, symBinAddr: 0x1296C, symSize: 0xE4 }
  - { offset: 0x26791, size: 0x8, addend: 0x0, symName: '__ZN84_$LT$serde_json..value..de..MapDeserializer$u20$as$u20$serde_core..de..MapAccess$GT$15next_value_seed17h74c5c616a13c1a75E', symObjAddr: 0x6494, symBinAddr: 0x12A50, symSize: 0xE4 }
  - { offset: 0x267ED, size: 0x8, addend: 0x0, symName: '__ZN84_$LT$serde_json..value..de..MapDeserializer$u20$as$u20$serde_core..de..MapAccess$GT$15next_value_seed17h7cfa4d4e24f79317E', symObjAddr: 0x6578, symBinAddr: 0x12B34, symSize: 0xF8 }
  - { offset: 0x2684A, size: 0x8, addend: 0x0, symName: '__ZN84_$LT$serde_json..value..de..MapDeserializer$u20$as$u20$serde_core..de..MapAccess$GT$15next_value_seed17hac5265c3a2dd3cacE', symObjAddr: 0x6670, symBinAddr: 0x12C2C, symSize: 0xE4 }
  - { offset: 0x268A6, size: 0x8, addend: 0x0, symName: '__ZN84_$LT$serde_json..value..de..MapDeserializer$u20$as$u20$serde_core..de..MapAccess$GT$15next_value_seed17hb535b4d80ddaa3f9E', symObjAddr: 0x6754, symBinAddr: 0x12D10, symSize: 0xE4 }
  - { offset: 0x26902, size: 0x8, addend: 0x0, symName: '__ZN84_$LT$serde_json..value..de..MapDeserializer$u20$as$u20$serde_core..de..MapAccess$GT$15next_value_seed17hc7c3186808c942c4E', symObjAddr: 0x6838, symBinAddr: 0x12DF4, symSize: 0xE4 }
  - { offset: 0x2695E, size: 0x8, addend: 0x0, symName: '__ZN84_$LT$serde_json..value..de..MapDeserializer$u20$as$u20$serde_core..de..MapAccess$GT$15next_value_seed17hca0923307fff74b0E', symObjAddr: 0x691C, symBinAddr: 0x12ED8, symSize: 0xE4 }
  - { offset: 0x269BA, size: 0x8, addend: 0x0, symName: '__ZN84_$LT$serde_json..value..de..MapDeserializer$u20$as$u20$serde_core..de..MapAccess$GT$15next_value_seed17hcf7a47ddeb9cdc6eE', symObjAddr: 0x6A00, symBinAddr: 0x12FBC, symSize: 0xE0 }
  - { offset: 0x26A16, size: 0x8, addend: 0x0, symName: '__ZN84_$LT$serde_json..value..de..MapDeserializer$u20$as$u20$serde_core..de..MapAccess$GT$15next_value_seed17hd2eb7d0b4fd22075E', symObjAddr: 0x6AE0, symBinAddr: 0x1309C, symSize: 0xE4 }
  - { offset: 0x26A72, size: 0x8, addend: 0x0, symName: '__ZN84_$LT$serde_json..value..de..MapDeserializer$u20$as$u20$serde_core..de..MapAccess$GT$15next_value_seed17hd74140b96edafb4eE', symObjAddr: 0x6BC4, symBinAddr: 0x13180, symSize: 0xE4 }
  - { offset: 0x26ACE, size: 0x8, addend: 0x0, symName: '__ZN84_$LT$serde_json..value..de..MapDeserializer$u20$as$u20$serde_core..de..MapAccess$GT$15next_value_seed17hd7bc68a3ed0e6c21E', symObjAddr: 0x6CA8, symBinAddr: 0x13264, symSize: 0xE4 }
  - { offset: 0x26B2A, size: 0x8, addend: 0x0, symName: '__ZN84_$LT$serde_json..value..de..MapDeserializer$u20$as$u20$serde_core..de..MapAccess$GT$15next_value_seed17hf18f886187c6bdf9E', symObjAddr: 0x6D8C, symBinAddr: 0x13348, symSize: 0xE0 }
  - { offset: 0x26B8D, size: 0x8, addend: 0x0, symName: '__ZN84_$LT$serde_json..value..de..SeqDeserializer$u20$as$u20$serde_core..de..SeqAccess$GT$17next_element_seed17h059634c9b2dab1ccE', symObjAddr: 0x6E6C, symBinAddr: 0x13428, symSize: 0xD4 }
  - { offset: 0x26BE9, size: 0x8, addend: 0x0, symName: '__ZN84_$LT$serde_json..value..de..SeqDeserializer$u20$as$u20$serde_core..de..SeqAccess$GT$17next_element_seed17h06a70de89f069c0bE', symObjAddr: 0x6F40, symBinAddr: 0x134FC, symSize: 0xE8 }
  - { offset: 0x26C45, size: 0x8, addend: 0x0, symName: '__ZN84_$LT$serde_json..value..de..SeqDeserializer$u20$as$u20$serde_core..de..SeqAccess$GT$17next_element_seed17h164f51c4f05256cbE', symObjAddr: 0x7028, symBinAddr: 0x135E4, symSize: 0xE0 }
  - { offset: 0x26CA1, size: 0x8, addend: 0x0, symName: '__ZN84_$LT$serde_json..value..de..SeqDeserializer$u20$as$u20$serde_core..de..SeqAccess$GT$17next_element_seed17h33f62cf9930aaf20E', symObjAddr: 0x7108, symBinAddr: 0x136C4, symSize: 0xD0 }
  - { offset: 0x26CFD, size: 0x8, addend: 0x0, symName: '__ZN84_$LT$serde_json..value..de..SeqDeserializer$u20$as$u20$serde_core..de..SeqAccess$GT$17next_element_seed17h495893c1bb98ffabE', symObjAddr: 0x71D8, symBinAddr: 0x13794, symSize: 0xDC }
  - { offset: 0x26D59, size: 0x8, addend: 0x0, symName: '__ZN84_$LT$serde_json..value..de..SeqDeserializer$u20$as$u20$serde_core..de..SeqAccess$GT$17next_element_seed17h4993450a413c5b70E', symObjAddr: 0x72B4, symBinAddr: 0x13870, symSize: 0xDC }
  - { offset: 0x26DB6, size: 0x8, addend: 0x0, symName: '__ZN84_$LT$serde_json..value..de..SeqDeserializer$u20$as$u20$serde_core..de..SeqAccess$GT$17next_element_seed17h54efdd4e7e6c51b7E', symObjAddr: 0x7390, symBinAddr: 0x1394C, symSize: 0xE0 }
  - { offset: 0x26E12, size: 0x8, addend: 0x0, symName: '__ZN84_$LT$serde_json..value..de..SeqDeserializer$u20$as$u20$serde_core..de..SeqAccess$GT$17next_element_seed17h5a281377ccb51547E', symObjAddr: 0x7470, symBinAddr: 0x13A2C, symSize: 0xE4 }
  - { offset: 0x26E6E, size: 0x8, addend: 0x0, symName: '__ZN84_$LT$serde_json..value..de..SeqDeserializer$u20$as$u20$serde_core..de..SeqAccess$GT$17next_element_seed17h5ede24aa3e683c41E', symObjAddr: 0x7554, symBinAddr: 0x13B10, symSize: 0xE8 }
  - { offset: 0x26ECA, size: 0x8, addend: 0x0, symName: '__ZN84_$LT$serde_json..value..de..SeqDeserializer$u20$as$u20$serde_core..de..SeqAccess$GT$17next_element_seed17h76cf694c6fff7d28E', symObjAddr: 0x763C, symBinAddr: 0x13BF8, symSize: 0xE0 }
  - { offset: 0x26F26, size: 0x8, addend: 0x0, symName: '__ZN84_$LT$serde_json..value..de..SeqDeserializer$u20$as$u20$serde_core..de..SeqAccess$GT$17next_element_seed17h92a71919a5d67f7cE', symObjAddr: 0x771C, symBinAddr: 0x13CD8, symSize: 0xE0 }
  - { offset: 0x26F82, size: 0x8, addend: 0x0, symName: '__ZN84_$LT$serde_json..value..de..SeqDeserializer$u20$as$u20$serde_core..de..SeqAccess$GT$17next_element_seed17h9d5f28a9b5d2e8b6E', symObjAddr: 0x77FC, symBinAddr: 0x13DB8, symSize: 0xE0 }
  - { offset: 0x26FDE, size: 0x8, addend: 0x0, symName: '__ZN84_$LT$serde_json..value..de..SeqDeserializer$u20$as$u20$serde_core..de..SeqAccess$GT$17next_element_seed17ha792cce3cefb2d72E', symObjAddr: 0x78DC, symBinAddr: 0x13E98, symSize: 0xD4 }
  - { offset: 0x2703A, size: 0x8, addend: 0x0, symName: '__ZN84_$LT$serde_json..value..de..SeqDeserializer$u20$as$u20$serde_core..de..SeqAccess$GT$17next_element_seed17hda35c01e715723e1E', symObjAddr: 0x79B0, symBinAddr: 0x13F6C, symSize: 0xE0 }
  - { offset: 0x27096, size: 0x8, addend: 0x0, symName: '__ZN84_$LT$serde_json..value..de..SeqDeserializer$u20$as$u20$serde_core..de..SeqAccess$GT$17next_element_seed17hddd4248fe1a8c616E', symObjAddr: 0x7A90, symBinAddr: 0x1404C, symSize: 0xD4 }
  - { offset: 0x270F2, size: 0x8, addend: 0x0, symName: '__ZN84_$LT$serde_json..value..de..SeqDeserializer$u20$as$u20$serde_core..de..SeqAccess$GT$17next_element_seed17he92d9f837148271aE', symObjAddr: 0x7B64, symBinAddr: 0x14120, symSize: 0xEC }
  - { offset: 0x2714E, size: 0x8, addend: 0x0, symName: '__ZN84_$LT$serde_json..value..de..SeqDeserializer$u20$as$u20$serde_core..de..SeqAccess$GT$17next_element_seed17hf5d5baeefd1fcf5bE', symObjAddr: 0x7C50, symBinAddr: 0x1420C, symSize: 0xE0 }
  - { offset: 0x271B0, size: 0x8, addend: 0x0, symName: '__ZN86_$LT$serde_json..value..de..EnumDeserializer$u20$as$u20$serde_core..de..EnumAccess$GT$12variant_seed17h86c4d78bf6e18682E', symObjAddr: 0x7D30, symBinAddr: 0x142EC, symSize: 0x13C }
  - { offset: 0x27224, size: 0x8, addend: 0x0, symName: '__ZN86_$LT$serde_json..value..de..EnumDeserializer$u20$as$u20$serde_core..de..EnumAccess$GT$12variant_seed17hfd98b2af88bfc409E', symObjAddr: 0x7E6C, symBinAddr: 0x14428, symSize: 0x148 }
  - { offset: 0x2729D, size: 0x8, addend: 0x0, symName: '__ZN86_$LT$serde_json..value..de..EnumDeserializer$u20$as$u20$serde_core..de..EnumAccess$GT$12variant_seed28_$u7b$$u7b$closure$u7d$$u7d$17h0cbc2c15ce6aa359E', symObjAddr: 0x7FB4, symBinAddr: 0x14570, symSize: 0x34 }
  - { offset: 0x272E4, size: 0x8, addend: 0x0, symName: '__ZN86_$LT$serde_json..value..de..EnumDeserializer$u20$as$u20$serde_core..de..EnumAccess$GT$12variant_seed28_$u7b$$u7b$closure$u7d$$u7d$17h2ddc0780b5cd4d51E', symObjAddr: 0x7FE8, symBinAddr: 0x145A4, symSize: 0x2C }
  - { offset: 0x27332, size: 0x8, addend: 0x0, symName: '__ZN88_$LT$serde_json..value..de..KeyClassifier$u20$as$u20$serde_core..de..DeserializeSeed$GT$11deserialize17h69bcd6512bfd5755E', symObjAddr: 0x8014, symBinAddr: 0x145D0, symSize: 0x24 }
  - { offset: 0x27384, size: 0x8, addend: 0x0, symName: '__ZN88_$LT$serde_json..value..de..KeyClassifier$u20$as$u20$serde_core..de..DeserializeSeed$GT$11deserialize17he5b433dcd20e14f5E', symObjAddr: 0x8038, symBinAddr: 0x145F4, symSize: 0x24 }
  - { offset: 0x273D6, size: 0x8, addend: 0x0, symName: '__ZN88_$LT$serde_json..value..de..KeyClassifier$u20$as$u20$serde_core..de..DeserializeSeed$GT$11deserialize17hf85deee9c1ff3664E', symObjAddr: 0x805C, symBinAddr: 0x14618, symSize: 0x1C }
  - { offset: 0x2742F, size: 0x8, addend: 0x0, symName: '__ZN90_$LT$serde_json..value..de..MapKeyDeserializer$u20$as$u20$serde_core..de..Deserializer$GT$15deserialize_any17h2b8511c8a89e0743E', symObjAddr: 0x8078, symBinAddr: 0x14634, symSize: 0x88 }
  - { offset: 0x27476, size: 0x8, addend: 0x0, symName: '__ZN90_$LT$serde_json..value..de..MapKeyDeserializer$u20$as$u20$serde_core..de..Deserializer$GT$15deserialize_any17h487b408e04c56446E', symObjAddr: 0x8100, symBinAddr: 0x146BC, symSize: 0x88 }
  - { offset: 0x274BD, size: 0x8, addend: 0x0, symName: '__ZN90_$LT$serde_json..value..de..MapKeyDeserializer$u20$as$u20$serde_core..de..Deserializer$GT$15deserialize_any17h5c716c0607d11cc9E', symObjAddr: 0x8188, symBinAddr: 0x14744, symSize: 0xA0 }
  - { offset: 0x27504, size: 0x8, addend: 0x0, symName: '__ZN90_$LT$serde_json..value..de..MapKeyDeserializer$u20$as$u20$serde_core..de..Deserializer$GT$15deserialize_any17h6a58cc896d0c1259E', symObjAddr: 0x8228, symBinAddr: 0x147E4, symSize: 0x88 }
  - { offset: 0x2754B, size: 0x8, addend: 0x0, symName: '__ZN90_$LT$serde_json..value..de..MapKeyDeserializer$u20$as$u20$serde_core..de..Deserializer$GT$15deserialize_any17h761d7ad63b6007ddE', symObjAddr: 0x82B0, symBinAddr: 0x1486C, symSize: 0x88 }
  - { offset: 0x27592, size: 0x8, addend: 0x0, symName: '__ZN90_$LT$serde_json..value..de..MapKeyDeserializer$u20$as$u20$serde_core..de..Deserializer$GT$15deserialize_any17h76decd63539f9353E', symObjAddr: 0x8338, symBinAddr: 0x148F4, symSize: 0x88 }
  - { offset: 0x275D9, size: 0x8, addend: 0x0, symName: '__ZN90_$LT$serde_json..value..de..MapKeyDeserializer$u20$as$u20$serde_core..de..Deserializer$GT$15deserialize_any17h793427772c086a7aE', symObjAddr: 0x83C0, symBinAddr: 0x1497C, symSize: 0x88 }
  - { offset: 0x27620, size: 0x8, addend: 0x0, symName: '__ZN90_$LT$serde_json..value..de..MapKeyDeserializer$u20$as$u20$serde_core..de..Deserializer$GT$15deserialize_any17h8a517cd60bbda25fE', symObjAddr: 0x8448, symBinAddr: 0x14A04, symSize: 0x88 }
  - { offset: 0x27667, size: 0x8, addend: 0x0, symName: '__ZN90_$LT$serde_json..value..de..MapKeyDeserializer$u20$as$u20$serde_core..de..Deserializer$GT$15deserialize_any17hdb89d515362ceec1E', symObjAddr: 0x84D0, symBinAddr: 0x14A8C, symSize: 0x88 }
  - { offset: 0x276AE, size: 0x8, addend: 0x0, symName: '__ZN90_$LT$serde_json..value..de..MapKeyDeserializer$u20$as$u20$serde_core..de..Deserializer$GT$15deserialize_any17hf6e3b401afdf2d1dE', symObjAddr: 0x8558, symBinAddr: 0x14B14, symSize: 0x88 }
  - { offset: 0x276F5, size: 0x8, addend: 0x0, symName: '__ZN90_$LT$serde_json..value..de..MapKeyDeserializer$u20$as$u20$serde_core..de..Deserializer$GT$15deserialize_str17h59d6958816a73235E', symObjAddr: 0x85E0, symBinAddr: 0x14B9C, symSize: 0x1C }
  - { offset: 0x27739, size: 0x8, addend: 0x0, symName: '__ZN90_$LT$serde_json..value..de..MapKeyDeserializer$u20$as$u20$serde_core..de..Deserializer$GT$18deserialize_string17ha2aaf1b78725a151E', symObjAddr: 0x85FC, symBinAddr: 0x14BB8, symSize: 0x1C }
  - { offset: 0x2777D, size: 0x8, addend: 0x0, symName: '__ZN90_$LT$serde_json..value..de..MapKeyDeserializer$u20$as$u20$serde_core..de..Deserializer$GT$22deserialize_identifier17h22f0ff80e06cd75eE', symObjAddr: 0x8618, symBinAddr: 0x14BD4, symSize: 0x1C }
  - { offset: 0x277C1, size: 0x8, addend: 0x0, symName: '__ZN90_$LT$serde_json..value..de..MapKeyDeserializer$u20$as$u20$serde_core..de..Deserializer$GT$22deserialize_identifier17h5c3ac811fa2f9b55E', symObjAddr: 0x8634, symBinAddr: 0x14BF0, symSize: 0x1C }
  - { offset: 0x27805, size: 0x8, addend: 0x0, symName: '__ZN90_$LT$serde_json..value..de..MapKeyDeserializer$u20$as$u20$serde_core..de..Deserializer$GT$22deserialize_identifier17h92b0c01976df651dE', symObjAddr: 0x8650, symBinAddr: 0x14C0C, symSize: 0x1C }
  - { offset: 0x27849, size: 0x8, addend: 0x0, symName: '__ZN90_$LT$serde_json..value..de..MapKeyDeserializer$u20$as$u20$serde_core..de..Deserializer$GT$22deserialize_identifier17hd9b79e21c927e583E', symObjAddr: 0x866C, symBinAddr: 0x14C28, symSize: 0x1C }
  - { offset: 0x2788D, size: 0x8, addend: 0x0, symName: '__ZN90_$LT$serde_json..value..de..MapKeyDeserializer$u20$as$u20$serde_core..de..Deserializer$GT$22deserialize_identifier17hea27289aa841447fE', symObjAddr: 0x8688, symBinAddr: 0x14C44, symSize: 0x1C }
  - { offset: 0x278D1, size: 0x8, addend: 0x0, symName: '__ZN90_$LT$serde_json..value..de..MapKeyDeserializer$u20$as$u20$serde_core..de..Deserializer$GT$22deserialize_identifier17hedac01e341ad3af3E', symObjAddr: 0x86A4, symBinAddr: 0x14C60, symSize: 0x1C }
  - { offset: 0x2791B, size: 0x8, addend: 0x0, symName: '__ZN98_$LT$serde_json..value..de..BorrowedCowStrDeserializer$u20$as$u20$serde_core..de..Deserializer$GT$15deserialize_any17h035e21db7b88a69dE', symObjAddr: 0x86C0, symBinAddr: 0x14C7C, symSize: 0x7C }
  - { offset: 0x2799E, size: 0x8, addend: 0x0, symName: '__ZN98_$LT$serde_json..value..de..BorrowedCowStrDeserializer$u20$as$u20$serde_core..de..Deserializer$GT$15deserialize_any17h4c3a6e77f7672531E', symObjAddr: 0x873C, symBinAddr: 0x14CF8, symSize: 0x9C }
  - { offset: 0x27A21, size: 0x8, addend: 0x0, symName: '__ZN98_$LT$serde_json..value..de..BorrowedCowStrDeserializer$u20$as$u20$serde_core..de..Deserializer$GT$15deserialize_any17h4f6dd0fbbeca6101E', symObjAddr: 0x87D8, symBinAddr: 0x14D94, symSize: 0x7C }
  - { offset: 0x27AA4, size: 0x8, addend: 0x0, symName: '__ZN98_$LT$serde_json..value..de..BorrowedCowStrDeserializer$u20$as$u20$serde_core..de..Deserializer$GT$15deserialize_any17h59d85a97791a400dE', symObjAddr: 0x8854, symBinAddr: 0x14E10, symSize: 0x7C }
  - { offset: 0x27B27, size: 0x8, addend: 0x0, symName: '__ZN98_$LT$serde_json..value..de..BorrowedCowStrDeserializer$u20$as$u20$serde_core..de..Deserializer$GT$15deserialize_any17h93c16a46a5c8161cE', symObjAddr: 0x88D0, symBinAddr: 0x14E8C, symSize: 0x7C }
  - { offset: 0x27BAA, size: 0x8, addend: 0x0, symName: '__ZN98_$LT$serde_json..value..de..BorrowedCowStrDeserializer$u20$as$u20$serde_core..de..Deserializer$GT$15deserialize_any17h9e1c5daa0865b2cdE', symObjAddr: 0x894C, symBinAddr: 0x14F08, symSize: 0x7C }
  - { offset: 0x27C2D, size: 0x8, addend: 0x0, symName: '__ZN98_$LT$serde_json..value..de..BorrowedCowStrDeserializer$u20$as$u20$serde_core..de..Deserializer$GT$15deserialize_any17ha2e51ba66af12f37E', symObjAddr: 0x89C8, symBinAddr: 0x14F84, symSize: 0x7C }
  - { offset: 0x27CB0, size: 0x8, addend: 0x0, symName: '__ZN98_$LT$serde_json..value..de..BorrowedCowStrDeserializer$u20$as$u20$serde_core..de..Deserializer$GT$15deserialize_any17ha7299e11a34d678fE', symObjAddr: 0x8A44, symBinAddr: 0x15000, symSize: 0x7C }
  - { offset: 0x27D33, size: 0x8, addend: 0x0, symName: '__ZN98_$LT$serde_json..value..de..BorrowedCowStrDeserializer$u20$as$u20$serde_core..de..Deserializer$GT$15deserialize_any17hdf75f08d621cd896E', symObjAddr: 0x8AC0, symBinAddr: 0x1507C, symSize: 0x7C }
  - { offset: 0x27DB6, size: 0x8, addend: 0x0, symName: '__ZN98_$LT$serde_json..value..de..BorrowedCowStrDeserializer$u20$as$u20$serde_core..de..Deserializer$GT$15deserialize_any17hee95699563031bf1E', symObjAddr: 0x8B3C, symBinAddr: 0x150F8, symSize: 0x7C }
  - { offset: 0x2DC18, size: 0x8, addend: 0x0, symName: __ZN10serde_core2de10EnumAccess7variant17h482eb793b8d0f809E, symObjAddr: 0x0, symBinAddr: 0xC5BC, symSize: 0x14 }
  - { offset: 0x2DC59, size: 0x8, addend: 0x0, symName: __ZN10serde_core2de10EnumAccess7variant17hc65b98a9ee58e032E, symObjAddr: 0x14, symBinAddr: 0xC5D0, symSize: 0x14 }
  - { offset: 0x2DCA0, size: 0x8, addend: 0x0, symName: __ZN10serde_core2de12Deserializer24__deserialize_content_v117h2a9204e5e808dee3E, symObjAddr: 0x28, symBinAddr: 0xC5E4, symSize: 0x1C }
  - { offset: 0x2DCF6, size: 0x8, addend: 0x0, symName: __ZN10serde_core2de7Visitor10visit_char17hf10ce633e3368280E, symObjAddr: 0x44, symBinAddr: 0xC600, symSize: 0x90 }
  - { offset: 0x2DD45, size: 0x8, addend: 0x0, symName: __ZN10serde_core2de7Visitor11visit_bytes17h000b704212af79d0E, symObjAddr: 0xD4, symBinAddr: 0xC690, symSize: 0x84 }
  - { offset: 0x2DD94, size: 0x8, addend: 0x0, symName: __ZN10serde_core2de7Visitor11visit_bytes17h1d5d452f1e54deb5E, symObjAddr: 0x158, symBinAddr: 0xC714, symSize: 0x84 }
  - { offset: 0x2DDE3, size: 0x8, addend: 0x0, symName: __ZN10serde_core2de7Visitor11visit_bytes17he77c0c4592cf1d14E, symObjAddr: 0x1DC, symBinAddr: 0xC798, symSize: 0x84 }
  - { offset: 0x2DE32, size: 0x8, addend: 0x0, symName: __ZN10serde_core2de7Visitor20visit_borrowed_bytes17h7eb13da909e22e6bE, symObjAddr: 0x260, symBinAddr: 0xC81C, symSize: 0x28 }
  - { offset: 0x2DE81, size: 0x8, addend: 0x0, symName: __ZN10serde_core2de7Visitor20visit_borrowed_bytes17hd7ec4e1c0a36e239E, symObjAddr: 0x288, symBinAddr: 0xC844, symSize: 0x28 }
  - { offset: 0x2DED0, size: 0x8, addend: 0x0, symName: __ZN10serde_core2de7Visitor20visit_newtype_struct17h10e92ab334b2c12aE, symObjAddr: 0x2B0, symBinAddr: 0xC86C, symSize: 0x78 }
  - { offset: 0x2DF1F, size: 0x8, addend: 0x0, symName: __ZN10serde_core2de7Visitor8visit_i817h09f7e469f051d87cE, symObjAddr: 0x328, symBinAddr: 0xC8E4, symSize: 0x28 }
  - { offset: 0x2DF6E, size: 0x8, addend: 0x0, symName: __ZN10serde_core2de7Visitor8visit_i817h32aa230100ef6e2eE, symObjAddr: 0x350, symBinAddr: 0xC90C, symSize: 0x28 }
  - { offset: 0x2DFBD, size: 0x8, addend: 0x0, symName: __ZN10serde_core2de7Visitor8visit_u817h8c7644de332e2a1fE, symObjAddr: 0x378, symBinAddr: 0xC934, symSize: 0x28 }
  - { offset: 0x2E00C, size: 0x8, addend: 0x0, symName: __ZN10serde_core2de7Visitor8visit_u817hb3950cecf7c382b1E, symObjAddr: 0x3A0, symBinAddr: 0xC95C, symSize: 0x28 }
  - { offset: 0x2E05B, size: 0x8, addend: 0x0, symName: __ZN10serde_core2de7Visitor9visit_f3217h9a8287d0d5ae34b4E, symObjAddr: 0x3C8, symBinAddr: 0xC984, symSize: 0x24 }
  - { offset: 0x2E0AA, size: 0x8, addend: 0x0, symName: __ZN10serde_core2de7Visitor9visit_i1617h465e45bc655523baE, symObjAddr: 0x3EC, symBinAddr: 0xC9A8, symSize: 0x28 }
  - { offset: 0x2E0F9, size: 0x8, addend: 0x0, symName: __ZN10serde_core2de7Visitor9visit_i1617haf8cc2dd7288fb2eE, symObjAddr: 0x414, symBinAddr: 0xC9D0, symSize: 0x28 }
  - { offset: 0x2E148, size: 0x8, addend: 0x0, symName: __ZN10serde_core2de7Visitor9visit_i3217hb0035dfb91cf181cE, symObjAddr: 0x43C, symBinAddr: 0xC9F8, symSize: 0x28 }
  - { offset: 0x2E197, size: 0x8, addend: 0x0, symName: __ZN10serde_core2de7Visitor9visit_i3217hc5c91c34402b6063E, symObjAddr: 0x464, symBinAddr: 0xCA20, symSize: 0x28 }
  - { offset: 0x2E1E6, size: 0x8, addend: 0x0, symName: __ZN10serde_core2de7Visitor9visit_u1617h2c8002d3a7eede1eE, symObjAddr: 0x48C, symBinAddr: 0xCA48, symSize: 0x28 }
  - { offset: 0x2E235, size: 0x8, addend: 0x0, symName: __ZN10serde_core2de7Visitor9visit_u1617h6dd5b1987e4fa884E, symObjAddr: 0x4B4, symBinAddr: 0xCA70, symSize: 0x28 }
  - { offset: 0x2E284, size: 0x8, addend: 0x0, symName: __ZN10serde_core2de7Visitor9visit_u3217h5ac45158c6e10555E, symObjAddr: 0x4DC, symBinAddr: 0xCA98, symSize: 0x28 }
  - { offset: 0x2E2D3, size: 0x8, addend: 0x0, symName: __ZN10serde_core2de7Visitor9visit_u3217hdbd967109f9aed02E, symObjAddr: 0x504, symBinAddr: 0xCAC0, symSize: 0x28 }
  - { offset: 0x2E328, size: 0x8, addend: 0x0, symName: __ZN10serde_core2de9MapAccess10next_entry17h8d8907739ba697f1E, symObjAddr: 0x52C, symBinAddr: 0xCAE8, symSize: 0x24 }
  - { offset: 0x2E371, size: 0x8, addend: 0x0, symName: __ZN10serde_core2de9MapAccess10next_entry17h9b1e22c8f3e6aec3E, symObjAddr: 0x550, symBinAddr: 0xCB0C, symSize: 0x24 }
  - { offset: 0x2E3BA, size: 0x8, addend: 0x0, symName: __ZN10serde_core2de9MapAccess10next_entry17hf5c8d3de86c18efcE, symObjAddr: 0x574, symBinAddr: 0xCB30, symSize: 0x24 }
  - { offset: 0x2E403, size: 0x8, addend: 0x0, symName: __ZN10serde_core2de9MapAccess10next_value17h177221623053c87bE, symObjAddr: 0x598, symBinAddr: 0xCB54, symSize: 0x24 }
  - { offset: 0x2E443, size: 0x8, addend: 0x0, symName: __ZN10serde_core2de9MapAccess10next_value17h28f64bff871e24b4E, symObjAddr: 0x5BC, symBinAddr: 0xCB78, symSize: 0x24 }
  - { offset: 0x2E483, size: 0x8, addend: 0x0, symName: __ZN10serde_core2de9MapAccess10next_value17h33f8cee0e2235975E, symObjAddr: 0x5E0, symBinAddr: 0xCB9C, symSize: 0x24 }
  - { offset: 0x2E4C3, size: 0x8, addend: 0x0, symName: __ZN10serde_core2de9MapAccess10next_value17h37155f265e3c891eE, symObjAddr: 0x604, symBinAddr: 0xCBC0, symSize: 0x24 }
  - { offset: 0x2E503, size: 0x8, addend: 0x0, symName: __ZN10serde_core2de9MapAccess10next_value17h4260cc7e02017f03E, symObjAddr: 0x628, symBinAddr: 0xCBE4, symSize: 0x24 }
  - { offset: 0x2E543, size: 0x8, addend: 0x0, symName: __ZN10serde_core2de9MapAccess10next_value17h5c7a5d9d3f49e472E, symObjAddr: 0x64C, symBinAddr: 0xCC08, symSize: 0x24 }
  - { offset: 0x2E583, size: 0x8, addend: 0x0, symName: __ZN10serde_core2de9MapAccess10next_value17h81c75c75b05a1d43E, symObjAddr: 0x670, symBinAddr: 0xCC2C, symSize: 0x24 }
  - { offset: 0x2E5C3, size: 0x8, addend: 0x0, symName: __ZN10serde_core2de9MapAccess10next_value17h93ee895c81a25605E, symObjAddr: 0x694, symBinAddr: 0xCC50, symSize: 0x24 }
  - { offset: 0x2E603, size: 0x8, addend: 0x0, symName: __ZN10serde_core2de9MapAccess10next_value17h9ff375438e72ba9eE, symObjAddr: 0x6B8, symBinAddr: 0xCC74, symSize: 0x24 }
  - { offset: 0x2E643, size: 0x8, addend: 0x0, symName: __ZN10serde_core2de9MapAccess10next_value17hafcea833fac90c9cE, symObjAddr: 0x6DC, symBinAddr: 0xCC98, symSize: 0x24 }
  - { offset: 0x2E683, size: 0x8, addend: 0x0, symName: __ZN10serde_core2de9MapAccess10next_value17hc21992e82869591cE, symObjAddr: 0x700, symBinAddr: 0xCCBC, symSize: 0x24 }
  - { offset: 0x2E6C3, size: 0x8, addend: 0x0, symName: __ZN10serde_core2de9MapAccess10next_value17hd73b8885f6851e66E, symObjAddr: 0x724, symBinAddr: 0xCCE0, symSize: 0x24 }
  - { offset: 0x2E703, size: 0x8, addend: 0x0, symName: __ZN10serde_core2de9MapAccess10next_value17hf2be60806142172dE, symObjAddr: 0x748, symBinAddr: 0xCD04, symSize: 0x24 }
  - { offset: 0x2E743, size: 0x8, addend: 0x0, symName: __ZN10serde_core2de9MapAccess10next_value17hfc8472440bb8793aE, symObjAddr: 0x76C, symBinAddr: 0xCD28, symSize: 0x24 }
  - { offset: 0x2E783, size: 0x8, addend: 0x0, symName: __ZN10serde_core2de9MapAccess10next_value17hff8bd05927dbdf0eE, symObjAddr: 0x790, symBinAddr: 0xCD4C, symSize: 0x24 }
  - { offset: 0x2E7C3, size: 0x8, addend: 0x0, symName: __ZN10serde_core2de9MapAccess15next_entry_seed17h04c57089807bf88cE, symObjAddr: 0x7B4, symBinAddr: 0xCD70, symSize: 0x224 }
  - { offset: 0x2E89A, size: 0x8, addend: 0x0, symName: __ZN10serde_core2de9MapAccess15next_entry_seed17h2c3349a2b865777eE, symObjAddr: 0x9D8, symBinAddr: 0xCF94, symSize: 0x20C }
  - { offset: 0x2E971, size: 0x8, addend: 0x0, symName: __ZN10serde_core2de9MapAccess15next_entry_seed17h7ecc7144e50adb0bE, symObjAddr: 0xBE4, symBinAddr: 0xD1A0, symSize: 0x1F8 }
  - { offset: 0x2EA48, size: 0x8, addend: 0x0, symName: __ZN10serde_core2de9MapAccess15next_entry_seed17hc8556a8f2a2c26b2E, symObjAddr: 0xDDC, symBinAddr: 0xD398, symSize: 0x224 }
  - { offset: 0x2EB1F, size: 0x8, addend: 0x0, symName: __ZN10serde_core2de9MapAccess8next_key17h0381b31b7c9c381eE, symObjAddr: 0x1000, symBinAddr: 0xD5BC, symSize: 0x24 }
  - { offset: 0x2EB5F, size: 0x8, addend: 0x0, symName: __ZN10serde_core2de9MapAccess8next_key17h7e1181660f85055dE, symObjAddr: 0x1024, symBinAddr: 0xD5E0, symSize: 0x24 }
  - { offset: 0x2EB9F, size: 0x8, addend: 0x0, symName: __ZN10serde_core2de9MapAccess8next_key17h8b6307b5bde38df4E, symObjAddr: 0x1048, symBinAddr: 0xD604, symSize: 0x24 }
  - { offset: 0x2EBDF, size: 0x8, addend: 0x0, symName: __ZN10serde_core2de9MapAccess8next_key17h8da8a7c004367285E, symObjAddr: 0x106C, symBinAddr: 0xD628, symSize: 0x24 }
  - { offset: 0x2EC1F, size: 0x8, addend: 0x0, symName: __ZN10serde_core2de9MapAccess8next_key17h9158d4adb7050b47E, symObjAddr: 0x1090, symBinAddr: 0xD64C, symSize: 0x24 }
  - { offset: 0x2EC5F, size: 0x8, addend: 0x0, symName: __ZN10serde_core2de9MapAccess8next_key17hea5c0e9490c8bb9dE, symObjAddr: 0x10B4, symBinAddr: 0xD670, symSize: 0x24 }
  - { offset: 0x2ECA5, size: 0x8, addend: 0x0, symName: __ZN10serde_core2de9SeqAccess12next_element17h030a3ed8693ca806E, symObjAddr: 0x10D8, symBinAddr: 0xD694, symSize: 0x24 }
  - { offset: 0x2ECE5, size: 0x8, addend: 0x0, symName: __ZN10serde_core2de9SeqAccess12next_element17h140d11ef5997f88bE, symObjAddr: 0x10FC, symBinAddr: 0xD6B8, symSize: 0x24 }
  - { offset: 0x2ED25, size: 0x8, addend: 0x0, symName: __ZN10serde_core2de9SeqAccess12next_element17h16a80ec874157d3dE, symObjAddr: 0x1120, symBinAddr: 0xD6DC, symSize: 0x24 }
  - { offset: 0x2ED65, size: 0x8, addend: 0x0, symName: __ZN10serde_core2de9SeqAccess12next_element17h2e4f703807790f70E, symObjAddr: 0x1144, symBinAddr: 0xD700, symSize: 0x24 }
  - { offset: 0x2EDA5, size: 0x8, addend: 0x0, symName: __ZN10serde_core2de9SeqAccess12next_element17h5792a526754096c6E, symObjAddr: 0x1168, symBinAddr: 0xD724, symSize: 0x24 }
  - { offset: 0x2EDE5, size: 0x8, addend: 0x0, symName: __ZN10serde_core2de9SeqAccess12next_element17h5c7459e2a134ae91E, symObjAddr: 0x118C, symBinAddr: 0xD748, symSize: 0x24 }
  - { offset: 0x2EE25, size: 0x8, addend: 0x0, symName: __ZN10serde_core2de9SeqAccess12next_element17h5f806be1166ec3e4E, symObjAddr: 0x11B0, symBinAddr: 0xD76C, symSize: 0x24 }
  - { offset: 0x2EE65, size: 0x8, addend: 0x0, symName: __ZN10serde_core2de9SeqAccess12next_element17h76648e632a76570eE, symObjAddr: 0x11D4, symBinAddr: 0xD790, symSize: 0x24 }
  - { offset: 0x2EEA5, size: 0x8, addend: 0x0, symName: __ZN10serde_core2de9SeqAccess12next_element17haa8a18568603bfa5E, symObjAddr: 0x11F8, symBinAddr: 0xD7B4, symSize: 0x24 }
  - { offset: 0x2EEE5, size: 0x8, addend: 0x0, symName: __ZN10serde_core2de9SeqAccess12next_element17hac6f45649decea47E, symObjAddr: 0x121C, symBinAddr: 0xD7D8, symSize: 0x24 }
  - { offset: 0x2EF25, size: 0x8, addend: 0x0, symName: __ZN10serde_core2de9SeqAccess12next_element17hcd98e4ac97f1a927E, symObjAddr: 0x1240, symBinAddr: 0xD7FC, symSize: 0x24 }
  - { offset: 0x2EF65, size: 0x8, addend: 0x0, symName: __ZN10serde_core2de9SeqAccess12next_element17hcf3d2fb55d565482E, symObjAddr: 0x1264, symBinAddr: 0xD820, symSize: 0x24 }
  - { offset: 0x2EFA5, size: 0x8, addend: 0x0, symName: __ZN10serde_core2de9SeqAccess12next_element17hd565bd24ec88ca58E, symObjAddr: 0x1288, symBinAddr: 0xD844, symSize: 0x24 }
  - { offset: 0x2EFE5, size: 0x8, addend: 0x0, symName: __ZN10serde_core2de9SeqAccess12next_element17he02f2ee0e5de3356E, symObjAddr: 0x12AC, symBinAddr: 0xD868, symSize: 0x24 }
  - { offset: 0x2F025, size: 0x8, addend: 0x0, symName: __ZN10serde_core2de9SeqAccess12next_element17he39a2b3e3dfc4a99E, symObjAddr: 0x12D0, symBinAddr: 0xD88C, symSize: 0x24 }
  - { offset: 0x2F065, size: 0x8, addend: 0x0, symName: __ZN10serde_core2de9SeqAccess12next_element17he995f32ccb9981d7E, symObjAddr: 0x12F4, symBinAddr: 0xD8B0, symSize: 0x24 }
  - { offset: 0x2F0AB, size: 0x8, addend: 0x0, symName: '__ZN46_$LT$T$u20$as$u20$serde_core..de..Expected$GT$3fmt17ha082c8ffceb47a91E', symObjAddr: 0x4214, symBinAddr: 0x107D0, symSize: 0x2C }
  - { offset: 0x2F0F1, size: 0x8, addend: 0x0, symName: '__ZN46_$LT$T$u20$as$u20$serde_core..de..Expected$GT$3fmt17hbceb8c7010675599E', symObjAddr: 0x4240, symBinAddr: 0x107FC, symSize: 0x2C }
  - { offset: 0x2F13D, size: 0x8, addend: 0x0, symName: '__ZN59_$LT$$RF$mut$u20$A$u20$as$u20$serde_core..de..MapAccess$GT$10next_entry17h1058c3b1ccd7aa0aE', symObjAddr: 0x426C, symBinAddr: 0x10828, symSize: 0x28 }
  - { offset: 0x2F186, size: 0x8, addend: 0x0, symName: '__ZN59_$LT$$RF$mut$u20$A$u20$as$u20$serde_core..de..MapAccess$GT$10next_entry17ha0490a80c95a4d76E', symObjAddr: 0x4294, symBinAddr: 0x10850, symSize: 0x28 }
  - { offset: 0x2F1CF, size: 0x8, addend: 0x0, symName: '__ZN59_$LT$$RF$mut$u20$A$u20$as$u20$serde_core..de..MapAccess$GT$10next_entry17he5e985bca02a4793E', symObjAddr: 0x42BC, symBinAddr: 0x10878, symSize: 0x28 }
  - { offset: 0x2F218, size: 0x8, addend: 0x0, symName: '__ZN59_$LT$$RF$mut$u20$A$u20$as$u20$serde_core..de..MapAccess$GT$10next_value17h02815e68cc54e044E', symObjAddr: 0x42E4, symBinAddr: 0x108A0, symSize: 0x28 }
  - { offset: 0x2F258, size: 0x8, addend: 0x0, symName: '__ZN59_$LT$$RF$mut$u20$A$u20$as$u20$serde_core..de..MapAccess$GT$10next_value17h0c0919366735d10bE', symObjAddr: 0x430C, symBinAddr: 0x108C8, symSize: 0x28 }
  - { offset: 0x2F298, size: 0x8, addend: 0x0, symName: '__ZN59_$LT$$RF$mut$u20$A$u20$as$u20$serde_core..de..MapAccess$GT$10next_value17h0ceedfda5fe30cd1E', symObjAddr: 0x4334, symBinAddr: 0x108F0, symSize: 0x28 }
  - { offset: 0x2F2D8, size: 0x8, addend: 0x0, symName: '__ZN59_$LT$$RF$mut$u20$A$u20$as$u20$serde_core..de..MapAccess$GT$10next_value17h15abf8006be81d9cE', symObjAddr: 0x435C, symBinAddr: 0x10918, symSize: 0x28 }
  - { offset: 0x2F318, size: 0x8, addend: 0x0, symName: '__ZN59_$LT$$RF$mut$u20$A$u20$as$u20$serde_core..de..MapAccess$GT$10next_value17h39099ff9153107a7E', symObjAddr: 0x4384, symBinAddr: 0x10940, symSize: 0x28 }
  - { offset: 0x2F358, size: 0x8, addend: 0x0, symName: '__ZN59_$LT$$RF$mut$u20$A$u20$as$u20$serde_core..de..MapAccess$GT$10next_value17h586226f10a726f8aE', symObjAddr: 0x43AC, symBinAddr: 0x10968, symSize: 0x28 }
  - { offset: 0x2F398, size: 0x8, addend: 0x0, symName: '__ZN59_$LT$$RF$mut$u20$A$u20$as$u20$serde_core..de..MapAccess$GT$10next_value17h7c5e060e7132fca4E', symObjAddr: 0x43D4, symBinAddr: 0x10990, symSize: 0x28 }
  - { offset: 0x2F3D8, size: 0x8, addend: 0x0, symName: '__ZN59_$LT$$RF$mut$u20$A$u20$as$u20$serde_core..de..MapAccess$GT$10next_value17h8fcc075876da5c94E', symObjAddr: 0x43FC, symBinAddr: 0x109B8, symSize: 0x28 }
  - { offset: 0x2F418, size: 0x8, addend: 0x0, symName: '__ZN59_$LT$$RF$mut$u20$A$u20$as$u20$serde_core..de..MapAccess$GT$10next_value17hb504b5c94dbe01fcE', symObjAddr: 0x4424, symBinAddr: 0x109E0, symSize: 0x28 }
  - { offset: 0x2F458, size: 0x8, addend: 0x0, symName: '__ZN59_$LT$$RF$mut$u20$A$u20$as$u20$serde_core..de..MapAccess$GT$10next_value17hbbe480730012cb21E', symObjAddr: 0x444C, symBinAddr: 0x10A08, symSize: 0x28 }
  - { offset: 0x2F498, size: 0x8, addend: 0x0, symName: '__ZN59_$LT$$RF$mut$u20$A$u20$as$u20$serde_core..de..MapAccess$GT$10next_value17hc38fccc82b9fc7abE', symObjAddr: 0x4474, symBinAddr: 0x10A30, symSize: 0x28 }
  - { offset: 0x2F4D8, size: 0x8, addend: 0x0, symName: '__ZN59_$LT$$RF$mut$u20$A$u20$as$u20$serde_core..de..MapAccess$GT$10next_value17hd46975cdaec72223E', symObjAddr: 0x449C, symBinAddr: 0x10A58, symSize: 0x28 }
  - { offset: 0x2F518, size: 0x8, addend: 0x0, symName: '__ZN59_$LT$$RF$mut$u20$A$u20$as$u20$serde_core..de..MapAccess$GT$10next_value17hdd318e43b56827f6E', symObjAddr: 0x44C4, symBinAddr: 0x10A80, symSize: 0x28 }
  - { offset: 0x2F558, size: 0x8, addend: 0x0, symName: '__ZN59_$LT$$RF$mut$u20$A$u20$as$u20$serde_core..de..MapAccess$GT$10next_value17hef47821272ecae37E', symObjAddr: 0x44EC, symBinAddr: 0x10AA8, symSize: 0x28 }
  - { offset: 0x2F598, size: 0x8, addend: 0x0, symName: '__ZN59_$LT$$RF$mut$u20$A$u20$as$u20$serde_core..de..MapAccess$GT$10next_value17hf9d7857e8ebe2f62E', symObjAddr: 0x4514, symBinAddr: 0x10AD0, symSize: 0x28 }
  - { offset: 0x2F5D8, size: 0x8, addend: 0x0, symName: '__ZN59_$LT$$RF$mut$u20$A$u20$as$u20$serde_core..de..MapAccess$GT$13next_key_seed17hb5c7e0007365d321E', symObjAddr: 0x453C, symBinAddr: 0x10AF8, symSize: 0x28 }
  - { offset: 0x2F627, size: 0x8, addend: 0x0, symName: '__ZN59_$LT$$RF$mut$u20$A$u20$as$u20$serde_core..de..MapAccess$GT$13next_key_seed17hd9798cf1ccf5b661E', symObjAddr: 0x4564, symBinAddr: 0x10B20, symSize: 0x34 }
  - { offset: 0x2F676, size: 0x8, addend: 0x0, symName: '__ZN59_$LT$$RF$mut$u20$A$u20$as$u20$serde_core..de..MapAccess$GT$15next_entry_seed17hf6761a05097f6a16E', symObjAddr: 0x4598, symBinAddr: 0x10B54, symSize: 0x28 }
  - { offset: 0x2F6DD, size: 0x8, addend: 0x0, symName: '__ZN59_$LT$$RF$mut$u20$A$u20$as$u20$serde_core..de..MapAccess$GT$15next_value_seed17h526bb2494500996eE', symObjAddr: 0x45C0, symBinAddr: 0x10B7C, symSize: 0x28 }
  - { offset: 0x2F72C, size: 0x8, addend: 0x0, symName: '__ZN59_$LT$$RF$mut$u20$A$u20$as$u20$serde_core..de..MapAccess$GT$8next_key17h0b2dfea2e5e998baE', symObjAddr: 0x45E8, symBinAddr: 0x10BA4, symSize: 0x28 }
  - { offset: 0x2F76C, size: 0x8, addend: 0x0, symName: '__ZN59_$LT$$RF$mut$u20$A$u20$as$u20$serde_core..de..MapAccess$GT$8next_key17h31468b621a675e1dE', symObjAddr: 0x4610, symBinAddr: 0x10BCC, symSize: 0x28 }
  - { offset: 0x2F7AC, size: 0x8, addend: 0x0, symName: '__ZN59_$LT$$RF$mut$u20$A$u20$as$u20$serde_core..de..MapAccess$GT$8next_key17h360d200f8d2b7cfcE', symObjAddr: 0x4638, symBinAddr: 0x10BF4, symSize: 0x28 }
  - { offset: 0x2F7EC, size: 0x8, addend: 0x0, symName: '__ZN59_$LT$$RF$mut$u20$A$u20$as$u20$serde_core..de..MapAccess$GT$8next_key17h62346384d8b31d3dE', symObjAddr: 0x4660, symBinAddr: 0x10C1C, symSize: 0x28 }
  - { offset: 0x2F82C, size: 0x8, addend: 0x0, symName: '__ZN59_$LT$$RF$mut$u20$A$u20$as$u20$serde_core..de..MapAccess$GT$8next_key17h820de793ce5d4505E', symObjAddr: 0x4688, symBinAddr: 0x10C44, symSize: 0x28 }
  - { offset: 0x2F86C, size: 0x8, addend: 0x0, symName: '__ZN59_$LT$$RF$mut$u20$A$u20$as$u20$serde_core..de..MapAccess$GT$8next_key17h8c806953099353c5E', symObjAddr: 0x46B0, symBinAddr: 0x10C6C, symSize: 0x28 }
  - { offset: 0x2F8AC, size: 0x8, addend: 0x0, symName: '__ZN59_$LT$$RF$mut$u20$A$u20$as$u20$serde_core..de..MapAccess$GT$9size_hint17hcf2c3b8b6642f635E', symObjAddr: 0x46D8, symBinAddr: 0x10C94, symSize: 0x28 }
  - { offset: 0x2F8E9, size: 0x8, addend: 0x0, symName: '__ZN59_$LT$$RF$mut$u20$A$u20$as$u20$serde_core..de..SeqAccess$GT$12next_element17h1fdfa39ead263064E', symObjAddr: 0x4700, symBinAddr: 0x10CBC, symSize: 0x28 }
  - { offset: 0x2F929, size: 0x8, addend: 0x0, symName: '__ZN59_$LT$$RF$mut$u20$A$u20$as$u20$serde_core..de..SeqAccess$GT$12next_element17h4d5b023327269be2E', symObjAddr: 0x4728, symBinAddr: 0x10CE4, symSize: 0x28 }
  - { offset: 0x2F969, size: 0x8, addend: 0x0, symName: '__ZN59_$LT$$RF$mut$u20$A$u20$as$u20$serde_core..de..SeqAccess$GT$12next_element17h67217dd59cb848c6E', symObjAddr: 0x4750, symBinAddr: 0x10D0C, symSize: 0x28 }
  - { offset: 0x2F9A9, size: 0x8, addend: 0x0, symName: '__ZN59_$LT$$RF$mut$u20$A$u20$as$u20$serde_core..de..SeqAccess$GT$12next_element17h79768d0064b59d05E', symObjAddr: 0x4778, symBinAddr: 0x10D34, symSize: 0x28 }
  - { offset: 0x2F9E9, size: 0x8, addend: 0x0, symName: '__ZN59_$LT$$RF$mut$u20$A$u20$as$u20$serde_core..de..SeqAccess$GT$12next_element17h7a5b10b9384256b5E', symObjAddr: 0x47A0, symBinAddr: 0x10D5C, symSize: 0x28 }
  - { offset: 0x2FA29, size: 0x8, addend: 0x0, symName: '__ZN59_$LT$$RF$mut$u20$A$u20$as$u20$serde_core..de..SeqAccess$GT$12next_element17h8f8b579499fc9dbdE', symObjAddr: 0x47C8, symBinAddr: 0x10D84, symSize: 0x28 }
  - { offset: 0x2FA69, size: 0x8, addend: 0x0, symName: '__ZN59_$LT$$RF$mut$u20$A$u20$as$u20$serde_core..de..SeqAccess$GT$12next_element17h912296880c392ff2E', symObjAddr: 0x47F0, symBinAddr: 0x10DAC, symSize: 0x28 }
  - { offset: 0x2FAA9, size: 0x8, addend: 0x0, symName: '__ZN59_$LT$$RF$mut$u20$A$u20$as$u20$serde_core..de..SeqAccess$GT$12next_element17h9c4b1d2f0be9540cE', symObjAddr: 0x4818, symBinAddr: 0x10DD4, symSize: 0x28 }
  - { offset: 0x2FAE9, size: 0x8, addend: 0x0, symName: '__ZN59_$LT$$RF$mut$u20$A$u20$as$u20$serde_core..de..SeqAccess$GT$12next_element17ha78d37abc5d28392E', symObjAddr: 0x4840, symBinAddr: 0x10DFC, symSize: 0x28 }
  - { offset: 0x2FB29, size: 0x8, addend: 0x0, symName: '__ZN59_$LT$$RF$mut$u20$A$u20$as$u20$serde_core..de..SeqAccess$GT$12next_element17hb0f7bbb759ac2db4E', symObjAddr: 0x4868, symBinAddr: 0x10E24, symSize: 0x28 }
  - { offset: 0x2FB69, size: 0x8, addend: 0x0, symName: '__ZN59_$LT$$RF$mut$u20$A$u20$as$u20$serde_core..de..SeqAccess$GT$12next_element17hc8b303a577f8f0dcE', symObjAddr: 0x4890, symBinAddr: 0x10E4C, symSize: 0x28 }
  - { offset: 0x2FBA9, size: 0x8, addend: 0x0, symName: '__ZN59_$LT$$RF$mut$u20$A$u20$as$u20$serde_core..de..SeqAccess$GT$12next_element17hcddc363636f15a18E', symObjAddr: 0x48B8, symBinAddr: 0x10E74, symSize: 0x28 }
  - { offset: 0x2FBE9, size: 0x8, addend: 0x0, symName: '__ZN59_$LT$$RF$mut$u20$A$u20$as$u20$serde_core..de..SeqAccess$GT$12next_element17hce4736b2f3796cd8E', symObjAddr: 0x48E0, symBinAddr: 0x10E9C, symSize: 0x28 }
  - { offset: 0x2FC29, size: 0x8, addend: 0x0, symName: '__ZN59_$LT$$RF$mut$u20$A$u20$as$u20$serde_core..de..SeqAccess$GT$12next_element17hcffcdaadcf10b8e3E', symObjAddr: 0x4908, symBinAddr: 0x10EC4, symSize: 0x28 }
  - { offset: 0x2FC69, size: 0x8, addend: 0x0, symName: '__ZN59_$LT$$RF$mut$u20$A$u20$as$u20$serde_core..de..SeqAccess$GT$12next_element17hdd39da339a94ab8dE', symObjAddr: 0x4930, symBinAddr: 0x10EEC, symSize: 0x28 }
  - { offset: 0x2FCA9, size: 0x8, addend: 0x0, symName: '__ZN59_$LT$$RF$mut$u20$A$u20$as$u20$serde_core..de..SeqAccess$GT$12next_element17hf29fd175a7820df3E', symObjAddr: 0x4958, symBinAddr: 0x10F14, symSize: 0x28 }
  - { offset: 0x2FCE9, size: 0x8, addend: 0x0, symName: '__ZN59_$LT$$RF$mut$u20$A$u20$as$u20$serde_core..de..SeqAccess$GT$17next_element_seed17h3585e3284320f345E', symObjAddr: 0x4980, symBinAddr: 0x10F3C, symSize: 0x28 }
  - { offset: 0x2FD38, size: 0x8, addend: 0x0, symName: '__ZN59_$LT$$RF$mut$u20$A$u20$as$u20$serde_core..de..SeqAccess$GT$9size_hint17h4d80f631669f3633E', symObjAddr: 0x49A8, symBinAddr: 0x10F64, symSize: 0x28 }
  - { offset: 0x31AD3, size: 0x8, addend: 0x0, symName: __ZN3std9panicking12catch_unwind7do_call17h73eb9aecaf97fd9eE, symObjAddr: 0x0, symBinAddr: 0x15174, symSize: 0x78 }
  - { offset: 0x33AC2, size: 0x8, addend: 0x0, symName: __ZN3std9panicking12catch_unwind7do_call17h73eb9aecaf97fd9eE, symObjAddr: 0x0, symBinAddr: 0x15174, symSize: 0x78 }
  - { offset: 0x33BA9, size: 0x8, addend: 0x0, symName: __ZN3std9panicking12catch_unwind7do_call17h85a3a58411fb456bE, symObjAddr: 0x78, symBinAddr: 0x151EC, symSize: 0x78 }
  - { offset: 0x33C90, size: 0x8, addend: 0x0, symName: __ZN3std9panicking12catch_unwind7do_call17hdf733417667786b9E, symObjAddr: 0xF0, symBinAddr: 0x15264, symSize: 0x78 }
  - { offset: 0x33D77, size: 0x8, addend: 0x0, symName: __ZN3std9panicking12catch_unwind8do_catch17h82ccf8736159bd50E, symObjAddr: 0x168, symBinAddr: 0x152DC, symSize: 0x70 }
  - { offset: 0x33E0C, size: 0x8, addend: 0x0, symName: __ZN3std9panicking12catch_unwind8do_catch17hdc9e03f8d73187f8E, symObjAddr: 0x1D8, symBinAddr: 0x1534C, symSize: 0x70 }
  - { offset: 0x33EA1, size: 0x8, addend: 0x0, symName: __ZN3std9panicking12catch_unwind8do_catch17hdcb1f6dce35859aaE, symObjAddr: 0x248, symBinAddr: 0x153BC, symSize: 0x70 }
  - { offset: 0x342A2, size: 0x8, addend: 0x0, symName: '__ZN10serde_core2de5impls82_$LT$impl$u20$serde_core..de..Deserialize$u20$for$u20$alloc..vec..Vec$LT$T$GT$$GT$11deserialize17h026d5861c5a2fa19E', symObjAddr: 0x0, symBinAddr: 0x1542C, symSize: 0x1C }
  - { offset: 0x37228, size: 0x8, addend: 0x0, symName: '__ZN10serde_core2de5impls82_$LT$impl$u20$serde_core..de..Deserialize$u20$for$u20$alloc..vec..Vec$LT$T$GT$$GT$11deserialize17h026d5861c5a2fa19E', symObjAddr: 0x0, symBinAddr: 0x1542C, symSize: 0x1C }
  - { offset: 0x37287, size: 0x8, addend: 0x0, symName: '__ZN10serde_core2de5impls82_$LT$impl$u20$serde_core..de..Deserialize$u20$for$u20$alloc..vec..Vec$LT$T$GT$$GT$11deserialize17h191d6069648e652dE', symObjAddr: 0x1C, symBinAddr: 0x15448, symSize: 0x1C }
  - { offset: 0x372E6, size: 0x8, addend: 0x0, symName: '__ZN10serde_core2de5impls82_$LT$impl$u20$serde_core..de..Deserialize$u20$for$u20$alloc..vec..Vec$LT$T$GT$$GT$11deserialize17h19f2a4441642f16eE', symObjAddr: 0x38, symBinAddr: 0x15464, symSize: 0x24 }
  - { offset: 0x37344, size: 0x8, addend: 0x0, symName: '__ZN10serde_core2de5impls82_$LT$impl$u20$serde_core..de..Deserialize$u20$for$u20$alloc..vec..Vec$LT$T$GT$$GT$11deserialize17h52c34190146a5154E', symObjAddr: 0x5C, symBinAddr: 0x15488, symSize: 0x28 }
  - { offset: 0x373A2, size: 0x8, addend: 0x0, symName: '__ZN10serde_core2de5impls82_$LT$impl$u20$serde_core..de..Deserialize$u20$for$u20$alloc..vec..Vec$LT$T$GT$$GT$11deserialize17h579d4970e37678d3E', symObjAddr: 0x84, symBinAddr: 0x154B0, symSize: 0x1C }
  - { offset: 0x37401, size: 0x8, addend: 0x0, symName: '__ZN10serde_core2de5impls82_$LT$impl$u20$serde_core..de..Deserialize$u20$for$u20$alloc..vec..Vec$LT$T$GT$$GT$11deserialize17h6f7e072a8cf8566eE', symObjAddr: 0xA0, symBinAddr: 0x154CC, symSize: 0x1C }
  - { offset: 0x37460, size: 0x8, addend: 0x0, symName: '__ZN10serde_core2de5impls82_$LT$impl$u20$serde_core..de..Deserialize$u20$for$u20$alloc..vec..Vec$LT$T$GT$$GT$11deserialize17h83f7f735b6f926afE', symObjAddr: 0xBC, symBinAddr: 0x154E8, symSize: 0x28 }
  - { offset: 0x3754E, size: 0x8, addend: 0x0, symName: '__ZN10serde_core3ser5impls62_$LT$impl$u20$serde_core..ser..Serialize$u20$for$u20$$RF$T$GT$9serialize17h4d3bd527367e5fcdE', symObjAddr: 0xE4, symBinAddr: 0x15510, symSize: 0x28 }
  - { offset: 0x3759D, size: 0x8, addend: 0x0, symName: '__ZN10serde_core3ser5impls62_$LT$impl$u20$serde_core..ser..Serialize$u20$for$u20$$RF$T$GT$9serialize17h602a69ee27eee055E', symObjAddr: 0x10C, symBinAddr: 0x15538, symSize: 0x28 }
  - { offset: 0x375EC, size: 0x8, addend: 0x0, symName: '__ZN10serde_core3ser5impls62_$LT$impl$u20$serde_core..ser..Serialize$u20$for$u20$$RF$T$GT$9serialize17h83cd0703de1a5f6eE', symObjAddr: 0x134, symBinAddr: 0x15560, symSize: 0x28 }
  - { offset: 0x3763B, size: 0x8, addend: 0x0, symName: '__ZN10serde_core3ser5impls62_$LT$impl$u20$serde_core..ser..Serialize$u20$for$u20$$RF$T$GT$9serialize17h8e9e1b78fdc99352E', symObjAddr: 0x15C, symBinAddr: 0x15588, symSize: 0x28 }
  - { offset: 0x37690, size: 0x8, addend: 0x0, symName: '__ZN10serde_core3ser5impls81_$LT$impl$u20$serde_core..ser..Serialize$u20$for$u20$alloc..vec..Vec$LT$T$GT$$GT$9serialize17h6bdfbfe4d457a11fE', symObjAddr: 0x184, symBinAddr: 0x155B0, symSize: 0x24 }
  - { offset: 0x376DC, size: 0x8, addend: 0x0, symName: '__ZN10serde_core3ser5impls81_$LT$impl$u20$serde_core..ser..Serialize$u20$for$u20$alloc..vec..Vec$LT$T$GT$$GT$9serialize17h7d1143ad820caab2E', symObjAddr: 0x1A8, symBinAddr: 0x155D4, symSize: 0x24 }
  - { offset: 0x37728, size: 0x8, addend: 0x0, symName: '__ZN10serde_core3ser5impls81_$LT$impl$u20$serde_core..ser..Serialize$u20$for$u20$alloc..vec..Vec$LT$T$GT$$GT$9serialize17h822ee42df76c1da9E', symObjAddr: 0x1CC, symBinAddr: 0x155F8, symSize: 0x24 }
  - { offset: 0x37774, size: 0x8, addend: 0x0, symName: '__ZN10serde_core3ser5impls81_$LT$impl$u20$serde_core..ser..Serialize$u20$for$u20$alloc..vec..Vec$LT$T$GT$$GT$9serialize17hb7ef471b109fa1ddE', symObjAddr: 0x1F0, symBinAddr: 0x1561C, symSize: 0x24 }
  - { offset: 0x377C0, size: 0x8, addend: 0x0, symName: '__ZN10serde_core3ser5impls81_$LT$impl$u20$serde_core..ser..Serialize$u20$for$u20$alloc..vec..Vec$LT$T$GT$$GT$9serialize17hcec08ccec7f9d2ffE', symObjAddr: 0x214, symBinAddr: 0x15640, symSize: 0x24 }
  - { offset: 0x37B33, size: 0x8, addend: 0x0, symName: '__ZN4pyo311conversions3std3vec85_$LT$impl$u20$pyo3..conversion..FromPyObject$u20$for$u20$alloc..vec..Vec$LT$T$GT$$GT$7extract17h938ff37467dc6475E', symObjAddr: 0x238, symBinAddr: 0x15664, symSize: 0xE4 }
  - { offset: 0x37D01, size: 0x8, addend: 0x0, symName: '__ZN80_$LT$T$u20$as$u20$pyo3..impl_..extract_argument..PyFunctionArgument$LT$_$GT$$GT$7extract17h1dd8a202b35fa223E', symObjAddr: 0xAE8, symBinAddr: 0x15F14, symSize: 0x28 }
  - { offset: 0x38915, size: 0x8, addend: 0x0, symName: '__ZN5alloc3vec10partial_eq102_$LT$impl$u20$core..cmp..PartialEq$LT$$RF$$u5b$U$u5d$$GT$$u20$for$u20$alloc..vec..Vec$LT$T$C$A$GT$$GT$2eq17h2cb7380b8d4f8190E', symObjAddr: 0x31C, symBinAddr: 0x15748, symSize: 0x90 }
  - { offset: 0x39283, size: 0x8, addend: 0x0, symName: '__ZN5alloc3vec16in_place_collect108_$LT$impl$u20$alloc..vec..spec_from_iter..SpecFromIter$LT$T$C$I$GT$$u20$for$u20$alloc..vec..Vec$LT$T$GT$$GT$9from_iter17h7bbaca1ecbe42c97E', symObjAddr: 0xAC0, symBinAddr: 0x15EEC, symSize: 0x28 }
  - { offset: 0x392E6, size: 0x8, addend: 0x0, symName: '__ZN90_$LT$alloc..vec..Vec$LT$T$C$A$GT$$u20$as$u20$core..iter..traits..collect..IntoIterator$GT$9into_iter17h765e80bd6d96b53aE', symObjAddr: 0xB10, symBinAddr: 0x15F3C, symSize: 0x98 }
  - { offset: 0x39516, size: 0x8, addend: 0x0, symName: '__ZN90_$LT$alloc..vec..Vec$LT$T$C$A$GT$$u20$as$u20$core..iter..traits..collect..IntoIterator$GT$9into_iter17h831ef5556d8c9641E', symObjAddr: 0xBA8, symBinAddr: 0x15FD4, symSize: 0x98 }
  - { offset: 0x39746, size: 0x8, addend: 0x0, symName: '__ZN90_$LT$alloc..vec..Vec$LT$T$C$A$GT$$u20$as$u20$core..iter..traits..collect..IntoIterator$GT$9into_iter17h9551c86960faa6deE', symObjAddr: 0xC40, symBinAddr: 0x1606C, symSize: 0x98 }
  - { offset: 0x39976, size: 0x8, addend: 0x0, symName: '__ZN90_$LT$alloc..vec..Vec$LT$T$C$A$GT$$u20$as$u20$core..iter..traits..collect..IntoIterator$GT$9into_iter17ha3b9aa2a9e62c319E', symObjAddr: 0xCD8, symBinAddr: 0x16104, symSize: 0xA0 }
  - { offset: 0x39C07, size: 0x8, addend: 0x0, symName: '__ZN94_$LT$$RF$alloc..vec..Vec$LT$T$C$A$GT$$u20$as$u20$core..iter..traits..collect..IntoIterator$GT$9into_iter17h32dbe9ba48b83397E', symObjAddr: 0xD78, symBinAddr: 0x161A4, symSize: 0xA0 }
  - { offset: 0x39E51, size: 0x8, addend: 0x0, symName: '__ZN94_$LT$$RF$alloc..vec..Vec$LT$T$C$A$GT$$u20$as$u20$core..iter..traits..collect..IntoIterator$GT$9into_iter17h8411483966b2aba0E', symObjAddr: 0xE18, symBinAddr: 0x16244, symSize: 0xAC }
  - { offset: 0x3A09B, size: 0x8, addend: 0x0, symName: '__ZN94_$LT$$RF$alloc..vec..Vec$LT$T$C$A$GT$$u20$as$u20$core..iter..traits..collect..IntoIterator$GT$9into_iter17hc51394a4bb84d356E', symObjAddr: 0xEC4, symBinAddr: 0x162F0, symSize: 0xAC }
  - { offset: 0x3A2EB, size: 0x8, addend: 0x0, symName: '__ZN95_$LT$alloc..vec..Vec$LT$T$GT$$u20$as$u20$core..iter..traits..collect..FromIterator$LT$T$GT$$GT$9from_iter17h88d70ad20b19046bE', symObjAddr: 0xF70, symBinAddr: 0x1639C, symSize: 0x34 }
  - { offset: 0x3AC33, size: 0x8, addend: 0x0, symName: '__ZN5alloc3vec12Vec$LT$T$GT$13with_capacity17h09d881ab7e55bc40E', symObjAddr: 0x3AC, symBinAddr: 0x157D8, symSize: 0x40 }
  - { offset: 0x3AD0D, size: 0x8, addend: 0x0, symName: '__ZN5alloc3vec12Vec$LT$T$GT$13with_capacity17h4fbfbcd29b1837c3E', symObjAddr: 0x3EC, symBinAddr: 0x15818, symSize: 0x44 }
  - { offset: 0x3AE4C, size: 0x8, addend: 0x0, symName: '__ZN5alloc3vec12Vec$LT$T$GT$13with_capacity17h6a05c137b089a8b0E', symObjAddr: 0x430, symBinAddr: 0x1585C, symSize: 0x44 }
  - { offset: 0x3AF26, size: 0x8, addend: 0x0, symName: '__ZN5alloc3vec12Vec$LT$T$GT$13with_capacity17ha309d20f4346d677E', symObjAddr: 0x474, symBinAddr: 0x158A0, symSize: 0x44 }
  - { offset: 0x3BCAB, size: 0x8, addend: 0x0, symName: '__ZN5alloc3vec12Vec$LT$T$GT$13with_capacity17ha95c732988ef5b5fE', symObjAddr: 0x4B8, symBinAddr: 0x158E4, symSize: 0x44 }
  - { offset: 0x3BD85, size: 0x8, addend: 0x0, symName: '__ZN5alloc3vec12Vec$LT$T$GT$13with_capacity17hee689b41c1a95ee3E', symObjAddr: 0x4FC, symBinAddr: 0x15928, symSize: 0x44 }
  - { offset: 0x3BDFD, size: 0x8, addend: 0x0, symName: '__ZN5alloc3vec12Vec$LT$T$GT$3new17h730eec73c9c82418E', symObjAddr: 0x540, symBinAddr: 0x1596C, symSize: 0x14 }
  - { offset: 0x3BE1A, size: 0x8, addend: 0x0, symName: '__ZN5alloc3vec12Vec$LT$T$GT$3new17haa3ed9ff72536258E', symObjAddr: 0x554, symBinAddr: 0x15980, symSize: 0x14 }
  - { offset: 0x3BE44, size: 0x8, addend: 0x0, symName: '__ZN5alloc3vec12Vec$LT$T$GT$3new17hdf5ba6b1b4f87976E', symObjAddr: 0x568, symBinAddr: 0x15994, symSize: 0x14 }
  - { offset: 0x3BE6E, size: 0x8, addend: 0x0, symName: '__ZN5alloc3vec16Vec$LT$T$C$A$GT$4push17h0d88653e7b4320feE', symObjAddr: 0x57C, symBinAddr: 0x159A8, symSize: 0x2C }
  - { offset: 0x3BEBF, size: 0x8, addend: 0x0, symName: '__ZN5alloc3vec16Vec$LT$T$C$A$GT$4push17h4871ec99db53bd61E', symObjAddr: 0x5A8, symBinAddr: 0x159D4, symSize: 0x30 }
  - { offset: 0x3BF10, size: 0x8, addend: 0x0, symName: '__ZN5alloc3vec16Vec$LT$T$C$A$GT$4push17ha41fbb85bf842762E', symObjAddr: 0x5D8, symBinAddr: 0x15A04, symSize: 0x24 }
  - { offset: 0x3BF62, size: 0x8, addend: 0x0, symName: '__ZN5alloc3vec16Vec$LT$T$C$A$GT$4push17ha7595dc514912451E', symObjAddr: 0x5FC, symBinAddr: 0x15A28, symSize: 0x2C }
  - { offset: 0x3BFB3, size: 0x8, addend: 0x0, symName: '__ZN5alloc3vec16Vec$LT$T$C$A$GT$4push17he7699b67a58cc6a6E', symObjAddr: 0x628, symBinAddr: 0x15A54, symSize: 0x24 }
  - { offset: 0x3C10B, size: 0x8, addend: 0x0, symName: '__ZN5alloc3vec16Vec$LT$T$C$A$GT$8push_mut17h26ec064290bfb6b4E', symObjAddr: 0x64C, symBinAddr: 0x15A78, symSize: 0xE0 }
  - { offset: 0x3C3D0, size: 0x8, addend: 0x0, symName: '__ZN5alloc3vec16Vec$LT$T$C$A$GT$8push_mut17h54fcee1bdc80b18fE', symObjAddr: 0x72C, symBinAddr: 0x15B58, symSize: 0x100 }
  - { offset: 0x3C695, size: 0x8, addend: 0x0, symName: '__ZN5alloc3vec16Vec$LT$T$C$A$GT$8push_mut17h646f20adfdd448f5E', symObjAddr: 0x82C, symBinAddr: 0x15C58, symSize: 0xD0 }
  - { offset: 0x3C958, size: 0x8, addend: 0x0, symName: '__ZN5alloc3vec16Vec$LT$T$C$A$GT$8push_mut17h6d938f9de569269fE', symObjAddr: 0x8FC, symBinAddr: 0x15D28, symSize: 0xD8 }
  - { offset: 0x3CC1B, size: 0x8, addend: 0x0, symName: '__ZN5alloc3vec16Vec$LT$T$C$A$GT$8push_mut17hb8a25096c5d1eb2cE', symObjAddr: 0x9D4, symBinAddr: 0x15E00, symSize: 0xEC }
  - { offset: 0x3DC13, size: 0x8, addend: 0x0, symName: '__ZN9hashbrown3raw21RawTable$LT$T$C$A$GT$16with_capacity_in17h6e5069a94bf333c8E', symObjAddr: 0x0, symBinAddr: 0x163D0, symSize: 0x98 }
  - { offset: 0x3E9A1, size: 0x8, addend: 0x0, symName: '__ZN9hashbrown3raw21RawTable$LT$T$C$A$GT$16with_capacity_in17h6e5069a94bf333c8E', symObjAddr: 0x0, symBinAddr: 0x163D0, symSize: 0x98 }
  - { offset: 0x3EA4F, size: 0x8, addend: 0x0, symName: '__ZN9hashbrown3raw21RawTable$LT$T$C$A$GT$16with_capacity_in17hab3594d4415c7e99E', symObjAddr: 0x98, symBinAddr: 0x16468, symSize: 0x98 }
  - { offset: 0x3EAD7, size: 0x8, addend: 0x0, symName: '__ZN4_rdx12collect_text28_$u7b$$u7b$closure$u7d$$u7d$17ha01eea4e46b46934E', symObjAddr: 0x0, symBinAddr: 0x16500, symSize: 0x74 }
  - { offset: 0x40B8E, size: 0x8, addend: 0x0, symName: '__ZN4_rdx12collect_text28_$u7b$$u7b$closure$u7d$$u7d$17ha01eea4e46b46934E', symObjAddr: 0x0, symBinAddr: 0x16500, symSize: 0x74 }
  - { offset: 0x40BC4, size: 0x8, addend: 0x0, symName: '__ZN4_rdx12collect_text28_$u7b$$u7b$closure$u7d$$u7d$17hc591dc6b3f177567E', symObjAddr: 0x74, symBinAddr: 0x16574, symSize: 0x74 }
  - { offset: 0x40C0E, size: 0x8, addend: 0x0, symName: '__ZN4_rdx19parse_with_defaults28_$u7b$$u7b$closure$u7d$$u7d$17h96ecbeceb88e1b60E', symObjAddr: 0xE8, symBinAddr: 0x165E8, symSize: 0x74 }
  - { offset: 0x40C44, size: 0x8, addend: 0x0, symName: '__ZN4_rdx19parse_with_defaults28_$u7b$$u7b$closure$u7d$$u7d$17hfffe2b378d258a03E', symObjAddr: 0x15C, symBinAddr: 0x1665C, symSize: 0x74 }
  - { offset: 0x40C8E, size: 0x8, addend: 0x0, symName: '__ZN4_rdx21parse_with_transforms28_$u7b$$u7b$closure$u7d$$u7d$17h449a06e42d86e6a9E', symObjAddr: 0x1D0, symBinAddr: 0x166D0, symSize: 0x74 }
  - { offset: 0x40CC4, size: 0x8, addend: 0x0, symName: '__ZN4_rdx21parse_with_transforms28_$u7b$$u7b$closure$u7d$$u7d$17hc63e188e96dd484fE', symObjAddr: 0x244, symBinAddr: 0x16744, symSize: 0x74 }
  - { offset: 0x40D0E, size: 0x8, addend: 0x0, symName: '__ZN4_rdx5parse28_$u7b$$u7b$closure$u7d$$u7d$17h42d9b1baecec5dcaE', symObjAddr: 0x2B8, symBinAddr: 0x167B8, symSize: 0x74 }
  - { offset: 0x40D44, size: 0x8, addend: 0x0, symName: '__ZN4_rdx5parse28_$u7b$$u7b$closure$u7d$$u7d$17h7c7c2bb396ef8488E', symObjAddr: 0x32C, symBinAddr: 0x1682C, symSize: 0x74 }
  - { offset: 0x40D8E, size: 0x8, addend: 0x0, symName: '__ZN4_rdx8validate28_$u7b$$u7b$closure$u7d$$u7d$17h047b0c49ccb2daf9E', symObjAddr: 0x3A0, symBinAddr: 0x168A0, symSize: 0x74 }
  - { offset: 0x40DC4, size: 0x8, addend: 0x0, symName: '__ZN4_rdx8validate28_$u7b$$u7b$closure$u7d$$u7d$17h35d893d524a79ba7E', symObjAddr: 0x414, symBinAddr: 0x16914, symSize: 0x74 }
  - { offset: 0x40DFA, size: 0x8, addend: 0x0, symName: '__ZN4_rdx8validate28_$u7b$$u7b$closure$u7d$$u7d$17h50c16d683b503d21E', symObjAddr: 0x488, symBinAddr: 0x16988, symSize: 0x74 }
  - { offset: 0x40E30, size: 0x8, addend: 0x0, symName: '__ZN4_rdx8validate28_$u7b$$u7b$closure$u7d$$u7d$17h53fb923b4940437dE', symObjAddr: 0x4FC, symBinAddr: 0x169FC, symSize: 0x744 }
  - { offset: 0x40F99, size: 0x8, addend: 0x0, symName: '__ZN4_rdx8validate28_$u7b$$u7b$closure$u7d$$u7d$17h7b62f018c9bc1e03E', symObjAddr: 0xC40, symBinAddr: 0x17140, symSize: 0x74 }
  - { offset: 0x40FCF, size: 0x8, addend: 0x0, symName: '__ZN4_rdx8validate28_$u7b$$u7b$closure$u7d$$u7d$17hd8151e1a6131094aE', symObjAddr: 0xCB4, symBinAddr: 0x171B4, symSize: 0x74 }
  - { offset: 0x41005, size: 0x8, addend: 0x0, symName: '__ZN4_rdx8validate28_$u7b$$u7b$closure$u7d$$u7d$17he5fc293388baa334E', symObjAddr: 0xD28, symBinAddr: 0x17228, symSize: 0x74 }
  - { offset: 0x41072, size: 0x8, addend: 0x0, symName: '__ZN4_rdx9query_all28_$u7b$$u7b$closure$u7d$$u7d$17h1ef00171442c6b70E', symObjAddr: 0xD9C, symBinAddr: 0x1729C, symSize: 0x74 }
  - { offset: 0x410A8, size: 0x8, addend: 0x0, symName: '__ZN4_rdx9query_all28_$u7b$$u7b$closure$u7d$$u7d$17h933f19fbbd8cea63E', symObjAddr: 0xE10, symBinAddr: 0x17310, symSize: 0x74 }
  - { offset: 0x410DE, size: 0x8, addend: 0x0, symName: '__ZN4_rdx9query_all28_$u7b$$u7b$closure$u7d$$u7d$17hbe5b8b079caeb978E', symObjAddr: 0xE84, symBinAddr: 0x17384, symSize: 0x74 }
  - { offset: 0x41114, size: 0x8, addend: 0x0, symName: '__ZN4_rdx9query_all28_$u7b$$u7b$closure$u7d$$u7d$17hc86c990f8a322cfdE', symObjAddr: 0xEF8, symBinAddr: 0x173F8, symSize: 0x74 }
  - { offset: 0x41CCB, size: 0x8, addend: 0x0, symName: '__ZN100_$LT$core..iter..adapters..take..Take$LT$I$GT$$u20$as$u20$core..iter..traits..iterator..Iterator$GT$8try_fold17h59bbf63c15eb6becE', symObjAddr: 0x0, symBinAddr: 0x1746C, symSize: 0xFC }
  - { offset: 0x432F6, size: 0x8, addend: 0x0, symName: '__ZN100_$LT$core..iter..adapters..take..Take$LT$I$GT$$u20$as$u20$core..iter..traits..iterator..Iterator$GT$8try_fold17h59bbf63c15eb6becE', symObjAddr: 0x0, symBinAddr: 0x1746C, symSize: 0xFC }
  - { offset: 0x433B0, size: 0x8, addend: 0x0, symName: '__ZN100_$LT$core..iter..adapters..take..Take$LT$I$GT$$u20$as$u20$core..iter..traits..iterator..Iterator$GT$8try_fold5check28_$u7b$$u7b$closure$u7d$$u7d$17ha53e6ab35ff19bb1E', symObjAddr: 0xFC, symBinAddr: 0x17568, symSize: 0x138 }
  - { offset: 0x43F7B, size: 0x8, addend: 0x0, symName: __ZN4pyo35impl_16extract_argument16extract_argument17h1d5cc64bc012da2dE, symObjAddr: 0x0, symBinAddr: 0x176A0, symSize: 0x148 }
  - { offset: 0x45A6E, size: 0x8, addend: 0x0, symName: __ZN4pyo35impl_16extract_argument16extract_argument17h1d5cc64bc012da2dE, symObjAddr: 0x0, symBinAddr: 0x176A0, symSize: 0x148 }
  - { offset: 0x45AF1, size: 0x8, addend: 0x0, symName: __ZN4pyo35impl_16extract_argument16extract_argument17h315e4cd973d11637E, symObjAddr: 0x148, symBinAddr: 0x177E8, symSize: 0x174 }
  - { offset: 0x45B76, size: 0x8, addend: 0x0, symName: __ZN4pyo35impl_16extract_argument16extract_argument17hd2a1a7c83c749f04E, symObjAddr: 0x2BC, symBinAddr: 0x1795C, symSize: 0x168 }
  - { offset: 0x45D04, size: 0x8, addend: 0x0, symName: '__ZN4pyo35impl_16extract_argument19FunctionDescription26extract_arguments_fastcall28_$u7b$$u7b$closure$u7d$$u7d$17h49446be91b39555dE', symObjAddr: 0x10F0, symBinAddr: 0x18790, symSize: 0x24 }
  - { offset: 0x45D5C, size: 0x8, addend: 0x0, symName: '__ZN4pyo35impl_16extract_argument19FunctionDescription36find_keyword_parameter_in_positional28_$u7b$$u7b$closure$u7d$$u7d$17hcbd7be93687ebfb0E', symObjAddr: 0x1114, symBinAddr: 0x187B4, symSize: 0x48 }
  - { offset: 0x45DBC, size: 0x8, addend: 0x0, symName: '__ZN4pyo35impl_16extract_argument19FunctionDescription38find_keyword_parameter_in_keyword_only28_$u7b$$u7b$closure$u7d$$u7d$17hda86ee36a19824c9E', symObjAddr: 0x115C, symBinAddr: 0x187FC, symSize: 0x38 }
  - { offset: 0x45E03, size: 0x8, addend: 0x0, symName: '__ZN80_$LT$T$u20$as$u20$pyo3..impl_..extract_argument..PyFunctionArgument$LT$_$GT$$GT$7extract17h823ff613af8dba64E', symObjAddr: 0x1194, symBinAddr: 0x18834, symSize: 0x28 }
  - { offset: 0x468B0, size: 0x8, addend: 0x0, symName: __ZN4pyo35impl_16extract_argument19FunctionDescription13handle_kwargs17h66200c5638b021feE, symObjAddr: 0x424, symBinAddr: 0x17AC4, symSize: 0x6F4 }
  - { offset: 0x46AC9, size: 0x8, addend: 0x0, symName: __ZN4pyo35impl_16extract_argument19FunctionDescription26extract_arguments_fastcall17h399c7b88ba62d04fE, symObjAddr: 0xB18, symBinAddr: 0x181B8, symSize: 0x5D8 }
  - { offset: 0x4704F, size: 0x8, addend: 0x0, symName: __ZN7rdx_ast14AttributeValue4Bool17hd0e551b95be49adeE, symObjAddr: 0x0, symBinAddr: 0x1885C, symSize: 0x20 }
  - { offset: 0x4706B, size: 0x8, addend: 0x0, symName: __ZN7rdx_ast14AttributeValue4Bool17hd0e551b95be49adeE, symObjAddr: 0x0, symBinAddr: 0x1885C, symSize: 0x20 }
  - { offset: 0x47099, size: 0x8, addend: 0x0, symName: __ZN7rdx_ast14AttributeValue5Array17h405276b39f22aa36E, symObjAddr: 0x20, symBinAddr: 0x1887C, symSize: 0x24 }
  - { offset: 0x470C7, size: 0x8, addend: 0x0, symName: __ZN7rdx_ast14AttributeValue6Number17h039e50c37e2f40a5E, symObjAddr: 0x44, symBinAddr: 0x188A0, symSize: 0x1C }
  - { offset: 0x470F5, size: 0x8, addend: 0x0, symName: __ZN7rdx_ast14AttributeValue6Object17h5d06834f13a1fadfE, symObjAddr: 0x60, symBinAddr: 0x188BC, symSize: 0x24 }
  - { offset: 0x47123, size: 0x8, addend: 0x0, symName: __ZN7rdx_ast14AttributeValue6String17h20613be4e5215e41E, symObjAddr: 0x84, symBinAddr: 0x188E0, symSize: 0x20 }
  - { offset: 0x47151, size: 0x8, addend: 0x0, symName: __ZN7rdx_ast14AttributeValue8Variable17ha073c879e67568edE, symObjAddr: 0xA4, symBinAddr: 0x18900, symSize: 0x30 }
  - { offset: 0x47186, size: 0x8, addend: 0x0, symName: __ZN7rdx_ast4Node10Blockquote17h2b2550bfe23e3b38E, symObjAddr: 0xD4, symBinAddr: 0x18930, symSize: 0x3C }
  - { offset: 0x471B5, size: 0x8, addend: 0x0, symName: __ZN7rdx_ast4Node10CodeInline17h742554cf521dca81E, symObjAddr: 0x110, symBinAddr: 0x1896C, symSize: 0x3C }
  - { offset: 0x471E4, size: 0x8, addend: 0x0, symName: __ZN7rdx_ast4Node10MathInline17hbf4342d4039ff2f7E, symObjAddr: 0x14C, symBinAddr: 0x189A8, symSize: 0x40 }
  - { offset: 0x47213, size: 0x8, addend: 0x0, symName: __ZN7rdx_ast4Node11MathDisplay17h0a85493c9dbafeaeE, symObjAddr: 0x18C, symBinAddr: 0x189E8, symSize: 0x40 }
  - { offset: 0x47242, size: 0x8, addend: 0x0, symName: __ZN7rdx_ast4Node13Strikethrough17h139f6c076eb9528eE, symObjAddr: 0x1CC, symBinAddr: 0x18A28, symSize: 0x40 }
  - { offset: 0x47271, size: 0x8, addend: 0x0, symName: __ZN7rdx_ast4Node13ThematicBreak17hd284fed0fa202058E, symObjAddr: 0x20C, symBinAddr: 0x18A68, symSize: 0x40 }
  - { offset: 0x472A0, size: 0x8, addend: 0x0, symName: __ZN7rdx_ast4Node17FootnoteReference17h4b4c218264cba88aE, symObjAddr: 0x24C, symBinAddr: 0x18AA8, symSize: 0x40 }
  - { offset: 0x472CF, size: 0x8, addend: 0x0, symName: __ZN7rdx_ast4Node18FootnoteDefinition17h58c59d40b6912ebeE, symObjAddr: 0x28C, symBinAddr: 0x18AE8, symSize: 0x40 }
  - { offset: 0x472FE, size: 0x8, addend: 0x0, symName: __ZN7rdx_ast4Node4Html17h7638516692c06c22E, symObjAddr: 0x2CC, symBinAddr: 0x18B28, symSize: 0x40 }
  - { offset: 0x4732D, size: 0x8, addend: 0x0, symName: __ZN7rdx_ast4Node4Link17h45c82675db780b60E, symObjAddr: 0x30C, symBinAddr: 0x18B68, symSize: 0x40 }
  - { offset: 0x4735C, size: 0x8, addend: 0x0, symName: __ZN7rdx_ast4Node4List17h72e1edd7c030d264E, symObjAddr: 0x34C, symBinAddr: 0x18BA8, symSize: 0x40 }
  - { offset: 0x4738B, size: 0x8, addend: 0x0, symName: __ZN7rdx_ast4Node4Text17h689c5854237481e1E, symObjAddr: 0x38C, symBinAddr: 0x18BE8, symSize: 0x3C }
  - { offset: 0x473BA, size: 0x8, addend: 0x0, symName: __ZN7rdx_ast4Node5Error17haf6e253b14409bc7E, symObjAddr: 0x3C8, symBinAddr: 0x18C24, symSize: 0x40 }
  - { offset: 0x473E9, size: 0x8, addend: 0x0, symName: __ZN7rdx_ast4Node5Image17h0a3e0e9be6658e94E, symObjAddr: 0x408, symBinAddr: 0x18C64, symSize: 0x30 }
  - { offset: 0x47418, size: 0x8, addend: 0x0, symName: __ZN7rdx_ast4Node5Table17h79d375ea3616a2daE, symObjAddr: 0x438, symBinAddr: 0x18C94, symSize: 0x40 }
  - { offset: 0x47447, size: 0x8, addend: 0x0, symName: __ZN7rdx_ast4Node6Strong17hc9e57f75e71f8260E, symObjAddr: 0x478, symBinAddr: 0x18CD4, symSize: 0x40 }
  - { offset: 0x47476, size: 0x8, addend: 0x0, symName: __ZN7rdx_ast4Node7Heading17hddb88beff95a7be8E, symObjAddr: 0x4B8, symBinAddr: 0x18D14, symSize: 0x40 }
  - { offset: 0x474A5, size: 0x8, addend: 0x0, symName: __ZN7rdx_ast4Node8Emphasis17hf7a1b42804c2da9dE, symObjAddr: 0x4F8, symBinAddr: 0x18D54, symSize: 0x3C }
  - { offset: 0x474D4, size: 0x8, addend: 0x0, symName: __ZN7rdx_ast4Node8ListItem17hbf8547f86f87d3f9E, symObjAddr: 0x534, symBinAddr: 0x18D90, symSize: 0x40 }
  - { offset: 0x47503, size: 0x8, addend: 0x0, symName: __ZN7rdx_ast4Node8TableRow17hf205907437733ac5E, symObjAddr: 0x574, symBinAddr: 0x18DD0, symSize: 0x40 }
  - { offset: 0x47532, size: 0x8, addend: 0x0, symName: __ZN7rdx_ast4Node8Variable17haa55563635026c06E, symObjAddr: 0x5B4, symBinAddr: 0x18E10, symSize: 0x40 }
  - { offset: 0x47561, size: 0x8, addend: 0x0, symName: __ZN7rdx_ast4Node9CodeBlock17he472dcebf92fc194E, symObjAddr: 0x5F4, symBinAddr: 0x18E50, symSize: 0x40 }
  - { offset: 0x47590, size: 0x8, addend: 0x0, symName: __ZN7rdx_ast4Node9Component17hdd91583c8cd7755aE, symObjAddr: 0x634, symBinAddr: 0x18E90, symSize: 0x40 }
  - { offset: 0x475BF, size: 0x8, addend: 0x0, symName: __ZN7rdx_ast4Node9Paragraph17h61e49db67ef73679E, symObjAddr: 0x674, symBinAddr: 0x18ED0, symSize: 0x3C }
  - { offset: 0x475EE, size: 0x8, addend: 0x0, symName: __ZN7rdx_ast4Node9TableCell17h689ab1d383cde10cE, symObjAddr: 0x6B0, symBinAddr: 0x18F0C, symSize: 0x40 }
  - { offset: 0x4885E, size: 0x8, addend: 0x0, symName: __ZN4_rdx9query_all9_PYO3_DEF17he057d2af30b9b4cdE, symObjAddr: 0x68, symBinAddr: 0x3A43E8, symSize: 0x0 }
  - { offset: 0x49DEA, size: 0x8, addend: 0x0, symName: __ZN4core4char7methods15encode_utf8_raw17hfc685555b176d274E, symObjAddr: 0x0, symBinAddr: 0x18F4C, symSize: 0x100 }
  - { offset: 0x49E58, size: 0x8, addend: 0x0, symName: __ZN4core4char7methods15encode_utf8_raw17hfc685555b176d274E, symObjAddr: 0x0, symBinAddr: 0x18F4C, symSize: 0x100 }
  - { offset: 0x49F79, size: 0x8, addend: 0x0, symName: '__ZN4core4char7methods22_$LT$impl$u20$char$GT$11encode_utf817h0ebe11bf8fc8b6f2E', symObjAddr: 0x100, symBinAddr: 0x1904C, symSize: 0x38 }
  - { offset: 0x49FD5, size: 0x8, addend: 0x0, symName: __ZN4core4char7methods25encode_utf8_raw_unchecked17h538c21231abe9cdaE, symObjAddr: 0x138, symBinAddr: 0x19084, symSize: 0x188 }
  - { offset: 0x4A337, size: 0x8, addend: 0x0, symName: __ZN4pyo33err5PyErr10from_state17ha49b5bb556d3cb34E, symObjAddr: 0x0, symBinAddr: 0x1920C, symSize: 0x30 }
  - { offset: 0x4BF8B, size: 0x8, addend: 0x0, symName: __ZN4pyo33err5PyErr10from_state17ha49b5bb556d3cb34E, symObjAddr: 0x0, symBinAddr: 0x1920C, symSize: 0x30 }
  - { offset: 0x4C01B, size: 0x8, addend: 0x0, symName: __ZN4pyo33err5PyErr5fetch17h8af4558f6f224eb8E, symObjAddr: 0x30, symBinAddr: 0x1923C, symSize: 0x3C }
  - { offset: 0x4C068, size: 0x8, addend: 0x0, symName: __ZN4pyo35impl_10trampoline11module_exec17h6b71b1cd276e8081E, symObjAddr: 0x0, symBinAddr: 0x19278, symSize: 0x34 }
  - { offset: 0x4D4DB, size: 0x8, addend: 0x0, symName: __ZN4pyo35impl_10trampoline11module_exec17h6b71b1cd276e8081E, symObjAddr: 0x0, symBinAddr: 0x19278, symSize: 0x34 }
  - { offset: 0x4DDEA, size: 0x8, addend: 0x0, symName: __ZN10serde_core2de12Deserializer24__deserialize_content_v117h06e15d1565d2fe7dE, symObjAddr: 0x0, symBinAddr: 0x192AC, symSize: 0x28 }
  - { offset: 0x4E1FD, size: 0x8, addend: 0x0, symName: __ZN10serde_core2de12Deserializer24__deserialize_content_v117h06e15d1565d2fe7dE, symObjAddr: 0x0, symBinAddr: 0x192AC, symSize: 0x28 }
  - { offset: 0x4E6C8, size: 0x8, addend: 0x0, symName: '__ZN117_$LT$serde..private..de..missing_field..MissingFieldDeserializer$LT$E$GT$$u20$as$u20$serde_core..de..Deserializer$GT$15deserialize_any17h0bbf0975607da2e2E', symObjAddr: 0x28, symBinAddr: 0x192D4, symSize: 0x54 }
  - { offset: 0x4E714, size: 0x8, addend: 0x0, symName: '__ZN117_$LT$serde..private..de..missing_field..MissingFieldDeserializer$LT$E$GT$$u20$as$u20$serde_core..de..Deserializer$GT$15deserialize_any17h238af82e4d973a28E', symObjAddr: 0x7C, symBinAddr: 0x19328, symSize: 0x60 }
  - { offset: 0x4E760, size: 0x8, addend: 0x0, symName: '__ZN117_$LT$serde..private..de..missing_field..MissingFieldDeserializer$LT$E$GT$$u20$as$u20$serde_core..de..Deserializer$GT$15deserialize_any17h368950da463724beE', symObjAddr: 0xDC, symBinAddr: 0x19388, symSize: 0x60 }
  - { offset: 0x4E7AC, size: 0x8, addend: 0x0, symName: '__ZN117_$LT$serde..private..de..missing_field..MissingFieldDeserializer$LT$E$GT$$u20$as$u20$serde_core..de..Deserializer$GT$15deserialize_any17h47c55e71f3b1dc90E', symObjAddr: 0x13C, symBinAddr: 0x193E8, symSize: 0x60 }
  - { offset: 0x4E7F8, size: 0x8, addend: 0x0, symName: '__ZN117_$LT$serde..private..de..missing_field..MissingFieldDeserializer$LT$E$GT$$u20$as$u20$serde_core..de..Deserializer$GT$15deserialize_any17h5f7e039e90b3abc3E', symObjAddr: 0x19C, symBinAddr: 0x19448, symSize: 0x60 }
  - { offset: 0x4E844, size: 0x8, addend: 0x0, symName: '__ZN117_$LT$serde..private..de..missing_field..MissingFieldDeserializer$LT$E$GT$$u20$as$u20$serde_core..de..Deserializer$GT$15deserialize_any17h8da8bad4a6ff74bdE', symObjAddr: 0x1FC, symBinAddr: 0x194A8, symSize: 0x5C }
  - { offset: 0x4E890, size: 0x8, addend: 0x0, symName: '__ZN117_$LT$serde..private..de..missing_field..MissingFieldDeserializer$LT$E$GT$$u20$as$u20$serde_core..de..Deserializer$GT$15deserialize_any17h9514d14e1445526eE', symObjAddr: 0x258, symBinAddr: 0x19504, symSize: 0x60 }
  - { offset: 0x4E8DC, size: 0x8, addend: 0x0, symName: '__ZN117_$LT$serde..private..de..missing_field..MissingFieldDeserializer$LT$E$GT$$u20$as$u20$serde_core..de..Deserializer$GT$15deserialize_any17hb51f81c425755abcE', symObjAddr: 0x2B8, symBinAddr: 0x19564, symSize: 0x60 }
  - { offset: 0x4E928, size: 0x8, addend: 0x0, symName: '__ZN117_$LT$serde..private..de..missing_field..MissingFieldDeserializer$LT$E$GT$$u20$as$u20$serde_core..de..Deserializer$GT$15deserialize_any17hdaee37e187f0aa05E', symObjAddr: 0x318, symBinAddr: 0x195C4, symSize: 0x60 }
  - { offset: 0x4E974, size: 0x8, addend: 0x0, symName: '__ZN117_$LT$serde..private..de..missing_field..MissingFieldDeserializer$LT$E$GT$$u20$as$u20$serde_core..de..Deserializer$GT$15deserialize_any17hea42cc9081201bc5E', symObjAddr: 0x378, symBinAddr: 0x19624, symSize: 0x5C }
  - { offset: 0x4E9C0, size: 0x8, addend: 0x0, symName: '__ZN117_$LT$serde..private..de..missing_field..MissingFieldDeserializer$LT$E$GT$$u20$as$u20$serde_core..de..Deserializer$GT$15deserialize_any17hec8df8e0521cf33eE', symObjAddr: 0x3D4, symBinAddr: 0x19680, symSize: 0x4C }
  - { offset: 0x4EA0C, size: 0x8, addend: 0x0, symName: '__ZN117_$LT$serde..private..de..missing_field..MissingFieldDeserializer$LT$E$GT$$u20$as$u20$serde_core..de..Deserializer$GT$15deserialize_any17hedb427358e36c099E', symObjAddr: 0x420, symBinAddr: 0x196CC, symSize: 0x60 }
  - { offset: 0x4EA58, size: 0x8, addend: 0x0, symName: '__ZN117_$LT$serde..private..de..missing_field..MissingFieldDeserializer$LT$E$GT$$u20$as$u20$serde_core..de..Deserializer$GT$15deserialize_map17h3dbd2c9742022c70E', symObjAddr: 0x480, symBinAddr: 0x1972C, symSize: 0x28 }
  - { offset: 0x4EAA4, size: 0x8, addend: 0x0, symName: '__ZN117_$LT$serde..private..de..missing_field..MissingFieldDeserializer$LT$E$GT$$u20$as$u20$serde_core..de..Deserializer$GT$15deserialize_map17hcbd6e693cf86004fE', symObjAddr: 0x4A8, symBinAddr: 0x19754, symSize: 0x28 }
  - { offset: 0x4EAF0, size: 0x8, addend: 0x0, symName: '__ZN117_$LT$serde..private..de..missing_field..MissingFieldDeserializer$LT$E$GT$$u20$as$u20$serde_core..de..Deserializer$GT$15deserialize_seq17h9002738151ffc717E', symObjAddr: 0x4D0, symBinAddr: 0x1977C, symSize: 0x28 }
  - { offset: 0x4EB3C, size: 0x8, addend: 0x0, symName: '__ZN117_$LT$serde..private..de..missing_field..MissingFieldDeserializer$LT$E$GT$$u20$as$u20$serde_core..de..Deserializer$GT$15deserialize_seq17hd9912f9128f78d81E', symObjAddr: 0x4F8, symBinAddr: 0x197A4, symSize: 0x28 }
  - { offset: 0x4EB88, size: 0x8, addend: 0x0, symName: '__ZN117_$LT$serde..private..de..missing_field..MissingFieldDeserializer$LT$E$GT$$u20$as$u20$serde_core..de..Deserializer$GT$15deserialize_u6417hca1448521d67f1fdE', symObjAddr: 0x520, symBinAddr: 0x197CC, symSize: 0x28 }
  - { offset: 0x4EBD4, size: 0x8, addend: 0x0, symName: '__ZN117_$LT$serde..private..de..missing_field..MissingFieldDeserializer$LT$E$GT$$u20$as$u20$serde_core..de..Deserializer$GT$16deserialize_bool17h2218d69c7ed25526E', symObjAddr: 0x548, symBinAddr: 0x197F4, symSize: 0x28 }
  - { offset: 0x4EC20, size: 0x8, addend: 0x0, symName: '__ZN117_$LT$serde..private..de..missing_field..MissingFieldDeserializer$LT$E$GT$$u20$as$u20$serde_core..de..Deserializer$GT$16deserialize_enum17h9aeb303cb88cb032E', symObjAddr: 0x570, symBinAddr: 0x1981C, symSize: 0x38 }
  - { offset: 0x4EC88, size: 0x8, addend: 0x0, symName: '__ZN117_$LT$serde..private..de..missing_field..MissingFieldDeserializer$LT$E$GT$$u20$as$u20$serde_core..de..Deserializer$GT$16deserialize_enum17hcb99043efbfa007cE', symObjAddr: 0x5A8, symBinAddr: 0x19854, symSize: 0x38 }
  - { offset: 0x4ECF0, size: 0x8, addend: 0x0, symName: '__ZN117_$LT$serde..private..de..missing_field..MissingFieldDeserializer$LT$E$GT$$u20$as$u20$serde_core..de..Deserializer$GT$18deserialize_option17h459c3752cc3cfeb9E', symObjAddr: 0x5E0, symBinAddr: 0x1988C, symSize: 0x24 }
  - { offset: 0x4ED3C, size: 0x8, addend: 0x0, symName: '__ZN117_$LT$serde..private..de..missing_field..MissingFieldDeserializer$LT$E$GT$$u20$as$u20$serde_core..de..Deserializer$GT$18deserialize_option17h81a7ed2fc8db359dE', symObjAddr: 0x604, symBinAddr: 0x198B0, symSize: 0x24 }
  - { offset: 0x4ED88, size: 0x8, addend: 0x0, symName: '__ZN117_$LT$serde..private..de..missing_field..MissingFieldDeserializer$LT$E$GT$$u20$as$u20$serde_core..de..Deserializer$GT$18deserialize_option17hcbc7c16cd1660778E', symObjAddr: 0x628, symBinAddr: 0x198D4, symSize: 0x24 }
  - { offset: 0x4EDD4, size: 0x8, addend: 0x0, symName: '__ZN117_$LT$serde..private..de..missing_field..MissingFieldDeserializer$LT$E$GT$$u20$as$u20$serde_core..de..Deserializer$GT$18deserialize_option17he5d9120b06bddb91E', symObjAddr: 0x64C, symBinAddr: 0x198F8, symSize: 0x24 }
  - { offset: 0x4EE20, size: 0x8, addend: 0x0, symName: '__ZN117_$LT$serde..private..de..missing_field..MissingFieldDeserializer$LT$E$GT$$u20$as$u20$serde_core..de..Deserializer$GT$18deserialize_string17h675ba1d693b25842E', symObjAddr: 0x670, symBinAddr: 0x1991C, symSize: 0x28 }
  - { offset: 0x4EE6C, size: 0x8, addend: 0x0, symName: '__ZN117_$LT$serde..private..de..missing_field..MissingFieldDeserializer$LT$E$GT$$u20$as$u20$serde_core..de..Deserializer$GT$18deserialize_struct17h4251e7b79cb7607fE', symObjAddr: 0x698, symBinAddr: 0x19944, symSize: 0x38 }
  - { offset: 0x4EED4, size: 0x8, addend: 0x0, symName: '__ZN117_$LT$serde..private..de..missing_field..MissingFieldDeserializer$LT$E$GT$$u20$as$u20$serde_core..de..Deserializer$GT$18deserialize_struct17hf4b48491e445f4beE', symObjAddr: 0x6D0, symBinAddr: 0x1997C, symSize: 0x38 }
  - { offset: 0x4EF68, size: 0x8, addend: 0x0, symName: __ZN5serde7private2de13missing_field17h12acaaec9db492b1E, symObjAddr: 0x708, symBinAddr: 0x199B4, symSize: 0x34 }
  - { offset: 0x4EFC3, size: 0x8, addend: 0x0, symName: __ZN5serde7private2de13missing_field17h1cc97db8d3568eb0E, symObjAddr: 0x73C, symBinAddr: 0x199E8, symSize: 0x34 }
  - { offset: 0x4F01E, size: 0x8, addend: 0x0, symName: __ZN5serde7private2de13missing_field17h25ff9b63c92f337cE, symObjAddr: 0x770, symBinAddr: 0x19A1C, symSize: 0x34 }
  - { offset: 0x4F079, size: 0x8, addend: 0x0, symName: __ZN5serde7private2de13missing_field17h3c71b190e6a37dc9E, symObjAddr: 0x7A4, symBinAddr: 0x19A50, symSize: 0x34 }
  - { offset: 0x4F0D4, size: 0x8, addend: 0x0, symName: __ZN5serde7private2de13missing_field17h4f03fa17c36f8f02E, symObjAddr: 0x7D8, symBinAddr: 0x19A84, symSize: 0x34 }
  - { offset: 0x4F12F, size: 0x8, addend: 0x0, symName: __ZN5serde7private2de13missing_field17h8a9ab4257e4166abE, symObjAddr: 0x80C, symBinAddr: 0x19AB8, symSize: 0x34 }
  - { offset: 0x4F18A, size: 0x8, addend: 0x0, symName: __ZN5serde7private2de13missing_field17h8e18797911a7dffeE, symObjAddr: 0x840, symBinAddr: 0x19AEC, symSize: 0x34 }
  - { offset: 0x4F1E5, size: 0x8, addend: 0x0, symName: __ZN5serde7private2de13missing_field17h9b619395e081b05fE, symObjAddr: 0x874, symBinAddr: 0x19B20, symSize: 0x34 }
  - { offset: 0x4F240, size: 0x8, addend: 0x0, symName: __ZN5serde7private2de13missing_field17h9bb3f073865f4f6dE, symObjAddr: 0x8A8, symBinAddr: 0x19B54, symSize: 0x34 }
  - { offset: 0x4F29B, size: 0x8, addend: 0x0, symName: __ZN5serde7private2de13missing_field17hadf2ec5c9359402eE, symObjAddr: 0x8DC, symBinAddr: 0x19B88, symSize: 0x34 }
  - { offset: 0x4F2F6, size: 0x8, addend: 0x0, symName: __ZN5serde7private2de13missing_field17hb8bad566beb584e6E, symObjAddr: 0x910, symBinAddr: 0x19BBC, symSize: 0x34 }
  - { offset: 0x4F351, size: 0x8, addend: 0x0, symName: __ZN5serde7private2de13missing_field17he08565a3d6dc3df0E, symObjAddr: 0x944, symBinAddr: 0x19BF0, symSize: 0x34 }
  - { offset: 0x4F3AC, size: 0x8, addend: 0x0, symName: __ZN5serde7private2de13missing_field17he6c1ba20d6f46f17E, symObjAddr: 0x978, symBinAddr: 0x19C24, symSize: 0x34 }
  - { offset: 0x4F407, size: 0x8, addend: 0x0, symName: __ZN5serde7private2de13missing_field17heab2a0aad35cb090E, symObjAddr: 0x9AC, symBinAddr: 0x19C58, symSize: 0x34 }
  - { offset: 0x4F462, size: 0x8, addend: 0x0, symName: __ZN5serde7private2de13missing_field17hf5f13365356e640cE, symObjAddr: 0x9E0, symBinAddr: 0x19C8C, symSize: 0x34 }
  - { offset: 0x4F4BD, size: 0x8, addend: 0x0, symName: __ZN5serde7private2de13missing_field17hf82ea6836616f6bcE, symObjAddr: 0xA14, symBinAddr: 0x19CC0, symSize: 0x34 }
  - { offset: 0x51951, size: 0x8, addend: 0x0, symName: '__ZN4core5slice29_$LT$impl$u20$$u5b$T$u5d$$GT$8is_empty17h7328da2ac886190cE', symObjAddr: 0x0, symBinAddr: 0x19CF4, symSize: 0x1C }
  - { offset: 0x5196D, size: 0x8, addend: 0x0, symName: '__ZN4core5slice29_$LT$impl$u20$$u5b$T$u5d$$GT$8is_empty17h7328da2ac886190cE', symObjAddr: 0x0, symBinAddr: 0x19CF4, symSize: 0x1C }
  - { offset: 0x51A26, size: 0x8, addend: 0x0, symName: __ZN10serde_core2de7Visitor10visit_bool17h1ce5dba0befbad21E, symObjAddr: 0x0, symBinAddr: 0x19D10, symSize: 0x74 }
  - { offset: 0x51A6F, size: 0x8, addend: 0x0, symName: '__ZN145_$LT$$LT$serde_json..number..Number$u20$as$u20$serde_core..de..Deserialize$GT$..deserialize..NumberVisitor$u20$as$u20$serde_core..de..Visitor$GT$10visit_i12817hbda2e26b91151dd6E', symObjAddr: 0x628, symBinAddr: 0x1A338, symSize: 0x40 }
  - { offset: 0x51AC6, size: 0x8, addend: 0x0, symName: '__ZN145_$LT$$LT$serde_json..number..Number$u20$as$u20$serde_core..de..Deserialize$GT$..deserialize..NumberVisitor$u20$as$u20$serde_core..de..Visitor$GT$10visit_i12828_$u7b$$u7b$closure$u7d$$u7d$17h191cd642a38663d3E', symObjAddr: 0x668, symBinAddr: 0x1A378, symSize: 0x2C }
  - { offset: 0x51B01, size: 0x8, addend: 0x0, symName: '__ZN145_$LT$$LT$serde_json..number..Number$u20$as$u20$serde_core..de..Deserialize$GT$..deserialize..NumberVisitor$u20$as$u20$serde_core..de..Visitor$GT$10visit_u12817h8f9799c1df77e1d5E', symObjAddr: 0x694, symBinAddr: 0x1A3A4, symSize: 0x40 }
  - { offset: 0x51B58, size: 0x8, addend: 0x0, symName: '__ZN145_$LT$$LT$serde_json..number..Number$u20$as$u20$serde_core..de..Deserialize$GT$..deserialize..NumberVisitor$u20$as$u20$serde_core..de..Visitor$GT$10visit_u12828_$u7b$$u7b$closure$u7d$$u7d$17h403fa1236b9c2ba5E', symObjAddr: 0x6D4, symBinAddr: 0x1A3E4, symSize: 0x2C }
  - { offset: 0x51B93, size: 0x8, addend: 0x0, symName: '__ZN145_$LT$$LT$serde_json..number..Number$u20$as$u20$serde_core..de..Deserialize$GT$..deserialize..NumberVisitor$u20$as$u20$serde_core..de..Visitor$GT$9visit_f6417h72317e087af1c7d2E', symObjAddr: 0x700, symBinAddr: 0x1A410, symSize: 0x38 }
  - { offset: 0x51BEA, size: 0x8, addend: 0x0, symName: '__ZN145_$LT$$LT$serde_json..number..Number$u20$as$u20$serde_core..de..Deserialize$GT$..deserialize..NumberVisitor$u20$as$u20$serde_core..de..Visitor$GT$9visit_f6428_$u7b$$u7b$closure$u7d$$u7d$17h7e42a7b6e32d9131E', symObjAddr: 0x738, symBinAddr: 0x1A448, symSize: 0x2C }
  - { offset: 0x51C25, size: 0x8, addend: 0x0, symName: '__ZN145_$LT$$LT$serde_json..number..Number$u20$as$u20$serde_core..de..Deserialize$GT$..deserialize..NumberVisitor$u20$as$u20$serde_core..de..Visitor$GT$9visit_i6417hadcce721d70e6563E', symObjAddr: 0x764, symBinAddr: 0x1A474, symSize: 0x3C }
  - { offset: 0x51C77, size: 0x8, addend: 0x0, symName: '__ZN145_$LT$$LT$serde_json..number..Number$u20$as$u20$serde_core..de..Deserialize$GT$..deserialize..NumberVisitor$u20$as$u20$serde_core..de..Visitor$GT$9visit_u6417h9e0ae5b6c3fe08dcE', symObjAddr: 0x7A0, symBinAddr: 0x1A4B0, symSize: 0x3C }
  - { offset: 0x51CCB, size: 0x8, addend: 0x0, symName: '__ZN74_$LT$serde_json..number..Number$u20$as$u20$serde_core..de..Deserialize$GT$11deserialize17h4d6b14fd953ffbd0E', symObjAddr: 0x940, symBinAddr: 0x1A650, symSize: 0x28 }
  - { offset: 0x51D02, size: 0x8, addend: 0x0, symName: '__ZN74_$LT$serde_json..number..Number$u20$as$u20$serde_core..de..Deserialize$GT$11deserialize17h699919453d9ff97dE', symObjAddr: 0x968, symBinAddr: 0x1A678, symSize: 0x24 }
  - { offset: 0x51D39, size: 0x8, addend: 0x0, symName: '__ZN74_$LT$serde_json..number..Number$u20$as$u20$serde_core..de..Deserialize$GT$11deserialize17h8aaaa6a0ffb05a67E', symObjAddr: 0x98C, symBinAddr: 0x1A69C, symSize: 0x28 }
  - { offset: 0x51D76, size: 0x8, addend: 0x0, symName: '__ZN73_$LT$serde_json..number..Number$u20$as$u20$serde_core..ser..Serialize$GT$9serialize17h90c178d116e5fb11E', symObjAddr: 0x808, symBinAddr: 0x1A518, symSize: 0xA4 }
  - { offset: 0x51E16, size: 0x8, addend: 0x0, symName: '__ZN73_$LT$serde_json..number..Number$u20$as$u20$serde_core..ser..Serialize$GT$9serialize17hee702a927d514ab0E', symObjAddr: 0x8AC, symBinAddr: 0x1A5BC, symSize: 0x94 }
  - { offset: 0x51EBC, size: 0x8, addend: 0x0, symName: '__ZN75_$LT$serde_json..number..Number$u20$as$u20$serde_core..de..Deserializer$GT$15deserialize_any17h15d37782db710428E', symObjAddr: 0x9B4, symBinAddr: 0x1A6C4, symSize: 0x9C }
  - { offset: 0x51F5E, size: 0x8, addend: 0x0, symName: '__ZN75_$LT$serde_json..number..Number$u20$as$u20$serde_core..de..Deserializer$GT$15deserialize_any17h2ce06c094c3605cfE', symObjAddr: 0xA50, symBinAddr: 0x1A760, symSize: 0x8C }
  - { offset: 0x51FFF, size: 0x8, addend: 0x0, symName: '__ZN75_$LT$serde_json..number..Number$u20$as$u20$serde_core..de..Deserializer$GT$15deserialize_any17h491630b859387035E', symObjAddr: 0xADC, symBinAddr: 0x1A7EC, symSize: 0x9C }
  - { offset: 0x520A0, size: 0x8, addend: 0x0, symName: '__ZN75_$LT$serde_json..number..Number$u20$as$u20$serde_core..de..Deserializer$GT$15deserialize_any17hd4df4f9c7de4c7ecE', symObjAddr: 0xB78, symBinAddr: 0x1A888, symSize: 0x8C }
  - { offset: 0x546E9, size: 0x8, addend: 0x0, symName: __ZN10serde_core2de7Visitor10visit_bool17h1ce5dba0befbad21E, symObjAddr: 0x0, symBinAddr: 0x19D10, symSize: 0x74 }
  - { offset: 0x54738, size: 0x8, addend: 0x0, symName: __ZN10serde_core2de7Visitor10visit_char17hed592ebd5ff78e40E, symObjAddr: 0x74, symBinAddr: 0x19D84, symSize: 0x90 }
  - { offset: 0x54787, size: 0x8, addend: 0x0, symName: __ZN10serde_core2de7Visitor10visit_none17h9a00bbc7b2b7f67aE, symObjAddr: 0x104, symBinAddr: 0x19E14, symSize: 0x6C }
  - { offset: 0x547C7, size: 0x8, addend: 0x0, symName: __ZN10serde_core2de7Visitor10visit_some17h12a5e6a633d14d78E, symObjAddr: 0x170, symBinAddr: 0x19E80, symSize: 0x78 }
  - { offset: 0x54816, size: 0x8, addend: 0x0, symName: __ZN10serde_core2de7Visitor10visit_unit17h4143b2c14ad0335cE, symObjAddr: 0x1E8, symBinAddr: 0x19EF8, symSize: 0x6C }
  - { offset: 0x54856, size: 0x8, addend: 0x0, symName: __ZN10serde_core2de7Visitor11visit_bytes17h5e96948c73223ab7E, symObjAddr: 0x254, symBinAddr: 0x19F64, symSize: 0x84 }
  - { offset: 0x548A5, size: 0x8, addend: 0x0, symName: __ZN10serde_core2de7Visitor18visit_borrowed_str17h72439d2f957a8681E, symObjAddr: 0x2D8, symBinAddr: 0x19FE8, symSize: 0x28 }
  - { offset: 0x548F4, size: 0x8, addend: 0x0, symName: __ZN10serde_core2de7Visitor20visit_borrowed_bytes17h08617b2646222315E, symObjAddr: 0x300, symBinAddr: 0x1A010, symSize: 0x28 }
  - { offset: 0x54943, size: 0x8, addend: 0x0, symName: __ZN10serde_core2de7Visitor20visit_newtype_struct17h00b9d35265e0e346E, symObjAddr: 0x328, symBinAddr: 0x1A038, symSize: 0x78 }
  - { offset: 0x54992, size: 0x8, addend: 0x0, symName: __ZN10serde_core2de7Visitor8visit_i817h6d2a01af8ba0539cE, symObjAddr: 0x3A0, symBinAddr: 0x1A0B0, symSize: 0x28 }
  - { offset: 0x549E1, size: 0x8, addend: 0x0, symName: __ZN10serde_core2de7Visitor8visit_u817hd5028a1c64f9c8b9E, symObjAddr: 0x3C8, symBinAddr: 0x1A0D8, symSize: 0x28 }
  - { offset: 0x54A30, size: 0x8, addend: 0x0, symName: __ZN10serde_core2de7Visitor9visit_f3217h9422bd917ca5fd33E, symObjAddr: 0x3F0, symBinAddr: 0x1A100, symSize: 0x24 }
  - { offset: 0x54A7F, size: 0x8, addend: 0x0, symName: __ZN10serde_core2de7Visitor9visit_i1617h2a03c6f0fd215762E, symObjAddr: 0x414, symBinAddr: 0x1A124, symSize: 0x28 }
  - { offset: 0x54ACE, size: 0x8, addend: 0x0, symName: __ZN10serde_core2de7Visitor9visit_i3217hbb1aae45f76b3f6cE, symObjAddr: 0x43C, symBinAddr: 0x1A14C, symSize: 0x28 }
  - { offset: 0x54B1D, size: 0x8, addend: 0x0, symName: __ZN10serde_core2de7Visitor9visit_map17h4573ff1b3bbffec5E, symObjAddr: 0x464, symBinAddr: 0x1A174, symSize: 0x78 }
  - { offset: 0x54B6C, size: 0x8, addend: 0x0, symName: __ZN10serde_core2de7Visitor9visit_seq17h26fa6310ab7af853E, symObjAddr: 0x4DC, symBinAddr: 0x1A1EC, symSize: 0x78 }
  - { offset: 0x54BBB, size: 0x8, addend: 0x0, symName: __ZN10serde_core2de7Visitor9visit_str17ha74657f74e851b00E, symObjAddr: 0x554, symBinAddr: 0x1A264, symSize: 0x84 }
  - { offset: 0x54C0A, size: 0x8, addend: 0x0, symName: __ZN10serde_core2de7Visitor9visit_u1617hdda4536a04c12c6cE, symObjAddr: 0x5D8, symBinAddr: 0x1A2E8, symSize: 0x28 }
  - { offset: 0x54C59, size: 0x8, addend: 0x0, symName: __ZN10serde_core2de7Visitor9visit_u3217h3ad193102060a0faE, symObjAddr: 0x600, symBinAddr: 0x1A310, symSize: 0x28 }
  - { offset: 0x54CAE, size: 0x8, addend: 0x0, symName: '__ZN46_$LT$T$u20$as$u20$serde_core..de..Expected$GT$3fmt17h056817efc192a49aE', symObjAddr: 0x7DC, symBinAddr: 0x1A4EC, symSize: 0x2C }
  - { offset: 0x5606C, size: 0x8, addend: 0x0, symName: __ZN4core4iter6traits8iterator8Iterator3zip17hb190135f23fcb34dE, symObjAddr: 0x0, symBinAddr: 0x1A914, symSize: 0xB4 }
  - { offset: 0x56948, size: 0x8, addend: 0x0, symName: __ZN4core4iter6traits8iterator8Iterator3zip17hb190135f23fcb34dE, symObjAddr: 0x0, symBinAddr: 0x1A914, symSize: 0xB4 }
  - { offset: 0x57A90, size: 0x8, addend: 0x0, symName: '__ZN4core3ptr9const_ptr33_$LT$impl$u20$$BP$const$u20$T$GT$20offset_from_unsigned18precondition_check17h014d2c882bbbdfbaE', symObjAddr: 0x0, symBinAddr: 0x1A9C8, symSize: 0xAC }
  - { offset: 0x57D7A, size: 0x8, addend: 0x0, symName: '__ZN4core3ptr9const_ptr33_$LT$impl$u20$$BP$const$u20$T$GT$20offset_from_unsigned18precondition_check17h014d2c882bbbdfbaE', symObjAddr: 0x0, symBinAddr: 0x1A9C8, symSize: 0xAC }
  - { offset: 0x57E78, size: 0x8, addend: 0x0, symName: '__ZN4core3ptr9const_ptr33_$LT$impl$u20$$BP$const$u20$T$GT$6offset18precondition_check17hc1fcd20ec53912b8E', symObjAddr: 0xAC, symBinAddr: 0x1AA74, symSize: 0x110 }
  - { offset: 0x583FD, size: 0x8, addend: 0x0, symName: __ZN4_rdx12collect_text17h992bbaf2e87e9afbE, symObjAddr: 0x0, symBinAddr: 0x1AB84, symSize: 0x23C }
  - { offset: 0x5A442, size: 0x8, addend: 0x0, symName: __ZN4_rdx12collect_text17h992bbaf2e87e9afbE, symObjAddr: 0x0, symBinAddr: 0x1AB84, symSize: 0x23C }
  - { offset: 0x5A50A, size: 0x8, addend: 0x0, symName: __ZN4_rdx15collect_by_type17he7ffae15e6345a22E, symObjAddr: 0x23C, symBinAddr: 0x1ADC0, symSize: 0xE8 }
  - { offset: 0x5A58D, size: 0x8, addend: 0x0, symName: __ZN4_rdx17node_type_matches17hd074992efbb16cecE, symObjAddr: 0x324, symBinAddr: 0x1AEA8, symSize: 0x598 }
  - { offset: 0x5A5C7, size: 0x8, addend: 0x0, symName: __ZN4_rdx18__pyfunction_parse17h1ca5591114f5b3a9E, symObjAddr: 0x8BC, symBinAddr: 0x1B440, symSize: 0x2B4 }
  - { offset: 0x5A73A, size: 0x8, addend: 0x0, symName: __ZN4_rdx19parse_with_defaults17h17d6f7d62c2dc93eE, symObjAddr: 0xB70, symBinAddr: 0x1B6F4, symSize: 0x16C }
  - { offset: 0x5A7E6, size: 0x8, addend: 0x0, symName: __ZN4_rdx20__pyfunction_version17h67ea96e6cb54eff6E, symObjAddr: 0xCDC, symBinAddr: 0x1B860, symSize: 0x17C }
  - { offset: 0x5A881, size: 0x8, addend: 0x0, symName: __ZN4_rdx21__pyfunction_validate17h143155dc3b60357eE, symObjAddr: 0xE58, symBinAddr: 0x1B9DC, symSize: 0x388 }
  - { offset: 0x5AA29, size: 0x8, addend: 0x0, symName: __ZN4_rdx21parse_with_transforms17h50fff0aa6cc97252E, symObjAddr: 0x11E0, symBinAddr: 0x1BD64, symSize: 0x50C }
  - { offset: 0x5AB8F, size: 0x8, addend: 0x0, symName: __ZN4_rdx22__pyfunction_query_all17hb0256d08ce212e87E, symObjAddr: 0x16EC, symBinAddr: 0x1C270, symSize: 0x38C }
  - { offset: 0x5AD37, size: 0x8, addend: 0x0, symName: __ZN4_rdx25__pyfunction_collect_text17h22195462f95e7875E, symObjAddr: 0x1A78, symBinAddr: 0x1C5FC, symSize: 0x2B8 }
  - { offset: 0x5AEAA, size: 0x8, addend: 0x0, symName: __ZN4_rdx32__pyfunction_parse_with_defaults17h6b22d8a8659faaa3E, symObjAddr: 0x1D30, symBinAddr: 0x1C8B4, symSize: 0x2B4 }
  - { offset: 0x5B01D, size: 0x8, addend: 0x0, symName: __ZN4_rdx34__pyfunction_parse_with_transforms17h32b8ea9fb895925eE, symObjAddr: 0x1FE4, symBinAddr: 0x1CB68, symSize: 0x398 }
  - { offset: 0x5B1C3, size: 0x8, addend: 0x0, symName: __ZN4_rdx4_rdx17hb1655f98a432f07eE, symObjAddr: 0x237C, symBinAddr: 0x1CF00, symSize: 0x5B4 }
  - { offset: 0x5B394, size: 0x8, addend: 0x0, symName: __ZN4_rdx5parse17h3ad8ae827df80985E, symObjAddr: 0x2930, symBinAddr: 0x1D4B4, symSize: 0x16C }
  - { offset: 0x5B440, size: 0x8, addend: 0x0, symName: __ZN4_rdx7version17hf1d73cdfb8167c1fE, symObjAddr: 0x2A9C, symBinAddr: 0x1D620, symSize: 0x24 }
  - { offset: 0x5B45D, size: 0x8, addend: 0x0, symName: __ZN4_rdx8validate17h3a3b50748e53066cE, symObjAddr: 0x2AC0, symBinAddr: 0x1D644, symSize: 0x55C }
  - { offset: 0x5B65E, size: 0x8, addend: 0x0, symName: __ZN4_rdx9query_all17hc1912d96b3274f5aE, symObjAddr: 0x301C, symBinAddr: 0x1DBA0, symSize: 0x368 }
  - { offset: 0x5D529, size: 0x8, addend: 0x0, symName: '__ZN4core3ptr8non_null16NonNull$LT$T$GT$20offset_from_unsigned17h4317c2a2e8af389dE', symObjAddr: 0x0, symBinAddr: 0x1DF08, symSize: 0x7C }
  - { offset: 0x5E03A, size: 0x8, addend: 0x0, symName: '__ZN90_$LT$core..ptr..non_null..NonNull$LT$T$GT$$u20$as$u20$core..convert..From$LT$$RF$T$GT$$GT$4from17h5c2c8eee67aeb6a0E', symObjAddr: 0x218, symBinAddr: 0x1E120, symSize: 0x14 }
  - { offset: 0x5FE22, size: 0x8, addend: 0x0, symName: '__ZN4core3ptr8non_null16NonNull$LT$T$GT$20offset_from_unsigned17h4317c2a2e8af389dE', symObjAddr: 0x0, symBinAddr: 0x1DF08, symSize: 0x7C }
  - { offset: 0x5FF2C, size: 0x8, addend: 0x0, symName: '__ZN4core3ptr8non_null16NonNull$LT$T$GT$20offset_from_unsigned17h905ad08d6d0c1dd1E', symObjAddr: 0x7C, symBinAddr: 0x1DF84, symSize: 0x7C }
  - { offset: 0x60612, size: 0x8, addend: 0x0, symName: '__ZN4core3ptr8non_null16NonNull$LT$T$GT$20offset_from_unsigned17h97177511773f0817E', symObjAddr: 0xF8, symBinAddr: 0x1E000, symSize: 0x7C }
  - { offset: 0x6071C, size: 0x8, addend: 0x0, symName: '__ZN4core3ptr8non_null16NonNull$LT$T$GT$20offset_from_unsigned17hcc62ff1a2d9577f0E', symObjAddr: 0x174, symBinAddr: 0x1E07C, symSize: 0x7C }
  - { offset: 0x607FD, size: 0x8, addend: 0x0, symName: '__ZN4core3ptr8non_null16NonNull$LT$T$GT$4cast17haeb24905796aa035E', symObjAddr: 0x1F0, symBinAddr: 0x1E0F8, symSize: 0x14 }
  - { offset: 0x60832, size: 0x8, addend: 0x0, symName: '__ZN4core3ptr8non_null16NonNull$LT$T$GT$4cast17hebf33bdb7291679dE', symObjAddr: 0x204, symBinAddr: 0x1E10C, symSize: 0x14 }
  - { offset: 0x60892, size: 0x8, addend: 0x0, symName: __ZN4pyo35impl_10trampoline32fastcall_cfunction_with_keywords5inner17h5b783fe7208ceb5bE, symObjAddr: 0x0, symBinAddr: 0x1E134, symSize: 0x5C }
  - { offset: 0x61CCE, size: 0x8, addend: 0x0, symName: __ZN4pyo35impl_10trampoline32fastcall_cfunction_with_keywords5inner17h5b783fe7208ceb5bE, symObjAddr: 0x0, symBinAddr: 0x1E134, symSize: 0x5C }
  - { offset: 0x625A0, size: 0x8, addend: 0x0, symName: __ZN10serde_core2de9MapAccess10next_entry17h0d05c22941a77623E, symObjAddr: 0x0, symBinAddr: 0x1E190, symSize: 0x24 }
  - { offset: 0x64506, size: 0x8, addend: 0x0, symName: __ZN10serde_core2de9MapAccess10next_entry17h0d05c22941a77623E, symObjAddr: 0x0, symBinAddr: 0x1E190, symSize: 0x24 }
  - { offset: 0x6454F, size: 0x8, addend: 0x0, symName: __ZN10serde_core2de9MapAccess10next_entry17hd4517553e21bd349E, symObjAddr: 0x24, symBinAddr: 0x1E1B4, symSize: 0x24 }
  - { offset: 0x64598, size: 0x8, addend: 0x0, symName: __ZN10serde_core2de9MapAccess10next_value17h1f243b30d2b61893E, symObjAddr: 0x48, symBinAddr: 0x1E1D8, symSize: 0x24 }
  - { offset: 0x645D8, size: 0x8, addend: 0x0, symName: __ZN10serde_core2de9MapAccess10next_value17hd2b492e558cf78fcE, symObjAddr: 0x6C, symBinAddr: 0x1E1FC, symSize: 0x24 }
  - { offset: 0x64618, size: 0x8, addend: 0x0, symName: __ZN10serde_core2de9MapAccess15next_entry_seed17h72f991416ac053e4E, symObjAddr: 0x90, symBinAddr: 0x1E220, symSize: 0x20C }
  - { offset: 0x646EF, size: 0x8, addend: 0x0, symName: __ZN10serde_core2de9MapAccess15next_entry_seed17h9133ed55d8f56b75E, symObjAddr: 0x29C, symBinAddr: 0x1E42C, symSize: 0x20C }
  - { offset: 0x647CC, size: 0x8, addend: 0x0, symName: __ZN10serde_core2de9SeqAccess12next_element17hbcb6de8011282edeE, symObjAddr: 0x4A8, symBinAddr: 0x1E638, symSize: 0x24 }
  - { offset: 0x6480C, size: 0x8, addend: 0x0, symName: __ZN10serde_core2de9SeqAccess12next_element17hc83af3fb5e1760b6E, symObjAddr: 0x4CC, symBinAddr: 0x1E65C, symSize: 0x24 }
  - { offset: 0x6486C, size: 0x8, addend: 0x0, symName: '__ZN76_$LT$pythonize..de..PyMappingAccess$u20$as$u20$serde_core..de..MapAccess$GT$13next_key_seed17h73232a7713ffb259E', symObjAddr: 0x4F0, symBinAddr: 0x1E680, symSize: 0x1F4 }
  - { offset: 0x64905, size: 0x8, addend: 0x0, symName: '__ZN76_$LT$pythonize..de..PyMappingAccess$u20$as$u20$serde_core..de..MapAccess$GT$13next_key_seed17h865b4c1d93919db3E', symObjAddr: 0x6E4, symBinAddr: 0x1E874, symSize: 0x1F4 }
  - { offset: 0x6499E, size: 0x8, addend: 0x0, symName: '__ZN76_$LT$pythonize..de..PyMappingAccess$u20$as$u20$serde_core..de..MapAccess$GT$15next_value_seed17hea4062d2b3537d53E', symObjAddr: 0x8D8, symBinAddr: 0x1EA68, symSize: 0x1A0 }
  - { offset: 0x64A3D, size: 0x8, addend: 0x0, symName: '__ZN76_$LT$pythonize..de..PySetAsSequence$u20$as$u20$serde_core..de..SeqAccess$GT$17next_element_seed17h27a00fd961f98558E', symObjAddr: 0xA78, symBinAddr: 0x1EC08, symSize: 0x200 }
  - { offset: 0x64ADD, size: 0x8, addend: 0x0, symName: '__ZN77_$LT$pythonize..de..PySequenceAccess$u20$as$u20$serde_core..de..SeqAccess$GT$17next_element_seed17hfc700fbe3706e562E', symObjAddr: 0xC78, symBinAddr: 0x1EE08, symSize: 0x204 }
  - { offset: 0x64B7C, size: 0x8, addend: 0x0, symName: '__ZN78_$LT$pythonize..de..PyDataclassAccess$u20$as$u20$serde_core..de..MapAccess$GT$13next_key_seed17h7d3bad34e4f417afE', symObjAddr: 0xE7C, symBinAddr: 0x1F00C, symSize: 0x1F4 }
  - { offset: 0x64C15, size: 0x8, addend: 0x0, symName: '__ZN78_$LT$pythonize..de..PyDataclassAccess$u20$as$u20$serde_core..de..MapAccess$GT$13next_key_seed17hf1e81d41a1d88e42E', symObjAddr: 0x1070, symBinAddr: 0x1F200, symSize: 0x1F4 }
  - { offset: 0x64CAE, size: 0x8, addend: 0x0, symName: '__ZN78_$LT$pythonize..de..PyDataclassAccess$u20$as$u20$serde_core..de..MapAccess$GT$15next_value_seed17hb429079ae6db485dE', symObjAddr: 0x1264, symBinAddr: 0x1F3F4, symSize: 0x2E0 }
  - { offset: 0x64DA9, size: 0x8, addend: 0x0, symName: '__ZN78_$LT$pythonize..de..PyDataclassAccess$u20$as$u20$serde_core..de..MapAccess$GT$15next_value_seed28_$u7b$$u7b$closure$u7d$$u7d$17h5301dbf25ffc1adeE', symObjAddr: 0x1544, symBinAddr: 0x1F6D4, symSize: 0x30 }
  - { offset: 0x64DE8, size: 0x8, addend: 0x0, symName: '__ZN88_$LT$$RF$mut$u20$pythonize..de..Depythonizer$u20$as$u20$serde_core..de..Deserializer$GT$15deserialize_any17hfdfbc32a6f3cec3aE', symObjAddr: 0x1574, symBinAddr: 0x1F704, symSize: 0x654 }
  - { offset: 0x64EBB, size: 0x8, addend: 0x0, symName: '__ZN88_$LT$$RF$mut$u20$pythonize..de..Depythonizer$u20$as$u20$serde_core..de..Deserializer$GT$15deserialize_any28_$u7b$$u7b$closure$u7d$$u7d$17h65a0d115de3d168dE', symObjAddr: 0x1BC8, symBinAddr: 0x1FD58, symSize: 0x6C }
  - { offset: 0x64EFF, size: 0x8, addend: 0x0, symName: '__ZN88_$LT$$RF$mut$u20$pythonize..de..Depythonizer$u20$as$u20$serde_core..de..Deserializer$GT$15deserialize_f6417h6539d44fd078e601E', symObjAddr: 0x1C34, symBinAddr: 0x1FDC4, symSize: 0xFC }
  - { offset: 0x64F60, size: 0x8, addend: 0x0, symName: '__ZN88_$LT$$RF$mut$u20$pythonize..de..Depythonizer$u20$as$u20$serde_core..de..Deserializer$GT$15deserialize_map17h6da04b2a79693117E', symObjAddr: 0x1D30, symBinAddr: 0x1FEC0, symSize: 0x1F0 }
  - { offset: 0x64FF1, size: 0x8, addend: 0x0, symName: '__ZN88_$LT$$RF$mut$u20$pythonize..de..Depythonizer$u20$as$u20$serde_core..de..Deserializer$GT$15deserialize_seq17hbf378eca6ab0e09dE', symObjAddr: 0x1F20, symBinAddr: 0x200B0, symSize: 0x1BC }
  - { offset: 0x65083, size: 0x8, addend: 0x0, symName: '__ZN88_$LT$$RF$mut$u20$pythonize..de..Depythonizer$u20$as$u20$serde_core..de..Deserializer$GT$15deserialize_str17h1e1a26108d8d5ffaE', symObjAddr: 0x20DC, symBinAddr: 0x2026C, symSize: 0x204 }
  - { offset: 0x6512D, size: 0x8, addend: 0x0, symName: '__ZN88_$LT$$RF$mut$u20$pythonize..de..Depythonizer$u20$as$u20$serde_core..de..Deserializer$GT$15deserialize_str17h364f0e90105effefE', symObjAddr: 0x22E0, symBinAddr: 0x20470, symSize: 0x204 }
  - { offset: 0x651D7, size: 0x8, addend: 0x0, symName: '__ZN88_$LT$$RF$mut$u20$pythonize..de..Depythonizer$u20$as$u20$serde_core..de..Deserializer$GT$15deserialize_str17ha9e32129ec15d62aE', symObjAddr: 0x24E4, symBinAddr: 0x20674, symSize: 0x204 }
  - { offset: 0x65281, size: 0x8, addend: 0x0, symName: '__ZN88_$LT$$RF$mut$u20$pythonize..de..Depythonizer$u20$as$u20$serde_core..de..Deserializer$GT$16deserialize_bool17h943784f5bd77c84fE', symObjAddr: 0x26E8, symBinAddr: 0x20878, symSize: 0x108 }
  - { offset: 0x652E2, size: 0x8, addend: 0x0, symName: '__ZN88_$LT$$RF$mut$u20$pythonize..de..Depythonizer$u20$as$u20$serde_core..de..Deserializer$GT$16deserialize_unit17hd4b49645a95863d1E', symObjAddr: 0x27F0, symBinAddr: 0x20980, symSize: 0xCC }
  - { offset: 0x65325, size: 0x8, addend: 0x0, symName: '__ZN88_$LT$$RF$mut$u20$pythonize..de..Depythonizer$u20$as$u20$serde_core..de..Deserializer$GT$17deserialize_bytes17h779d3ecccbe19b2fE', symObjAddr: 0x28BC, symBinAddr: 0x20A4C, symSize: 0x11C }
  - { offset: 0x6539A, size: 0x8, addend: 0x0, symName: '__ZN88_$LT$$RF$mut$u20$pythonize..de..Depythonizer$u20$as$u20$serde_core..de..Deserializer$GT$17deserialize_tuple17h14e40aa3cc157b31E', symObjAddr: 0x29D8, symBinAddr: 0x20B68, symSize: 0x100 }
  - { offset: 0x6540D, size: 0x8, addend: 0x0, symName: '__ZN88_$LT$$RF$mut$u20$pythonize..de..Depythonizer$u20$as$u20$serde_core..de..Deserializer$GT$18deserialize_string17he9ee0341d2a8aa70E', symObjAddr: 0x2AD8, symBinAddr: 0x20C68, symSize: 0x24 }
  - { offset: 0x65451, size: 0x8, addend: 0x0, symName: __ZN9pythonize2de11depythonize17h57f79466c5780e73E, symObjAddr: 0x2AFC, symBinAddr: 0x20C8C, symSize: 0x3C }
  - { offset: 0x668CB, size: 0x8, addend: 0x0, symName: __ZN9pythonize2de12Depythonizer19deserialize_any_int17h6477db062c58f773E, symObjAddr: 0x2B38, symBinAddr: 0x20CC8, symSize: 0x540 }
  - { offset: 0x66AD9, size: 0x8, addend: 0x0, symName: '__ZN4core3ptr8non_null16NonNull$LT$T$GT$13new_unchecked18precondition_check17hd63cb3de3018e20dE', symObjAddr: 0x0, symBinAddr: 0x21208, symSize: 0xA4 }
  - { offset: 0x66D5B, size: 0x8, addend: 0x0, symName: '__ZN4core3ptr8non_null16NonNull$LT$T$GT$13new_unchecked18precondition_check17hd63cb3de3018e20dE', symObjAddr: 0x0, symBinAddr: 0x21208, symSize: 0xA4 }
  - { offset: 0x67008, size: 0x8, addend: 0x0, symName: __ZN4pyo38internal5state11AttachGuard6python17h39cd6a185deb1d22E, symObjAddr: 0x0, symBinAddr: 0x212AC, symSize: 0x20 }
  - { offset: 0x670BE, size: 0x8, addend: 0x0, symName: __ZN4pyo38internal5state11AttachGuard6python17h39cd6a185deb1d22E, symObjAddr: 0x0, symBinAddr: 0x212AC, symSize: 0x20 }
  - { offset: 0x670FE, size: 0x8, addend: 0x0, symName: __ZN4pyo33err10cast_error9CastError3new17hafef40e81717e757E, symObjAddr: 0x0, symBinAddr: 0x212CC, symSize: 0x1C }
  - { offset: 0x688D6, size: 0x8, addend: 0x0, symName: __ZN4pyo33err10cast_error9CastError3new17hafef40e81717e757E, symObjAddr: 0x0, symBinAddr: 0x212CC, symSize: 0x1C }
  - { offset: 0x68924, size: 0x8, addend: 0x0, symName: '__ZN103_$LT$alloc..vec..into_iter..IntoIter$LT$T$C$A$GT$$u20$as$u20$core..iter..traits..iterator..Iterator$GT$4next17h525b6fb1ec095acfE', symObjAddr: 0x0, symBinAddr: 0x212E8, symSize: 0xAC }
  - { offset: 0x6AE4D, size: 0x8, addend: 0x0, symName: __ZN4core4iter6traits10exact_size17ExactSizeIterator3len17h13be4290c240da6aE, symObjAddr: 0x8E8, symBinAddr: 0x21BD0, symSize: 0xAC }
  - { offset: 0x6AF19, size: 0x8, addend: 0x0, symName: __ZN4core4iter6traits10exact_size17ExactSizeIterator3len17h625ec90bb5e5a197E, symObjAddr: 0x994, symBinAddr: 0x21C7C, symSize: 0xAC }
  - { offset: 0x6B2B3, size: 0x8, addend: 0x0, symName: __ZN4core4iter6traits8iterator8Iterator3map17hab79ca71d3653d0aE, symObjAddr: 0xA40, symBinAddr: 0x21D28, symSize: 0x1C }
  - { offset: 0x6B320, size: 0x8, addend: 0x0, symName: __ZN4core4iter6traits8iterator8Iterator3map17he7298a14da988084E, symObjAddr: 0xA5C, symBinAddr: 0x21D44, symSize: 0x28 }
  - { offset: 0x6BE49, size: 0x8, addend: 0x0, symName: '__ZN103_$LT$alloc..vec..into_iter..IntoIter$LT$T$C$A$GT$$u20$as$u20$core..iter..traits..iterator..Iterator$GT$4next17h525b6fb1ec095acfE', symObjAddr: 0x0, symBinAddr: 0x212E8, symSize: 0xAC }
  - { offset: 0x6BFA7, size: 0x8, addend: 0x0, symName: '__ZN103_$LT$alloc..vec..into_iter..IntoIter$LT$T$C$A$GT$$u20$as$u20$core..iter..traits..iterator..Iterator$GT$4next17h8efeedb571cbbcb9E', symObjAddr: 0xAC, symBinAddr: 0x21394, symSize: 0xBC }
  - { offset: 0x6C0FF, size: 0x8, addend: 0x0, symName: '__ZN103_$LT$alloc..vec..into_iter..IntoIter$LT$T$C$A$GT$$u20$as$u20$core..iter..traits..iterator..Iterator$GT$4next17h9cca6347beb2ca62E', symObjAddr: 0x168, symBinAddr: 0x21450, symSize: 0x88 }
  - { offset: 0x6C259, size: 0x8, addend: 0x0, symName: '__ZN103_$LT$alloc..vec..into_iter..IntoIter$LT$T$C$A$GT$$u20$as$u20$core..iter..traits..iterator..Iterator$GT$4next17ha42985eaa049ebfeE', symObjAddr: 0x1F0, symBinAddr: 0x214D8, symSize: 0xAC }
  - { offset: 0x6C3F3, size: 0x8, addend: 0x0, symName: '__ZN103_$LT$alloc..vec..into_iter..IntoIter$LT$T$C$A$GT$$u20$as$u20$core..iter..traits..iterator..Iterator$GT$5count17h00428f86f6c33fbdE', symObjAddr: 0x29C, symBinAddr: 0x21584, symSize: 0xE8 }
  - { offset: 0x6C55C, size: 0x8, addend: 0x0, symName: '__ZN103_$LT$alloc..vec..into_iter..IntoIter$LT$T$C$A$GT$$u20$as$u20$core..iter..traits..iterator..Iterator$GT$5count17h5ccff1ab98e8eb61E', symObjAddr: 0x384, symBinAddr: 0x2166C, symSize: 0xE8 }
  - { offset: 0x6C689, size: 0x8, addend: 0x0, symName: '__ZN103_$LT$alloc..vec..into_iter..IntoIter$LT$T$C$A$GT$$u20$as$u20$core..iter..traits..iterator..Iterator$GT$8try_fold17h05fd3e22060e2cbaE', symObjAddr: 0x46C, symBinAddr: 0x21754, symSize: 0x1D8 }
  - { offset: 0x6C84E, size: 0x8, addend: 0x0, symName: '__ZN103_$LT$alloc..vec..into_iter..IntoIter$LT$T$C$A$GT$$u20$as$u20$core..iter..traits..iterator..Iterator$GT$8try_fold17h0bc9274e5048526fE', symObjAddr: 0x644, symBinAddr: 0x2192C, symSize: 0x17C }
  - { offset: 0x6CA2E, size: 0x8, addend: 0x0, symName: '__ZN103_$LT$alloc..vec..into_iter..IntoIter$LT$T$C$A$GT$$u20$as$u20$core..iter..traits..iterator..Iterator$GT$9size_hint17h17b92cd4e8b33665E', symObjAddr: 0x7C0, symBinAddr: 0x21AA8, symSize: 0x5C }
  - { offset: 0x6CA89, size: 0x8, addend: 0x0, symName: '__ZN103_$LT$alloc..vec..into_iter..IntoIter$LT$T$C$A$GT$$u20$as$u20$core..iter..traits..iterator..Iterator$GT$9size_hint17h3b19b1e4e7d335eaE', symObjAddr: 0x81C, symBinAddr: 0x21B04, symSize: 0x5C }
  - { offset: 0x6CAE4, size: 0x8, addend: 0x0, symName: '__ZN103_$LT$alloc..vec..into_iter..IntoIter$LT$T$C$A$GT$$u20$as$u20$core..iter..traits..iterator..Iterator$GT$9size_hint17hb5e06b38ff90e3dbE', symObjAddr: 0x878, symBinAddr: 0x21B60, symSize: 0x5C }
  - { offset: 0x6CD85, size: 0x8, addend: 0x0, symName: '__ZN104_$LT$alloc..vec..into_iter..IntoIter$LT$T$GT$$u20$as$u20$alloc..vec..in_place_collect..AsVecIntoIter$GT$12as_into_iter17h4e3d9076e482c3b0E', symObjAddr: 0x8D4, symBinAddr: 0x21BBC, symSize: 0x14 }
  - { offset: 0x6CF83, size: 0x8, addend: 0x0, symName: '__ZN97_$LT$alloc..vec..into_iter..IntoIter$LT$T$C$A$GT$$u20$as$u20$core..iter..adapters..SourceIter$GT$8as_inner17h582706199fee96adE', symObjAddr: 0xEC4, symBinAddr: 0x221AC, symSize: 0x14 }
  - { offset: 0x6E029, size: 0x8, addend: 0x0, symName: '__ZN5alloc3vec9into_iter21IntoIter$LT$T$C$A$GT$16as_raw_mut_slice17h11b8d9bb59123b86E', symObjAddr: 0xA84, symBinAddr: 0x21D6C, symSize: 0xC0 }
  - { offset: 0x6E1E2, size: 0x8, addend: 0x0, symName: '__ZN5alloc3vec9into_iter21IntoIter$LT$T$C$A$GT$16as_raw_mut_slice17h2f1dee34695970e3E', symObjAddr: 0xB44, symBinAddr: 0x21E2C, symSize: 0xC0 }
  - { offset: 0x6E39B, size: 0x8, addend: 0x0, symName: '__ZN5alloc3vec9into_iter21IntoIter$LT$T$C$A$GT$16as_raw_mut_slice17h3327e67241314a67E', symObjAddr: 0xC04, symBinAddr: 0x21EEC, symSize: 0xC0 }
  - { offset: 0x6E554, size: 0x8, addend: 0x0, symName: '__ZN5alloc3vec9into_iter21IntoIter$LT$T$C$A$GT$16as_raw_mut_slice17h8f6094d81a67f3b9E', symObjAddr: 0xCC4, symBinAddr: 0x21FAC, symSize: 0xC0 }
  - { offset: 0x6E70D, size: 0x8, addend: 0x0, symName: '__ZN5alloc3vec9into_iter21IntoIter$LT$T$C$A$GT$16as_raw_mut_slice17h9211f94e54927cdaE', symObjAddr: 0xD84, symBinAddr: 0x2206C, symSize: 0xC0 }
  - { offset: 0x6E8DD, size: 0x8, addend: 0x0, symName: '__ZN5alloc3vec9into_iter21IntoIter$LT$T$C$A$GT$32forget_allocation_drop_remaining17h9cfac2ed277356fbE', symObjAddr: 0xE44, symBinAddr: 0x2212C, symSize: 0x80 }
  - { offset: 0x6EBDB, size: 0x8, addend: 0x0, symName: '__ZN4pyo35impl_4wrap30IntoPyObjectConverter$LT$T$GT$4wrap17he38d07fe603dd5e2E', symObjAddr: 0x0, symBinAddr: 0x221C0, symSize: 0x24 }
  - { offset: 0x70471, size: 0x8, addend: 0x0, symName: '__ZN4pyo35impl_4wrap62IntoPyObjectConverter$LT$core..result..Result$LT$T$C$E$GT$$GT$12map_into_ptr28_$u7b$$u7b$closure$u7d$$u7d$17h06020bcd2d4716afE', symObjAddr: 0xAC, symBinAddr: 0x2226C, symSize: 0x30 }
  - { offset: 0x704C8, size: 0x8, addend: 0x0, symName: '__ZN4pyo35impl_4wrap62IntoPyObjectConverter$LT$core..result..Result$LT$T$C$E$GT$$GT$12map_into_ptr28_$u7b$$u7b$closure$u7d$$u7d$17hdfc2e9cd4119fcc5E', symObjAddr: 0xDC, symBinAddr: 0x2229C, symSize: 0x28 }
  - { offset: 0x70548, size: 0x8, addend: 0x0, symName: __ZN4pyo35impl_4wrap9converter17h5c434d2a15b96751E, symObjAddr: 0x16C, symBinAddr: 0x2232C, symSize: 0x10 }
  - { offset: 0x70575, size: 0x8, addend: 0x0, symName: __ZN4pyo35impl_4wrap9converter17h647a347b649b818fE, symObjAddr: 0x17C, symBinAddr: 0x2233C, symSize: 0x10 }
  - { offset: 0x705A2, size: 0x8, addend: 0x0, symName: __ZN4pyo35impl_4wrap9converter17h7dc98ef2934bf5fbE, symObjAddr: 0x18C, symBinAddr: 0x2234C, symSize: 0x10 }
  - { offset: 0x705D4, size: 0x8, addend: 0x0, symName: '__ZN81_$LT$pyo3..impl_..wrap..Converter$LT$T$GT$$u20$as$u20$core..ops..deref..Deref$GT$5deref17h8d86dcf35b188a5aE', symObjAddr: 0x19C, symBinAddr: 0x2235C, symSize: 0x14 }
  - { offset: 0x70609, size: 0x8, addend: 0x0, symName: '__ZN81_$LT$pyo3..impl_..wrap..Converter$LT$T$GT$$u20$as$u20$core..ops..deref..Deref$GT$5deref17hacaa35cd6d6654c7E', symObjAddr: 0x1B0, symBinAddr: 0x22370, symSize: 0x14 }
  - { offset: 0x7063E, size: 0x8, addend: 0x0, symName: '__ZN81_$LT$pyo3..impl_..wrap..Converter$LT$T$GT$$u20$as$u20$core..ops..deref..Deref$GT$5deref17hbbced5e9e2682b51E', symObjAddr: 0x1C4, symBinAddr: 0x22384, symSize: 0x14 }
  - { offset: 0x70679, size: 0x8, addend: 0x0, symName: '__ZN91_$LT$pyo3..impl_..wrap..EmptyTupleConverter$LT$T$GT$$u20$as$u20$core..ops..deref..Deref$GT$5deref17ha46b866c7b044e5bE', symObjAddr: 0x1D8, symBinAddr: 0x22398, symSize: 0x14 }
  - { offset: 0x706AE, size: 0x8, addend: 0x0, symName: '__ZN91_$LT$pyo3..impl_..wrap..EmptyTupleConverter$LT$T$GT$$u20$as$u20$core..ops..deref..Deref$GT$5deref17hab9935eaf53e6f21E', symObjAddr: 0x1EC, symBinAddr: 0x223AC, symSize: 0x14 }
  - { offset: 0x706E3, size: 0x8, addend: 0x0, symName: '__ZN91_$LT$pyo3..impl_..wrap..EmptyTupleConverter$LT$T$GT$$u20$as$u20$core..ops..deref..Deref$GT$5deref17hb51c3a256abe5eabE', symObjAddr: 0x200, symBinAddr: 0x223C0, symSize: 0x14 }
  - { offset: 0x70ADC, size: 0x8, addend: 0x0, symName: '__ZN4pyo35impl_4wrap30IntoPyObjectConverter$LT$T$GT$4wrap17he38d07fe603dd5e2E', symObjAddr: 0x0, symBinAddr: 0x221C0, symSize: 0x24 }
  - { offset: 0x7117B, size: 0x8, addend: 0x0, symName: '__ZN4pyo35impl_4wrap62IntoPyObjectConverter$LT$core..result..Result$LT$T$C$E$GT$$GT$12map_into_ptr17hc509e3e937d8f153E', symObjAddr: 0x24, symBinAddr: 0x221E4, symSize: 0x44 }
  - { offset: 0x711E4, size: 0x8, addend: 0x0, symName: '__ZN4pyo35impl_4wrap62IntoPyObjectConverter$LT$core..result..Result$LT$T$C$E$GT$$GT$12map_into_ptr17hfaedc14d2dbcd17eE', symObjAddr: 0x68, symBinAddr: 0x22228, symSize: 0x44 }
  - { offset: 0x71240, size: 0x8, addend: 0x0, symName: '__ZN4pyo35impl_4wrap62IntoPyObjectConverter$LT$core..result..Result$LT$T$C$E$GT$$GT$4wrap17h704332b1405d821eE', symObjAddr: 0x104, symBinAddr: 0x222C4, symSize: 0x34 }
  - { offset: 0x71283, size: 0x8, addend: 0x0, symName: '__ZN4pyo35impl_4wrap62IntoPyObjectConverter$LT$core..result..Result$LT$T$C$E$GT$$GT$4wrap17h9ed6575099e2df21E', symObjAddr: 0x138, symBinAddr: 0x222F8, symSize: 0x34 }
  - { offset: 0x71366, size: 0x8, addend: 0x0, symName: '__ZN4core4iter6traits8iterator8Iterator12try_for_each4call28_$u7b$$u7b$closure$u7d$$u7d$17h7b436a0381b7ed1aE', symObjAddr: 0x0, symBinAddr: 0x223D4, symSize: 0x2C }
  - { offset: 0x71F3C, size: 0x8, addend: 0x0, symName: '__ZN4core4iter6traits8iterator8Iterator12try_for_each4call28_$u7b$$u7b$closure$u7d$$u7d$17h7b436a0381b7ed1aE', symObjAddr: 0x0, symBinAddr: 0x223D4, symSize: 0x2C }
  - { offset: 0x71FA1, size: 0x8, addend: 0x0, symName: '__ZN4core4iter6traits8iterator8Iterator12try_for_each4call28_$u7b$$u7b$closure$u7d$$u7d$17h7c22b35ebda23da8E', symObjAddr: 0x2C, symBinAddr: 0x22400, symSize: 0x2C }
  - { offset: 0x72006, size: 0x8, addend: 0x0, symName: '__ZN4core4iter6traits8iterator8Iterator12try_for_each4call28_$u7b$$u7b$closure$u7d$$u7d$17h96c0441f54cbf9f5E', symObjAddr: 0x58, symBinAddr: 0x2242C, symSize: 0x2C }
  - { offset: 0x7206B, size: 0x8, addend: 0x0, symName: '__ZN4core4iter6traits8iterator8Iterator12try_for_each4call28_$u7b$$u7b$closure$u7d$$u7d$17h985c79d56587e15aE', symObjAddr: 0x84, symBinAddr: 0x22458, symSize: 0x2C }
  - { offset: 0x720D0, size: 0x8, addend: 0x0, symName: '__ZN4core4iter6traits8iterator8Iterator12try_for_each4call28_$u7b$$u7b$closure$u7d$$u7d$17hd8d7c88c66329d72E', symObjAddr: 0xB0, symBinAddr: 0x22484, symSize: 0x2C }
  - { offset: 0x74D96, size: 0x8, addend: 0x0, symName: '__ZN4core3cmp5impls69_$LT$impl$u20$core..cmp..PartialEq$LT$$RF$B$GT$$u20$for$u20$$RF$A$GT$2eq17h1f946281efa3b300E', symObjAddr: 0x0, symBinAddr: 0x224B0, symSize: 0x44 }
  - { offset: 0x74DB7, size: 0x8, addend: 0x0, symName: '__ZN4core3cmp5impls69_$LT$impl$u20$core..cmp..PartialEq$LT$$RF$B$GT$$u20$for$u20$$RF$A$GT$2eq17h1f946281efa3b300E', symObjAddr: 0x0, symBinAddr: 0x224B0, symSize: 0x44 }
  - { offset: 0x74E71, size: 0x8, addend: 0x0, symName: '__ZN4core3str6traits54_$LT$impl$u20$core..cmp..PartialEq$u20$for$u20$str$GT$2eq17h3871b14cc99601ecE', symObjAddr: 0x0, symBinAddr: 0x224F4, symSize: 0xA0 }
  - { offset: 0x74EB6, size: 0x8, addend: 0x0, symName: '__ZN4core3str6traits54_$LT$impl$u20$core..cmp..PartialEq$u20$for$u20$str$GT$2eq17h3871b14cc99601ecE', symObjAddr: 0x0, symBinAddr: 0x224F4, symSize: 0xA0 }
  - { offset: 0x7515D, size: 0x8, addend: 0x0, symName: '__ZN4pyo35impl_10trampoline32fastcall_cfunction_with_keywords5inner28_$u7b$$u7b$closure$u7d$$u7d$17h25826e63863f2ddcE', symObjAddr: 0x0, symBinAddr: 0x22594, symSize: 0x48 }
  - { offset: 0x7659E, size: 0x8, addend: 0x0, symName: '__ZN4pyo35impl_10trampoline32fastcall_cfunction_with_keywords5inner28_$u7b$$u7b$closure$u7d$$u7d$17h25826e63863f2ddcE', symObjAddr: 0x0, symBinAddr: 0x22594, symSize: 0x48 }
  - { offset: 0x76E94, size: 0x8, addend: 0x0, symName: '__ZN185_$LT$core..ops..control_flow..ControlFlow$LT$B$C$C$GT$$u20$as$u20$core..ops..try_trait..FromResidual$LT$core..ops..control_flow..ControlFlow$LT$B$C$core..convert..Infallible$GT$$GT$$GT$13from_residual17h148755621a074b1cE', symObjAddr: 0x0, symBinAddr: 0x225DC, symSize: 0x48 }
  - { offset: 0x776A6, size: 0x8, addend: 0x0, symName: '__ZN185_$LT$core..ops..control_flow..ControlFlow$LT$B$C$C$GT$$u20$as$u20$core..ops..try_trait..FromResidual$LT$core..ops..control_flow..ControlFlow$LT$B$C$core..convert..Infallible$GT$$GT$$GT$13from_residual17h148755621a074b1cE', symObjAddr: 0x0, symBinAddr: 0x225DC, symSize: 0x48 }
  - { offset: 0x776EB, size: 0x8, addend: 0x0, symName: '__ZN95_$LT$core..ops..control_flow..ControlFlow$LT$B$C$C$GT$$u20$as$u20$core..ops..try_trait..Try$GT$11from_output17h7042c08a0358f136E', symObjAddr: 0x48, symBinAddr: 0x22624, symSize: 0x20 }
  - { offset: 0x77729, size: 0x8, addend: 0x0, symName: '__ZN95_$LT$core..ops..control_flow..ControlFlow$LT$B$C$C$GT$$u20$as$u20$core..ops..try_trait..Try$GT$6branch17h91c47993064149d7E', symObjAddr: 0x68, symBinAddr: 0x22644, symSize: 0x98 }
  - { offset: 0x78CA3, size: 0x8, addend: 0x0, symName: __ZN4_rdx8validate9_PYO3_DEF17hb7874b6d4b8b04d1E, symObjAddr: 0x78, symBinAddr: 0x3A4408, symSize: 0x0 }
  - { offset: 0x7A22F, size: 0x8, addend: 0x0, symName: __ZN4core5alloc6layout6Layout25from_size_align_unchecked18precondition_check17ha9d06fcc22084c78E, symObjAddr: 0x0, symBinAddr: 0x226DC, symSize: 0xBC }
  - { offset: 0x7A55B, size: 0x8, addend: 0x0, symName: __ZN4core5alloc6layout6Layout25from_size_align_unchecked18precondition_check17ha9d06fcc22084c78E, symObjAddr: 0x0, symBinAddr: 0x226DC, symSize: 0xBC }
  - { offset: 0x7A76B, size: 0x8, addend: 0x0, symName: '__ZN10serde_json5value2de135_$LT$impl$u20$serde_core..de..Deserializer$u20$for$u20$serde_json..map..Map$LT$alloc..string..String$C$serde_json..value..Value$GT$$GT$15deserialize_any17h0fc4fc4f7b9fc510E', symObjAddr: 0x0, symBinAddr: 0x22798, symSize: 0x25C }
  - { offset: 0x7B593, size: 0x8, addend: 0x0, symName: '__ZN10serde_json5value2de135_$LT$impl$u20$serde_core..de..Deserializer$u20$for$u20$serde_json..map..Map$LT$alloc..string..String$C$serde_json..value..Value$GT$$GT$15deserialize_any17h0fc4fc4f7b9fc510E', symObjAddr: 0x0, symBinAddr: 0x22798, symSize: 0x25C }
  - { offset: 0x7B673, size: 0x8, addend: 0x0, symName: '__ZN10serde_json5value2de135_$LT$impl$u20$serde_core..de..Deserializer$u20$for$u20$serde_json..map..Map$LT$alloc..string..String$C$serde_json..value..Value$GT$$GT$15deserialize_any17h15963b40c1fe6903E', symObjAddr: 0x25C, symBinAddr: 0x229F4, symSize: 0x230 }
  - { offset: 0x7B751, size: 0x8, addend: 0x0, symName: '__ZN10serde_json5value2de135_$LT$impl$u20$serde_core..de..Deserializer$u20$for$u20$serde_json..map..Map$LT$alloc..string..String$C$serde_json..value..Value$GT$$GT$15deserialize_any17h431cbe0a42bd0fccE', symObjAddr: 0x48C, symBinAddr: 0x22C24, symSize: 0x234 }
  - { offset: 0x7B830, size: 0x8, addend: 0x0, symName: '__ZN10serde_json5value2de135_$LT$impl$u20$serde_core..de..Deserializer$u20$for$u20$serde_json..map..Map$LT$alloc..string..String$C$serde_json..value..Value$GT$$GT$15deserialize_any17h46541589b9fd2b83E', symObjAddr: 0x6C0, symBinAddr: 0x22E58, symSize: 0x228 }
  - { offset: 0x7B90F, size: 0x8, addend: 0x0, symName: '__ZN10serde_json5value2de135_$LT$impl$u20$serde_core..de..Deserializer$u20$for$u20$serde_json..map..Map$LT$alloc..string..String$C$serde_json..value..Value$GT$$GT$15deserialize_any17h62bdcfd75ad04759E', symObjAddr: 0x8E8, symBinAddr: 0x23080, symSize: 0x21C }
  - { offset: 0x7B9ED, size: 0x8, addend: 0x0, symName: '__ZN10serde_json5value2de135_$LT$impl$u20$serde_core..de..Deserializer$u20$for$u20$serde_json..map..Map$LT$alloc..string..String$C$serde_json..value..Value$GT$$GT$15deserialize_any17h6cc93b82c1dfeeefE', symObjAddr: 0xB04, symBinAddr: 0x2329C, symSize: 0x238 }
  - { offset: 0x7BACC, size: 0x8, addend: 0x0, symName: '__ZN10serde_json5value2de135_$LT$impl$u20$serde_core..de..Deserializer$u20$for$u20$serde_json..map..Map$LT$alloc..string..String$C$serde_json..value..Value$GT$$GT$15deserialize_any17h7dac2d83225687edE', symObjAddr: 0xD3C, symBinAddr: 0x234D4, symSize: 0x230 }
  - { offset: 0x7BBAA, size: 0x8, addend: 0x0, symName: '__ZN10serde_json5value2de135_$LT$impl$u20$serde_core..de..Deserializer$u20$for$u20$serde_json..map..Map$LT$alloc..string..String$C$serde_json..value..Value$GT$$GT$15deserialize_any17ha2b30e7ee5bde41bE', symObjAddr: 0xF6C, symBinAddr: 0x23704, symSize: 0x22C }
  - { offset: 0x7BC89, size: 0x8, addend: 0x0, symName: '__ZN10serde_json5value2de135_$LT$impl$u20$serde_core..de..Deserializer$u20$for$u20$serde_json..map..Map$LT$alloc..string..String$C$serde_json..value..Value$GT$$GT$15deserialize_any17hb6dc2c743333ed53E', symObjAddr: 0x1198, symBinAddr: 0x23930, symSize: 0x238 }
  - { offset: 0x7BD68, size: 0x8, addend: 0x0, symName: '__ZN10serde_json5value2de135_$LT$impl$u20$serde_core..de..Deserializer$u20$for$u20$serde_json..map..Map$LT$alloc..string..String$C$serde_json..value..Value$GT$$GT$15deserialize_any17hc69aba6183262b62E', symObjAddr: 0x13D0, symBinAddr: 0x23B68, symSize: 0x22C }
  - { offset: 0x7BE47, size: 0x8, addend: 0x0, symName: '__ZN10serde_json5value2de135_$LT$impl$u20$serde_core..de..Deserializer$u20$for$u20$serde_json..map..Map$LT$alloc..string..String$C$serde_json..value..Value$GT$$GT$15deserialize_any17hc7d32629499d8ef5E', symObjAddr: 0x15FC, symBinAddr: 0x23D94, symSize: 0x238 }
  - { offset: 0x7BF26, size: 0x8, addend: 0x0, symName: '__ZN10serde_json5value2de135_$LT$impl$u20$serde_core..de..Deserializer$u20$for$u20$serde_json..map..Map$LT$alloc..string..String$C$serde_json..value..Value$GT$$GT$16deserialize_enum17h157afa7e0a37e765E', symObjAddr: 0x1834, symBinAddr: 0x23FCC, symSize: 0x2FC }
  - { offset: 0x7BFC2, size: 0x8, addend: 0x0, symName: '__ZN10serde_json5value2de135_$LT$impl$u20$serde_core..de..Deserializer$u20$for$u20$serde_json..map..Map$LT$alloc..string..String$C$serde_json..value..Value$GT$$GT$16deserialize_enum17h210614cd1d2bcd13E', symObjAddr: 0x1B30, symBinAddr: 0x242C8, symSize: 0x2DC }
  - { offset: 0x7C1C2, size: 0x8, addend: 0x0, symName: '__ZN123_$LT$serde_json..map..Map$LT$alloc..string..String$C$serde_json..value..Value$GT$$u20$as$u20$serde_core..ser..Serialize$GT$9serialize17ha9cfb15e42117975E', symObjAddr: 0x1E0C, symBinAddr: 0x245A4, symSize: 0x24C }
  - { offset: 0x7C2BF, size: 0x8, addend: 0x0, symName: '__ZN124_$LT$serde_json..map..Map$LT$alloc..string..String$C$serde_json..value..Value$GT$$u20$as$u20$serde_core..de..Deserialize$GT$11deserialize17h39d9636cf8dbc39aE', symObjAddr: 0x2058, symBinAddr: 0x247F0, symSize: 0x24 }
  - { offset: 0x7C300, size: 0x8, addend: 0x0, symName: '__ZN189_$LT$$LT$serde_json..map..Map$LT$alloc..string..String$C$serde_json..value..Value$GT$$u20$as$u20$serde_core..de..Deserialize$GT$..deserialize..Visitor$u20$as$u20$serde_core..de..Visitor$GT$9visit_map17ha1560b297ade4776E', symObjAddr: 0x207C, symBinAddr: 0x24814, symSize: 0x164 }
  - { offset: 0x7E886, size: 0x8, addend: 0x0, symName: '__ZN116_$LT$alloc..collections..btree..map..IntoIter$LT$K$C$V$C$A$GT$$u20$as$u20$core..iter..traits..iterator..Iterator$GT$4next17h1789853f1ed2a107E', symObjAddr: 0x0, symBinAddr: 0x24978, symSize: 0x88 }
  - { offset: 0x7F057, size: 0x8, addend: 0x0, symName: '__ZN116_$LT$alloc..collections..btree..map..IntoIter$LT$K$C$V$C$A$GT$$u20$as$u20$core..iter..traits..iterator..Iterator$GT$4next17h1789853f1ed2a107E', symObjAddr: 0x0, symBinAddr: 0x24978, symSize: 0x88 }
  - { offset: 0x7F104, size: 0x8, addend: 0x0, symName: '__ZN127_$LT$alloc..collections..btree..map..IntoIter$LT$K$C$V$C$A$GT$$u20$as$u20$core..iter..traits..exact_size..ExactSizeIterator$GT$3len17h39b395946a716802E', symObjAddr: 0x88, symBinAddr: 0x24A00, symSize: 0x18 }
  - { offset: 0x7F6DF, size: 0x8, addend: 0x0, symName: __ZN4core5slice3raw14from_raw_parts18precondition_check17ha557bccfe3f02c05E, symObjAddr: 0x0, symBinAddr: 0x24A18, symSize: 0x1D8 }
  - { offset: 0x7FC76, size: 0x8, addend: 0x0, symName: __ZN4core5slice3raw14from_raw_parts18precondition_check17ha557bccfe3f02c05E, symObjAddr: 0x0, symBinAddr: 0x24A18, symSize: 0x1D8 }
  - { offset: 0x7FE14, size: 0x8, addend: 0x0, symName: __ZN4core5slice3raw18from_raw_parts_mut18precondition_check17h678bc357a4990898E, symObjAddr: 0x1D8, symBinAddr: 0x24BF0, symSize: 0x1D8 }
  - { offset: 0x80191, size: 0x8, addend: 0x0, symName: '__ZN5alloc7raw_vec19RawVec$LT$T$C$A$GT$8grow_one17h24372c8967cd2f4eE', symObjAddr: 0x0, symBinAddr: 0x24DC8, symSize: 0x88 }
  - { offset: 0x824F8, size: 0x8, addend: 0x0, symName: '__ZN5alloc7raw_vec19RawVec$LT$T$C$A$GT$8grow_one17h24372c8967cd2f4eE', symObjAddr: 0x0, symBinAddr: 0x24DC8, symSize: 0x88 }
  - { offset: 0x825AA, size: 0x8, addend: 0x0, symName: '__ZN5alloc7raw_vec19RawVec$LT$T$C$A$GT$8grow_one17h29a09f3c00766fb2E', symObjAddr: 0x88, symBinAddr: 0x24E50, symSize: 0x88 }
  - { offset: 0x8265C, size: 0x8, addend: 0x0, symName: '__ZN5alloc7raw_vec19RawVec$LT$T$C$A$GT$8grow_one17h307c796024fecdb0E', symObjAddr: 0x110, symBinAddr: 0x24ED8, symSize: 0x88 }
  - { offset: 0x82C74, size: 0x8, addend: 0x0, symName: '__ZN5alloc7raw_vec19RawVec$LT$T$C$A$GT$8grow_one17h74cbaedd5ddf2f8eE', symObjAddr: 0x198, symBinAddr: 0x24F60, symSize: 0x84 }
  - { offset: 0x8372B, size: 0x8, addend: 0x0, symName: '__ZN5alloc7raw_vec19RawVec$LT$T$C$A$GT$8grow_one17hf7c536cdcf307e17E', symObjAddr: 0x21C, symBinAddr: 0x24FE4, symSize: 0x84 }
  - { offset: 0x837B6, size: 0x8, addend: 0x0, symName: __ZN5serde7private2de7content12TagOrContent7Content17h6dd07020815b5568E, symObjAddr: 0x0, symBinAddr: 0x25068, symSize: 0x14 }
  - { offset: 0x837E1, size: 0x8, addend: 0x0, symName: __ZN5serde7private2de7content12TagOrContent7Content17h6dd07020815b5568E, symObjAddr: 0x0, symBinAddr: 0x25068, symSize: 0x14 }
  - { offset: 0x83EDD, size: 0x8, addend: 0x0, symName: __ZN4_rdx19parse_with_defaults9_PYO3_DEF17hc7c049db6523adf1E, symObjAddr: 0x78, symBinAddr: 0x3A4428, symSize: 0x0 }
  - { offset: 0x85469, size: 0x8, addend: 0x0, symName: __ZN3std5panic12catch_unwind17h4109709a00e0f803E, symObjAddr: 0x0, symBinAddr: 0x2507C, symSize: 0xC0 }
  - { offset: 0x86E80, size: 0x8, addend: 0x0, symName: __ZN3std5panic12catch_unwind17h4109709a00e0f803E, symObjAddr: 0x0, symBinAddr: 0x2507C, symSize: 0xC0 }
  - { offset: 0x86F12, size: 0x8, addend: 0x0, symName: __ZN3std5panic12catch_unwind17h48e669a86d6e2782E, symObjAddr: 0xC0, symBinAddr: 0x2513C, symSize: 0xC0 }
  - { offset: 0x86FA4, size: 0x8, addend: 0x0, symName: __ZN3std5panic12catch_unwind17hb9273d041b299300E, symObjAddr: 0x180, symBinAddr: 0x251FC, symSize: 0xDC }
  - { offset: 0x879EB, size: 0x8, addend: 0x0, symName: __ZN8pyo3_ffi11floatobject13PyFloat_Check17h126be070be4edc75E, symObjAddr: 0x0, symBinAddr: 0x2532C, symSize: 0x2C }
  - { offset: 0x87ABE, size: 0x8, addend: 0x0, symName: __ZN8pyo3_ffi11floatobject13PyFloat_Check17h126be070be4edc75E, symObjAddr: 0x0, symBinAddr: 0x2532C, symSize: 0x2C }
  - { offset: 0x88F55, size: 0x8, addend: 0x0, symName: '__ZN75_$LT$usize$u20$as$u20$core..slice..index..SliceIndex$LT$$u5b$T$u5d$$GT$$GT$17get_unchecked_mut18precondition_check17h6a19f848d95706e9E', symObjAddr: 0x0, symBinAddr: 0x25358, symSize: 0xAC }
  - { offset: 0x89281, size: 0x8, addend: 0x0, symName: '__ZN75_$LT$usize$u20$as$u20$core..slice..index..SliceIndex$LT$$u5b$T$u5d$$GT$$GT$17get_unchecked_mut18precondition_check17h6a19f848d95706e9E', symObjAddr: 0x0, symBinAddr: 0x25358, symSize: 0xAC }
  - { offset: 0x89491, size: 0x8, addend: 0x0, symName: '__ZN5alloc3vec13in_place_drop20InPlaceDrop$LT$T$GT$3len17h2d5d806ae86c2949E', symObjAddr: 0x0, symBinAddr: 0x25404, symSize: 0x84 }
  - { offset: 0x89DFB, size: 0x8, addend: 0x0, symName: '__ZN5alloc3vec13in_place_drop20InPlaceDrop$LT$T$GT$3len17h2d5d806ae86c2949E', symObjAddr: 0x0, symBinAddr: 0x25404, symSize: 0x84 }
  - { offset: 0x89EBE, size: 0x8, addend: 0x0, symName: '__ZN4core3num23_$LT$impl$u20$usize$GT$13unchecked_mul18precondition_check17ha8b8327f8c64bae4E', symObjAddr: 0x0, symBinAddr: 0x25488, symSize: 0xAC }
  - { offset: 0x89F09, size: 0x8, addend: 0x0, symName: '__ZN4core3num23_$LT$impl$u20$usize$GT$13unchecked_mul18precondition_check17ha8b8327f8c64bae4E', symObjAddr: 0x0, symBinAddr: 0x25488, symSize: 0xAC }
  - { offset: 0x8A469, size: 0x8, addend: 0x0, symName: __ZN4pyo36marker6Python15assume_attached17h1188a6e613489cdbE, symObjAddr: 0x0, symBinAddr: 0x25534, symSize: 0x4 }
  - { offset: 0x8B71B, size: 0x8, addend: 0x0, symName: __ZN4pyo36marker6Python15assume_attached17h1188a6e613489cdbE, symObjAddr: 0x0, symBinAddr: 0x25534, symSize: 0x4 }
  - { offset: 0x8BB86, size: 0x8, addend: 0x0, symName: __ZN4pyo36marker6Python4None17hee005aad34e05d7aE, symObjAddr: 0x4, symBinAddr: 0x25538, symSize: 0x28 }
  - { offset: 0x8BBD3, size: 0x8, addend: 0x0, symName: '__ZN9hashbrown3map24HashMap$LT$K$C$V$C$S$GT$24with_capacity_and_hasher17h0e9a813bcac52180E', symObjAddr: 0x0, symBinAddr: 0x25560, symSize: 0x78 }
  - { offset: 0x8C977, size: 0x8, addend: 0x0, symName: '__ZN9hashbrown3map24HashMap$LT$K$C$V$C$S$GT$24with_capacity_and_hasher17h0e9a813bcac52180E', symObjAddr: 0x0, symBinAddr: 0x25560, symSize: 0x78 }
  - { offset: 0x8C9FE, size: 0x8, addend: 0x0, symName: '__ZN9hashbrown3map24HashMap$LT$K$C$V$C$S$GT$24with_capacity_and_hasher17h0fbf3cd72aebb65aE', symObjAddr: 0x78, symBinAddr: 0x255D8, symSize: 0x78 }
  - { offset: 0x8CA9F, size: 0x8, addend: 0x0, symName: __ZN4_rdx7version9_PYO3_DEF17hfdc3c5417faa7b6bE, symObjAddr: 0x38, symBinAddr: 0x3A4448, symSize: 0x0 }
  - { offset: 0x8E02B, size: 0x8, addend: 0x0, symName: '__ZN10serde_core3ser5impls59_$LT$impl$u20$serde_core..ser..Serialize$u20$for$u20$u8$GT$9serialize17h72f91bd03799fffdE', symObjAddr: 0x0, symBinAddr: 0x25650, symSize: 0x28 }
  - { offset: 0x8E2B1, size: 0x8, addend: 0x0, symName: '__ZN10serde_core3ser5impls59_$LT$impl$u20$serde_core..ser..Serialize$u20$for$u20$u8$GT$9serialize17h72f91bd03799fffdE', symObjAddr: 0x0, symBinAddr: 0x25650, symSize: 0x28 }
  - { offset: 0x8E2FA, size: 0x8, addend: 0x0, symName: '__ZN10serde_core3ser5impls60_$LT$impl$u20$serde_core..ser..Serialize$u20$for$u20$str$GT$9serialize17h5da51abffa74370aE', symObjAddr: 0x28, symBinAddr: 0x25678, symSize: 0x28 }
  - { offset: 0x8E33D, size: 0x8, addend: 0x0, symName: '__ZN10serde_core3ser5impls60_$LT$impl$u20$serde_core..ser..Serialize$u20$for$u20$str$GT$9serialize17hf405d0d5b82c90e9E', symObjAddr: 0x50, symBinAddr: 0x256A0, symSize: 0x28 }
  - { offset: 0x8E386, size: 0x8, addend: 0x0, symName: '__ZN10serde_core3ser5impls61_$LT$impl$u20$serde_core..ser..Serialize$u20$for$u20$bool$GT$9serialize17h6161687d657a5075E', symObjAddr: 0x78, symBinAddr: 0x256C8, symSize: 0x2C }
  - { offset: 0x8E3CF, size: 0x8, addend: 0x0, symName: '__ZN10serde_core3ser5impls62_$LT$impl$u20$serde_core..ser..Serialize$u20$for$u20$$RF$T$GT$9serialize17h3d732b7aa88bd211E', symObjAddr: 0xA4, symBinAddr: 0x256F4, symSize: 0x28 }
  - { offset: 0x8E41E, size: 0x8, addend: 0x0, symName: '__ZN10serde_core3ser5impls62_$LT$impl$u20$serde_core..ser..Serialize$u20$for$u20$$RF$T$GT$9serialize17h4888038cfdda6e61E', symObjAddr: 0xCC, symBinAddr: 0x2571C, symSize: 0x28 }
  - { offset: 0x8E46D, size: 0x8, addend: 0x0, symName: '__ZN10serde_core3ser5impls62_$LT$impl$u20$serde_core..ser..Serialize$u20$for$u20$$RF$T$GT$9serialize17h6d45d1c69245730dE', symObjAddr: 0xF4, symBinAddr: 0x25744, symSize: 0x28 }
  - { offset: 0x8E4BC, size: 0x8, addend: 0x0, symName: '__ZN10serde_core3ser5impls62_$LT$impl$u20$serde_core..ser..Serialize$u20$for$u20$$RF$T$GT$9serialize17hfe36ce8d059c472dE', symObjAddr: 0x11C, symBinAddr: 0x2576C, symSize: 0x30 }
  - { offset: 0x8E511, size: 0x8, addend: 0x0, symName: '__ZN10serde_core3ser5impls62_$LT$impl$u20$serde_core..ser..Serialize$u20$for$u20$usize$GT$9serialize17hb117d0f40330c05bE', symObjAddr: 0x14C, symBinAddr: 0x2579C, symSize: 0x28 }
  - { offset: 0x8F2C1, size: 0x8, addend: 0x0, symName: __ZN5alloc3vec16in_place_collect18from_iter_in_place17hdc942d6359da6ff4E, symObjAddr: 0x0, symBinAddr: 0x257C4, symSize: 0x3A4 }
  - { offset: 0x9019B, size: 0x8, addend: 0x0, symName: __ZN5alloc3vec16in_place_collect18from_iter_in_place17hdc942d6359da6ff4E, symObjAddr: 0x0, symBinAddr: 0x257C4, symSize: 0x3A4 }
  - { offset: 0x906A9, size: 0x8, addend: 0x0, symName: '__ZN5alloc3vec16in_place_collect24write_in_place_with_drop28_$u7b$$u7b$closure$u7d$$u7d$17hf2601c6999a8e2bdE', symObjAddr: 0x3A4, symBinAddr: 0x25B68, symSize: 0x40 }
  - { offset: 0x91047, size: 0x8, addend: 0x0, symName: '__ZN87_$LT$$BP$mut$u20$pyo3_ffi..object..PyObject$u20$as$u20$pyo3..ffi_ptr_ext..FfiPtrExt$GT$12assume_owned17h0c0d1d03a8bebd26E', symObjAddr: 0x0, symBinAddr: 0x25BA8, symSize: 0x24 }
  - { offset: 0x9109A, size: 0x8, addend: 0x0, symName: __ZN8pyo3_ffi6object10Py_IS_TYPE17h367af7a0d9f6f368E, symObjAddr: 0x90, symBinAddr: 0x25C38, symSize: 0x38 }
  - { offset: 0x910D4, size: 0x8, addend: 0x0, symName: __ZN8pyo3_ffi6object18PyObject_TypeCheck17hd5849c1091c3fbc0E, symObjAddr: 0xC8, symBinAddr: 0x25C70, symSize: 0x70 }
  - { offset: 0x91111, size: 0x8, addend: 0x0, symName: __ZN8pyo3_ffi6object7Py_None17h5b8293ea4c6c3eaaE, symObjAddr: 0x138, symBinAddr: 0x25CE0, symSize: 0xC }
  - { offset: 0x925E1, size: 0x8, addend: 0x0, symName: '__ZN87_$LT$$BP$mut$u20$pyo3_ffi..object..PyObject$u20$as$u20$pyo3..ffi_ptr_ext..FfiPtrExt$GT$12assume_owned17h0c0d1d03a8bebd26E', symObjAddr: 0x0, symBinAddr: 0x25BA8, symSize: 0x24 }
  - { offset: 0x92626, size: 0x8, addend: 0x0, symName: '__ZN87_$LT$$BP$mut$u20$pyo3_ffi..object..PyObject$u20$as$u20$pyo3..ffi_ptr_ext..FfiPtrExt$GT$19assume_owned_or_err17he895ec4f17664ce0E', symObjAddr: 0x24, symBinAddr: 0x25BCC, symSize: 0x24 }
  - { offset: 0x9266B, size: 0x8, addend: 0x0, symName: '__ZN87_$LT$$BP$mut$u20$pyo3_ffi..object..PyObject$u20$as$u20$pyo3..ffi_ptr_ext..FfiPtrExt$GT$22assume_borrowed_or_err17h5535af5c61357fb4E', symObjAddr: 0x48, symBinAddr: 0x25BF0, symSize: 0x24 }
  - { offset: 0x926B0, size: 0x8, addend: 0x0, symName: '__ZN87_$LT$$BP$mut$u20$pyo3_ffi..object..PyObject$u20$as$u20$pyo3..ffi_ptr_ext..FfiPtrExt$GT$25assume_borrowed_unchecked17h55f9fe07c8945aedE', symObjAddr: 0x6C, symBinAddr: 0x25C14, symSize: 0x24 }
  - { offset: 0x92FCD, size: 0x8, addend: 0x0, symName: __ZN4core3mem4drop17h9f9a91d5a2aacac3E, symObjAddr: 0x0, symBinAddr: 0x25CEC, symSize: 0x14 }
  - { offset: 0x93249, size: 0x8, addend: 0x0, symName: __ZN4core3mem4drop17h9f9a91d5a2aacac3E, symObjAddr: 0x0, symBinAddr: 0x25CEC, symSize: 0x14 }
  - { offset: 0x9327D, size: 0x8, addend: 0x0, symName: __ZN4core3mem4drop17hbd068e74517d7bafE, symObjAddr: 0x14, symBinAddr: 0x25D00, symSize: 0x14 }
  - { offset: 0x94354, size: 0x8, addend: 0x0, symName: __ZN4pyo35types4list17try_new_from_iter17h6b71d6943c1a5db1E, symObjAddr: 0x0, symBinAddr: 0x25D14, symSize: 0x2BC }
  - { offset: 0x95BCB, size: 0x8, addend: 0x0, symName: __ZN4pyo35types4list17try_new_from_iter17h6b71d6943c1a5db1E, symObjAddr: 0x0, symBinAddr: 0x25D14, symSize: 0x2BC }
  - { offset: 0x95CED, size: 0x8, addend: 0x0, symName: '__ZN4pyo35types4list17try_new_from_iter28_$u7b$$u7b$closure$u7d$$u7d$17hcd659d682c0fdab1E', symObjAddr: 0x2BC, symBinAddr: 0x25FD0, symSize: 0xDC }
  - { offset: 0x95DBA, size: 0x8, addend: 0x0, symName: '__ZN4pyo35types4list6PyList3new28_$u7b$$u7b$closure$u7d$$u7d$17h73d142118a8ca3f3E', symObjAddr: 0x3E8, symBinAddr: 0x260FC, symSize: 0x30 }
  - { offset: 0x968F4, size: 0x8, addend: 0x0, symName: __ZN4pyo35types4list6PyList3new17h13093d2e18b0448fE, symObjAddr: 0x398, symBinAddr: 0x260AC, symSize: 0x50 }
  - { offset: 0x96977, size: 0x8, addend: 0x0, symName: '__ZN79_$LT$pyo3..types..list..PyList$u20$as$u20$pythonize..ser..PythonizeListType$GT$15create_sequence17h86d19d0eab9b1389E', symObjAddr: 0x418, symBinAddr: 0x2612C, symSize: 0x98 }
  - { offset: 0x96A3E, size: 0x8, addend: 0x0, symName: __ZN4core4iter6traits8iterator8Iterator12try_for_each17h01c96db1887c793cE, symObjAddr: 0x0, symBinAddr: 0x261C4, symSize: 0x2C }
  - { offset: 0x9760A, size: 0x8, addend: 0x0, symName: __ZN4core4iter6traits8iterator8Iterator12try_for_each17h01c96db1887c793cE, symObjAddr: 0x0, symBinAddr: 0x261C4, symSize: 0x2C }
  - { offset: 0x97662, size: 0x8, addend: 0x0, symName: __ZN4core4iter6traits8iterator8Iterator12try_for_each17h065d6d5642180677E, symObjAddr: 0x2C, symBinAddr: 0x261F0, symSize: 0x2C }
  - { offset: 0x976BA, size: 0x8, addend: 0x0, symName: __ZN4core4iter6traits8iterator8Iterator12try_for_each17haabd9fac2a78c3c3E, symObjAddr: 0x58, symBinAddr: 0x2621C, symSize: 0x2C }
  - { offset: 0x97712, size: 0x8, addend: 0x0, symName: __ZN4core4iter6traits8iterator8Iterator12try_for_each17hc178bfa165222da8E, symObjAddr: 0x84, symBinAddr: 0x26248, symSize: 0x2C }
  - { offset: 0x9776A, size: 0x8, addend: 0x0, symName: __ZN4core4iter6traits8iterator8Iterator12try_for_each17hff396cc65ac3bf21E, symObjAddr: 0xB0, symBinAddr: 0x26274, symSize: 0x2C }
  - { offset: 0x977C2, size: 0x8, addend: 0x0, symName: __ZN4core4iter6traits8iterator8Iterator6copied17h0d3934c5eb75309fE, symObjAddr: 0xDC, symBinAddr: 0x262A0, symSize: 0x1C }
  - { offset: 0x97802, size: 0x8, addend: 0x0, symName: __ZN4core4iter6traits8iterator8Iterator8try_fold17h475973a3d48c6368E, symObjAddr: 0xF8, symBinAddr: 0x262BC, symSize: 0x144 }
  - { offset: 0x978B5, size: 0x8, addend: 0x0, symName: __ZN4core4iter6traits8iterator8Iterator8try_fold17h56bad2af1cb3889aE, symObjAddr: 0x23C, symBinAddr: 0x26400, symSize: 0x144 }
  - { offset: 0x97968, size: 0x8, addend: 0x0, symName: __ZN4core4iter6traits8iterator8Iterator8try_fold17h651890ed41cf0ea3E, symObjAddr: 0x380, symBinAddr: 0x26544, symSize: 0x144 }
  - { offset: 0x97A1B, size: 0x8, addend: 0x0, symName: __ZN4core4iter6traits8iterator8Iterator8try_fold17h84cadf8dd62cf2d8E, symObjAddr: 0x4C4, symBinAddr: 0x26688, symSize: 0x144 }
  - { offset: 0x97ACE, size: 0x8, addend: 0x0, symName: __ZN4core4iter6traits8iterator8Iterator8try_fold17hf961218d703a6596E, symObjAddr: 0x608, symBinAddr: 0x267CC, symSize: 0x144 }
  - { offset: 0x990BF, size: 0x8, addend: 0x0, symName: '__ZN91_$LT$core..slice..iter..Iter$LT$T$GT$$u20$as$u20$core..iter..traits..iterator..Iterator$GT$4next17h1870734c3a955e24E', symObjAddr: 0x79C, symBinAddr: 0x26960, symSize: 0x84 }
  - { offset: 0x99175, size: 0x8, addend: 0x0, symName: '__ZN91_$LT$core..slice..iter..Iter$LT$T$GT$$u20$as$u20$core..iter..traits..iterator..Iterator$GT$4next17h387e2200c7509fc1E', symObjAddr: 0x820, symBinAddr: 0x269E4, symSize: 0x84 }
  - { offset: 0x9922B, size: 0x8, addend: 0x0, symName: '__ZN91_$LT$core..slice..iter..Iter$LT$T$GT$$u20$as$u20$core..iter..traits..iterator..Iterator$GT$4next17h7f26bd0ee542df1fE', symObjAddr: 0x8A4, symBinAddr: 0x26A68, symSize: 0x84 }
  - { offset: 0x992E1, size: 0x8, addend: 0x0, symName: '__ZN91_$LT$core..slice..iter..Iter$LT$T$GT$$u20$as$u20$core..iter..traits..iterator..Iterator$GT$4next17hc8091a221de49d7dE', symObjAddr: 0x928, symBinAddr: 0x26AEC, symSize: 0x84 }
  - { offset: 0x99397, size: 0x8, addend: 0x0, symName: '__ZN91_$LT$core..slice..iter..Iter$LT$T$GT$$u20$as$u20$core..iter..traits..iterator..Iterator$GT$5count17h7b8eb02b7f6f012cE', symObjAddr: 0x9AC, symBinAddr: 0x26B70, symSize: 0x4C }
  - { offset: 0x993E9, size: 0x8, addend: 0x0, symName: '__ZN91_$LT$core..slice..iter..Iter$LT$T$GT$$u20$as$u20$core..iter..traits..iterator..Iterator$GT$5count17hefda03d1436609fcE', symObjAddr: 0x9F8, symBinAddr: 0x26BBC, symSize: 0x4C }
  - { offset: 0x9948A, size: 0x8, addend: 0x0, symName: '__ZN91_$LT$core..slice..iter..Iter$LT$T$GT$$u20$as$u20$core..iter..traits..iterator..Iterator$GT$8position17h6e37acea21f4bab2E', symObjAddr: 0xA44, symBinAddr: 0x26C08, symSize: 0x1BC }
  - { offset: 0x9960F, size: 0x8, addend: 0x0, symName: '__ZN91_$LT$core..slice..iter..Iter$LT$T$GT$$u20$as$u20$core..iter..traits..iterator..Iterator$GT$8position17he1c2f531ef2d0183E', symObjAddr: 0xC00, symBinAddr: 0x26DC4, symSize: 0x1BC }
  - { offset: 0x99745, size: 0x8, addend: 0x0, symName: '__ZN91_$LT$core..slice..iter..Iter$LT$T$GT$$u20$as$u20$core..iter..traits..iterator..Iterator$GT$9size_hint17h1f8690ac8c1b6b9bE', symObjAddr: 0xDBC, symBinAddr: 0x26F80, symSize: 0x60 }
  - { offset: 0x997B4, size: 0x8, addend: 0x0, symName: '__ZN91_$LT$core..slice..iter..Iter$LT$T$GT$$u20$as$u20$core..iter..traits..iterator..Iterator$GT$9size_hint17h424ff24e16daa6e3E', symObjAddr: 0xE1C, symBinAddr: 0x26FE0, symSize: 0x60 }
  - { offset: 0x99823, size: 0x8, addend: 0x0, symName: '__ZN91_$LT$core..slice..iter..Iter$LT$T$GT$$u20$as$u20$core..iter..traits..iterator..Iterator$GT$9size_hint17hade56947cf3803d1E', symObjAddr: 0xE7C, symBinAddr: 0x27040, symSize: 0x60 }
  - { offset: 0x9A79B, size: 0x8, addend: 0x0, symName: '__ZN4core5slice4iter13Iter$LT$T$GT$3new17h339de2dab2733b97E', symObjAddr: 0x74C, symBinAddr: 0x26910, symSize: 0x50 }
  - { offset: 0x9C3AD, size: 0x8, addend: 0x0, symName: __ZN4pyo35impl_10trampoline6noargs5inner17hce617b4093141f22E, symObjAddr: 0x0, symBinAddr: 0x270A0, symSize: 0x30 }
  - { offset: 0x9D7E9, size: 0x8, addend: 0x0, symName: __ZN4pyo35impl_10trampoline6noargs5inner17hce617b4093141f22E, symObjAddr: 0x0, symBinAddr: 0x270A0, symSize: 0x30 }
  - { offset: 0x9E082, size: 0x8, addend: 0x0, symName: '__ZN101_$LT$pythonize..ser..PythonCollectionSerializer$LT$P$GT$$u20$as$u20$serde_core..ser..SerializeSeq$GT$17serialize_element17hac26b39246056d6aE', symObjAddr: 0x0, symBinAddr: 0x270D0, symSize: 0x84 }
  - { offset: 0x9FC8D, size: 0x8, addend: 0x0, symName: '__ZN101_$LT$pythonize..ser..PythonCollectionSerializer$LT$P$GT$$u20$as$u20$serde_core..ser..SerializeSeq$GT$17serialize_element17hac26b39246056d6aE', symObjAddr: 0x0, symBinAddr: 0x270D0, symSize: 0x84 }
  - { offset: 0x9FCFA, size: 0x8, addend: 0x0, symName: '__ZN101_$LT$pythonize..ser..PythonCollectionSerializer$LT$P$GT$$u20$as$u20$serde_core..ser..SerializeSeq$GT$3end17h3b60ed1904fa0ed3E', symObjAddr: 0x84, symBinAddr: 0x27154, symSize: 0x134 }
  - { offset: 0x9FD8B, size: 0x8, addend: 0x0, symName: '__ZN83_$LT$pythonize..ser..Pythonizer$LT$P$GT$$u20$as$u20$serde_core..ser..Serializer$GT$13serialize_f6417h7714aa425579bb1fE', symObjAddr: 0x44C, symBinAddr: 0x2751C, symSize: 0x20 }
  - { offset: 0x9FDDD, size: 0x8, addend: 0x0, symName: '__ZN83_$LT$pythonize..ser..Pythonizer$LT$P$GT$$u20$as$u20$serde_core..ser..Serializer$GT$13serialize_i6417hbf3a4194ca95feeaE', symObjAddr: 0x46C, symBinAddr: 0x2753C, symSize: 0x20 }
  - { offset: 0x9FE2F, size: 0x8, addend: 0x0, symName: '__ZN83_$LT$pythonize..ser..Pythonizer$LT$P$GT$$u20$as$u20$serde_core..ser..Serializer$GT$13serialize_map17h058d856bbef00236E', symObjAddr: 0x48C, symBinAddr: 0x2755C, symSize: 0x9C }
  - { offset: 0x9FEA0, size: 0x8, addend: 0x0, symName: '__ZN83_$LT$pythonize..ser..Pythonizer$LT$P$GT$$u20$as$u20$serde_core..ser..Serializer$GT$13serialize_seq17h5dd8b8310c5dcfd5E', symObjAddr: 0x528, symBinAddr: 0x275F8, symSize: 0x84 }
  - { offset: 0x9FF2E, size: 0x8, addend: 0x0, symName: '__ZN83_$LT$pythonize..ser..Pythonizer$LT$P$GT$$u20$as$u20$serde_core..ser..Serializer$GT$13serialize_str17h5ff5002cdd70992aE', symObjAddr: 0x5AC, symBinAddr: 0x2767C, symSize: 0x34 }
  - { offset: 0x9FF80, size: 0x8, addend: 0x0, symName: '__ZN83_$LT$pythonize..ser..Pythonizer$LT$P$GT$$u20$as$u20$serde_core..ser..Serializer$GT$13serialize_u6417hf027e1238e761193E', symObjAddr: 0x5E0, symBinAddr: 0x276B0, symSize: 0x20 }
  - { offset: 0x9FFD2, size: 0x8, addend: 0x0, symName: '__ZN83_$LT$pythonize..ser..Pythonizer$LT$P$GT$$u20$as$u20$serde_core..ser..Serializer$GT$14serialize_bool17hfa5d8e2e4fe59984E', symObjAddr: 0x600, symBinAddr: 0x276D0, symSize: 0x20 }
  - { offset: 0xA0024, size: 0x8, addend: 0x0, symName: '__ZN83_$LT$pythonize..ser..Pythonizer$LT$P$GT$$u20$as$u20$serde_core..ser..Serializer$GT$14serialize_none17h37d16255ab223479E', symObjAddr: 0x620, symBinAddr: 0x276F0, symSize: 0x28 }
  - { offset: 0xA0067, size: 0x8, addend: 0x0, symName: '__ZN83_$LT$pythonize..ser..Pythonizer$LT$P$GT$$u20$as$u20$serde_core..ser..Serializer$GT$14serialize_unit17haafe19d49a0d5939E', symObjAddr: 0x648, symBinAddr: 0x27718, symSize: 0x1C }
  - { offset: 0xA00B0, size: 0x8, addend: 0x0, symName: '__ZN94_$LT$pythonize..ser..PythonMapSerializer$LT$P$GT$$u20$as$u20$serde_core..ser..SerializeMap$GT$13serialize_key17hf9ebed012cdbd3e5E', symObjAddr: 0x664, symBinAddr: 0x27734, symSize: 0xC0 }
  - { offset: 0xA011D, size: 0x8, addend: 0x0, symName: '__ZN94_$LT$pythonize..ser..PythonMapSerializer$LT$P$GT$$u20$as$u20$serde_core..ser..SerializeMap$GT$15serialize_value17h0edbbc5eef0fe23fE', symObjAddr: 0x724, symBinAddr: 0x277F4, symSize: 0x1B0 }
  - { offset: 0xA01A2, size: 0x8, addend: 0x0, symName: '__ZN94_$LT$pythonize..ser..PythonMapSerializer$LT$P$GT$$u20$as$u20$serde_core..ser..SerializeMap$GT$3end17h23156201a2864834E', symObjAddr: 0x8D4, symBinAddr: 0x279A4, symSize: 0x110 }
  - { offset: 0xA01F1, size: 0x8, addend: 0x0, symName: __ZN9pythonize3ser16pythonize_custom17h2ea77ab4b95a0c8aE, symObjAddr: 0x9E4, symBinAddr: 0x27AB4, symSize: 0x2C }
  - { offset: 0xA0248, size: 0x8, addend: 0x0, symName: __ZN9pythonize3ser16pythonize_custom17h37121d83906bc9fcE, symObjAddr: 0xA10, symBinAddr: 0x27AE0, symSize: 0x2C }
  - { offset: 0xA029F, size: 0x8, addend: 0x0, symName: __ZN9pythonize3ser16pythonize_custom17hb37425d550893884E, symObjAddr: 0xA3C, symBinAddr: 0x27B0C, symSize: 0x2C }
  - { offset: 0xA0400, size: 0x8, addend: 0x0, symName: '__ZN9pythonize3ser19Pythonizer$LT$P$GT$17serialise_default28_$u7b$$u7b$closure$u7d$$u7d$17h1f83e76710290cd3E', symObjAddr: 0xB08, symBinAddr: 0x27BD8, symSize: 0x28 }
  - { offset: 0xA044B, size: 0x8, addend: 0x0, symName: '__ZN9pythonize3ser19Pythonizer$LT$P$GT$17serialise_default28_$u7b$$u7b$closure$u7d$$u7d$17h22558bb06ddab0efE', symObjAddr: 0xB30, symBinAddr: 0x27C00, symSize: 0x28 }
  - { offset: 0xA0496, size: 0x8, addend: 0x0, symName: '__ZN9pythonize3ser19Pythonizer$LT$P$GT$17serialise_default28_$u7b$$u7b$closure$u7d$$u7d$17h4f0c4dc3faaa3a4fE', symObjAddr: 0xB58, symBinAddr: 0x27C28, symSize: 0x28 }
  - { offset: 0xA04E1, size: 0x8, addend: 0x0, symName: '__ZN9pythonize3ser19Pythonizer$LT$P$GT$17serialise_default28_$u7b$$u7b$closure$u7d$$u7d$17h8a0b5069b046915cE', symObjAddr: 0xB80, symBinAddr: 0x27C50, symSize: 0x28 }
  - { offset: 0xA054A, size: 0x8, addend: 0x0, symName: __ZN9pythonize3ser9pythonize17h6ecbf75949a59ab3E, symObjAddr: 0xBC4, symBinAddr: 0x27C94, symSize: 0x2C }
  - { offset: 0xA0765, size: 0x8, addend: 0x0, symName: __ZN10serde_core3ser10Serializer11collect_seq17h33c5f2ec49e8346bE, symObjAddr: 0x1B8, symBinAddr: 0x27288, symSize: 0x21C }
  - { offset: 0xA0841, size: 0x8, addend: 0x0, symName: __ZN10serde_core3ser12SerializeMap15serialize_entry17hd7704d551ee55484E, symObjAddr: 0x3D4, symBinAddr: 0x274A4, symSize: 0x78 }
  - { offset: 0xA16A5, size: 0x8, addend: 0x0, symName: '__ZN9pythonize3ser19Pythonizer$LT$P$GT$17serialise_default17h01f4dac119f58955E', symObjAddr: 0xA68, symBinAddr: 0x27B38, symSize: 0x28 }
  - { offset: 0xA16F5, size: 0x8, addend: 0x0, symName: '__ZN9pythonize3ser19Pythonizer$LT$P$GT$17serialise_default17h92ed142dc02a393bE', symObjAddr: 0xA90, symBinAddr: 0x27B60, symSize: 0x28 }
  - { offset: 0xA174C, size: 0x8, addend: 0x0, symName: '__ZN9pythonize3ser19Pythonizer$LT$P$GT$17serialise_default17h968d52ad3115fda4E', symObjAddr: 0xAB8, symBinAddr: 0x27B88, symSize: 0x28 }
  - { offset: 0xA179C, size: 0x8, addend: 0x0, symName: '__ZN9pythonize3ser19Pythonizer$LT$P$GT$17serialise_default17h96a1655e3862119fE', symObjAddr: 0xAE0, symBinAddr: 0x27BB0, symSize: 0x28 }
  - { offset: 0xA17EC, size: 0x8, addend: 0x0, symName: '__ZN9pythonize3ser50Pythonizer$LT$pythonize..ser..PythonizeDefault$GT$6custom17hab231ee746ba3924E', symObjAddr: 0xBA8, symBinAddr: 0x27C78, symSize: 0x1C }
  - { offset: 0xA1B07, size: 0x8, addend: 0x0, symName: __ZN10serde_core2de5Error13missing_field17he5f2ef15f5e4df51E, symObjAddr: 0x0, symBinAddr: 0x26AFD8, symSize: 0x60 }
  - { offset: 0xA1B63, size: 0x8, addend: 0x0, symName: '__ZN45_$LT$T$u20$as$u20$alloc..string..ToString$GT$9to_string17he7ac68699ae6a2e6E', symObjAddr: 0x264, symBinAddr: 0x27CC0, symSize: 0x24 }
  - { offset: 0xA1BA0, size: 0x8, addend: 0x0, symName: '__ZN49_$LT$T$u20$as$u20$alloc..string..SpecToString$GT$14spec_to_string17h4b97af8bd266ad6cE', symObjAddr: 0x288, symBinAddr: 0x27CE4, symSize: 0xF4 }
  - { offset: 0xA223B, size: 0x8, addend: 0x0, symName: __ZN10serde_core2de5Error13missing_field17he5f2ef15f5e4df51E, symObjAddr: 0x0, symBinAddr: 0x26AFD8, symSize: 0x60 }
  - { offset: 0xA22AE, size: 0x8, addend: 0x0, symName: __ZN10serde_core2de5Error14invalid_length17ha15c4f253e4d3f5bE, symObjAddr: 0x60, symBinAddr: 0x26B038, symSize: 0x84 }
  - { offset: 0xA232C, size: 0x8, addend: 0x0, symName: __ZN10serde_core2de5Error15duplicate_field17hc57411489b586da3E, symObjAddr: 0xE4, symBinAddr: 0x26B0BC, symSize: 0x60 }
  - { offset: 0xA239F, size: 0x8, addend: 0x0, symName: __ZN10serde_core2de5Error15unknown_variant17h8a8812c674b0a248E, symObjAddr: 0x144, symBinAddr: 0x26B11C, symSize: 0x120 }
  - { offset: 0xA2519, size: 0x8, addend: 0x0, symName: '__ZN66_$LT$serde_json..error..Error$u20$as$u20$serde_core..de..Error$GT$6custom17hd49b1b20350dd196E', symObjAddr: 0x37C, symBinAddr: 0x26B23C, symSize: 0x60 }
  - { offset: 0xA2A14, size: 0x8, addend: 0x0, symName: '__ZN103_$LT$pyo3..instance..Bound$LT$pyo3..types..any..PyAny$GT$$u20$as$u20$pyo3..types..any..PyAnyMethods$GT$14is_instance_of17h2e1f06ae7aa1ab18E', symObjAddr: 0x0, symBinAddr: 0x27DD8, symSize: 0x24 }
  - { offset: 0xA2A63, size: 0x8, addend: 0x0, symName: '__ZN45_$LT$T$u20$as$u20$alloc..string..ToString$GT$9to_string17hba1fe0f75202d914E', symObjAddr: 0x3A8, symBinAddr: 0x28180, symSize: 0x24 }
  - { offset: 0xA2AA0, size: 0x8, addend: 0x0, symName: '__ZN49_$LT$T$u20$as$u20$alloc..string..SpecToString$GT$14spec_to_string17h5d91c12c86dd6d9eE', symObjAddr: 0x3CC, symBinAddr: 0x281A4, symSize: 0xF4 }
  - { offset: 0xA301C, size: 0x8, addend: 0x0, symName: '__ZN4core5slice29_$LT$impl$u20$$u5b$T$u5d$$GT$4iter17h86c21865767058baE', symObjAddr: 0x4C0, symBinAddr: 0x28298, symSize: 0x28 }
  - { offset: 0xA4C0F, size: 0x8, addend: 0x0, symName: '__ZN103_$LT$pyo3..instance..Bound$LT$pyo3..types..any..PyAny$GT$$u20$as$u20$pyo3..types..any..PyAnyMethods$GT$14is_instance_of17h2e1f06ae7aa1ab18E', symObjAddr: 0x0, symBinAddr: 0x27DD8, symSize: 0x24 }
  - { offset: 0xA4C46, size: 0x8, addend: 0x0, symName: '__ZN103_$LT$pyo3..instance..Bound$LT$pyo3..types..any..PyAny$GT$$u20$as$u20$pyo3..types..any..PyAnyMethods$GT$14is_instance_of17h55be66e6aea30619E', symObjAddr: 0x24, symBinAddr: 0x27DFC, symSize: 0x24 }
  - { offset: 0xA4C7D, size: 0x8, addend: 0x0, symName: '__ZN103_$LT$pyo3..instance..Bound$LT$pyo3..types..any..PyAny$GT$$u20$as$u20$pyo3..types..any..PyAnyMethods$GT$14is_instance_of17h6115189afa32d1b9E', symObjAddr: 0x48, symBinAddr: 0x27E20, symSize: 0x24 }
  - { offset: 0xA4CB4, size: 0x8, addend: 0x0, symName: '__ZN103_$LT$pyo3..instance..Bound$LT$pyo3..types..any..PyAny$GT$$u20$as$u20$pyo3..types..any..PyAnyMethods$GT$14is_instance_of17h7bd7599baf663d29E', symObjAddr: 0x6C, symBinAddr: 0x27E44, symSize: 0x24 }
  - { offset: 0xA4CEB, size: 0x8, addend: 0x0, symName: '__ZN103_$LT$pyo3..instance..Bound$LT$pyo3..types..any..PyAny$GT$$u20$as$u20$pyo3..types..any..PyAnyMethods$GT$14is_instance_of17ha0aee1219e2f810aE', symObjAddr: 0x90, symBinAddr: 0x27E68, symSize: 0x24 }
  - { offset: 0xA4D22, size: 0x8, addend: 0x0, symName: '__ZN103_$LT$pyo3..instance..Bound$LT$pyo3..types..any..PyAny$GT$$u20$as$u20$pyo3..types..any..PyAnyMethods$GT$14is_instance_of17ha903beed7acf5b46E', symObjAddr: 0xB4, symBinAddr: 0x27E8C, symSize: 0x24 }
  - { offset: 0xA4D59, size: 0x8, addend: 0x0, symName: '__ZN103_$LT$pyo3..instance..Bound$LT$pyo3..types..any..PyAny$GT$$u20$as$u20$pyo3..types..any..PyAnyMethods$GT$14is_instance_of17hb281576f0ced841eE', symObjAddr: 0xD8, symBinAddr: 0x27EB0, symSize: 0x24 }
  - { offset: 0xA4D90, size: 0x8, addend: 0x0, symName: '__ZN103_$LT$pyo3..instance..Bound$LT$pyo3..types..any..PyAny$GT$$u20$as$u20$pyo3..types..any..PyAnyMethods$GT$14is_instance_of17hc219e7f0dcf6dc9cE', symObjAddr: 0xFC, symBinAddr: 0x27ED4, symSize: 0x24 }
  - { offset: 0xA4DC7, size: 0x8, addend: 0x0, symName: '__ZN103_$LT$pyo3..instance..Bound$LT$pyo3..types..any..PyAny$GT$$u20$as$u20$pyo3..types..any..PyAnyMethods$GT$14is_instance_of17hfc31c76eca281ae4E', symObjAddr: 0x120, symBinAddr: 0x27EF8, symSize: 0x24 }
  - { offset: 0xA4DFE, size: 0x8, addend: 0x0, symName: '__ZN103_$LT$pyo3..instance..Bound$LT$pyo3..types..any..PyAny$GT$$u20$as$u20$pyo3..types..any..PyAnyMethods$GT$7extract17h2451d0f5fad46fe4E', symObjAddr: 0x144, symBinAddr: 0x27F1C, symSize: 0x30 }
  - { offset: 0xA4E35, size: 0x8, addend: 0x0, symName: '__ZN103_$LT$pyo3..instance..Bound$LT$pyo3..types..any..PyAny$GT$$u20$as$u20$pyo3..types..any..PyAnyMethods$GT$7extract17h752ec08ad785d2a1E', symObjAddr: 0x174, symBinAddr: 0x27F4C, symSize: 0x30 }
  - { offset: 0xA4E6C, size: 0x8, addend: 0x0, symName: '__ZN103_$LT$pyo3..instance..Bound$LT$pyo3..types..any..PyAny$GT$$u20$as$u20$pyo3..types..any..PyAnyMethods$GT$7extract17hc0856d024b8f58b4E', symObjAddr: 0x1A4, symBinAddr: 0x27F7C, symSize: 0x30 }
  - { offset: 0xA4EC4, size: 0x8, addend: 0x0, symName: '__ZN107_$LT$pyo3..instance..Bound$LT$pyo3..types..dict..PyDict$GT$$u20$as$u20$pyo3..types..dict..PyDictMethods$GT$8get_item17hd32a196f3a15f39bE', symObjAddr: 0x1D4, symBinAddr: 0x27FAC, symSize: 0x134 }
  - { offset: 0xA50BA, size: 0x8, addend: 0x0, symName: '__ZN113_$LT$$RF$pyo3..instance..Bound$LT$T$GT$$u20$as$u20$pyo3..impl_..extract_argument..PyFunctionArgument$LT$_$GT$$GT$7extract17he1a03d1b267eaf3aE', symObjAddr: 0x308, symBinAddr: 0x280E0, symSize: 0xA0 }
  - { offset: 0xA5126, size: 0x8, addend: 0x0, symName: '__ZN4pyo35impl_9pymethods133_$LT$impl$u20$core..convert..From$LT$pyo3..impl_..pymethods..BoundRef$LT$T$GT$$GT$$u20$for$u20$$RF$pyo3..instance..Bound$LT$T$GT$$GT$4from17hd1040471d73c50edE', symObjAddr: 0x530, symBinAddr: 0x28308, symSize: 0x14 }
  - { offset: 0xA5188, size: 0x8, addend: 0x0, symName: __ZN4pyo310conversion15IntoPyObjectExt22into_pyobject_or_pyerr17he673779355f66f4eE, symObjAddr: 0x4E8, symBinAddr: 0x282C0, symSize: 0x48 }
  - { offset: 0xA51FE, size: 0x8, addend: 0x0, symName: '__ZN81_$LT$pyo3..instance..Bound$LT$T$GT$$u20$as$u20$pyo3..conversion..IntoPyObject$GT$13into_pyobject17h75658dd3be0469e8E', symObjAddr: 0xA44, symBinAddr: 0x2881C, symSize: 0x14 }
  - { offset: 0xA552E, size: 0x8, addend: 0x0, symName: '__ZN4pyo38instance14Bound$LT$T$GT$4cast5inner17h82b8ba6181dd864dE', symObjAddr: 0x63C, symBinAddr: 0x28414, symSize: 0x84 }
  - { offset: 0xA5563, size: 0x8, addend: 0x0, symName: '__ZN4pyo38instance14Bound$LT$T$GT$4cast5inner17hf2e009a0f96bc261E', symObjAddr: 0x6C0, symBinAddr: 0x28498, symSize: 0x84 }
  - { offset: 0xA56D4, size: 0x8, addend: 0x0, symName: '__ZN4pyo38instance17Borrowed$LT$T$GT$4cast5inner17h16a866ca93be467eE', symObjAddr: 0x8B4, symBinAddr: 0x2868C, symSize: 0x7C }
  - { offset: 0xA570B, size: 0x8, addend: 0x0, symName: '__ZN4pyo38instance17Borrowed$LT$T$GT$4cast5inner17hebb90d4089ad8948E', symObjAddr: 0x930, symBinAddr: 0x28708, symSize: 0x7C }
  - { offset: 0xA57F7, size: 0x8, addend: 0x0, symName: '__ZN4pyo38instance39Borrowed$LT$pyo3..types..any..PyAny$GT$15from_ptr_or_opt28_$u7b$$u7b$closure$u7d$$u7d$17h98d39cdbe710c972E', symObjAddr: 0x9F0, symBinAddr: 0x287C8, symSize: 0x30 }
  - { offset: 0xA585A, size: 0x8, addend: 0x0, symName: '__ZN74_$LT$pyo3..instance..Bound$LT$T$GT$$u20$as$u20$core..ops..deref..Deref$GT$5deref17h4a804d034bd715c4E', symObjAddr: 0xA20, symBinAddr: 0x287F8, symSize: 0x24 }
  - { offset: 0xA5897, size: 0x8, addend: 0x0, symName: '__ZN90_$LT$pyo3..instance..Borrowed$LT$T$GT$$u20$as$u20$pyo3..instance..BoundObject$LT$T$GT$$GT$8into_any17h5515b835c304c743E', symObjAddr: 0xA58, symBinAddr: 0x28830, symSize: 0x24 }
  - { offset: 0xA600D, size: 0x8, addend: 0x0, symName: '__ZN4pyo38instance11Py$LT$T$GT$8into_any17h3d9cb23f2100ae1aE', symObjAddr: 0x544, symBinAddr: 0x2831C, symSize: 0x30 }
  - { offset: 0xA6039, size: 0x8, addend: 0x0, symName: '__ZN4pyo38instance11Py$LT$T$GT$8into_any17h72b32891061103bbE', symObjAddr: 0x574, symBinAddr: 0x2834C, symSize: 0x30 }
  - { offset: 0xA60CF, size: 0x8, addend: 0x0, symName: '__ZN4pyo38instance14Bound$LT$T$GT$14cast_unchecked17h9c632dde663041a4E', symObjAddr: 0x5A4, symBinAddr: 0x2837C, symSize: 0x38 }
  - { offset: 0xA612F, size: 0x8, addend: 0x0, symName: '__ZN4pyo38instance14Bound$LT$T$GT$4cast17hc04b6f06b4d0edffE', symObjAddr: 0x5DC, symBinAddr: 0x283B4, symSize: 0x30 }
  - { offset: 0xA6170, size: 0x8, addend: 0x0, symName: '__ZN4pyo38instance14Bound$LT$T$GT$4cast17hc68af6cd38c1b010E', symObjAddr: 0x60C, symBinAddr: 0x283E4, symSize: 0x30 }
  - { offset: 0xA61DA, size: 0x8, addend: 0x0, symName: '__ZN4pyo38instance14Bound$LT$T$GT$6as_any17h40ac6008094e75dcE', symObjAddr: 0x744, symBinAddr: 0x2851C, symSize: 0x38 }
  - { offset: 0xA6242, size: 0x8, addend: 0x0, symName: '__ZN4pyo38instance14Bound$LT$T$GT$6unbind17h42d712183dcf7d1dE', symObjAddr: 0x77C, symBinAddr: 0x28554, symSize: 0x3C }
  - { offset: 0xA626E, size: 0x8, addend: 0x0, symName: '__ZN4pyo38instance14Bound$LT$T$GT$6unbind17hdeee3f02f7b1ad10E', symObjAddr: 0x7B8, symBinAddr: 0x28590, symSize: 0x3C }
  - { offset: 0xA629A, size: 0x8, addend: 0x0, symName: '__ZN4pyo38instance14Bound$LT$T$GT$8into_any17h8aa5004178fc1ddeE', symObjAddr: 0x7F4, symBinAddr: 0x285CC, symSize: 0x30 }
  - { offset: 0xA62C6, size: 0x8, addend: 0x0, symName: '__ZN4pyo38instance14Bound$LT$T$GT$8into_any17h91a208a3dfda82a5E', symObjAddr: 0x824, symBinAddr: 0x285FC, symSize: 0x30 }
  - { offset: 0xA62F2, size: 0x8, addend: 0x0, symName: '__ZN4pyo38instance17Borrowed$LT$T$GT$4cast17h7c7211aaef0d0094E', symObjAddr: 0x854, symBinAddr: 0x2862C, symSize: 0x30 }
  - { offset: 0xA6334, size: 0x8, addend: 0x0, symName: '__ZN4pyo38instance17Borrowed$LT$T$GT$4cast17he6e72a6d19615a65E', symObjAddr: 0x884, symBinAddr: 0x2865C, symSize: 0x30 }
  - { offset: 0xA6376, size: 0x8, addend: 0x0, symName: '__ZN4pyo38instance17Borrowed$LT$T$GT$6to_any17h6a104e30e93231e9E', symObjAddr: 0x9AC, symBinAddr: 0x28784, symSize: 0x14 }
  - { offset: 0xA6582, size: 0x8, addend: 0x0, symName: '__ZN4pyo38instance17Borrowed$LT$T$GT$7extract17h68d100ec33326d1cE', symObjAddr: 0x9C0, symBinAddr: 0x28798, symSize: 0x30 }
  - { offset: 0xA666C, size: 0x8, addend: 0x0, symName: __ZN4pyo33err5PyErr3new17h3804de618e8d810bE, symObjAddr: 0x0, symBinAddr: 0x28854, symSize: 0x90 }
  - { offset: 0xA66AE, size: 0x8, addend: 0x0, symName: '__ZN4pyo33err5PyErr3new28_$u7b$$u7b$closure$u7d$$u7d$17ha66003ed303054a1E', symObjAddr: 0x90, symBinAddr: 0x288E4, symSize: 0xC0 }
  - { offset: 0xA8370, size: 0x8, addend: 0x0, symName: __ZN4pyo33err5PyErr3new17h3804de618e8d810bE, symObjAddr: 0x0, symBinAddr: 0x28854, symSize: 0x90 }
  - { offset: 0xA83F9, size: 0x8, addend: 0x0, symName: __ZN4core3fmt2rt8Argument11new_display17h598661397a48acedE, symObjAddr: 0x0, symBinAddr: 0x289A4, symSize: 0x2C }
  - { offset: 0xA8950, size: 0x8, addend: 0x0, symName: __ZN4core3fmt2rt8Argument11new_display17h598661397a48acedE, symObjAddr: 0x0, symBinAddr: 0x289A4, symSize: 0x2C }
  - { offset: 0xA89AF, size: 0x8, addend: 0x0, symName: __ZN4core3fmt2rt8Argument11new_display17hb795a9a87d378694E, symObjAddr: 0x2C, symBinAddr: 0x289D0, symSize: 0x2C }
  - { offset: 0xA89F8, size: 0x8, addend: 0x0, symName: '__ZN10serde_core2de5impls111_$LT$impl$u20$serde_core..de..Deserialize$u20$for$u20$std..collections..hash..map..HashMap$LT$K$C$V$C$S$GT$$GT$11deserialize17h582d93bc1efee9e4E', symObjAddr: 0x0, symBinAddr: 0x289FC, symSize: 0x28 }
  - { offset: 0xA8E49, size: 0x8, addend: 0x0, symName: '__ZN10serde_core2de5impls111_$LT$impl$u20$serde_core..de..Deserialize$u20$for$u20$std..collections..hash..map..HashMap$LT$K$C$V$C$S$GT$$GT$11deserialize17h582d93bc1efee9e4E', symObjAddr: 0x0, symBinAddr: 0x289FC, symSize: 0x28 }
  - { offset: 0xA8EB9, size: 0x8, addend: 0x0, symName: '__ZN10serde_core2de5impls111_$LT$impl$u20$serde_core..de..Deserialize$u20$for$u20$std..collections..hash..map..HashMap$LT$K$C$V$C$S$GT$$GT$11deserialize17h7871131fecbb3990E', symObjAddr: 0x28, symBinAddr: 0x28A24, symSize: 0x1C }
  - { offset: 0xA8F2A, size: 0x8, addend: 0x0, symName: '__ZN10serde_core2de5impls111_$LT$impl$u20$serde_core..de..Deserialize$u20$for$u20$std..collections..hash..map..HashMap$LT$K$C$V$C$S$GT$$GT$11deserialize17h83bddfb4300bc03bE', symObjAddr: 0x44, symBinAddr: 0x28A40, symSize: 0x1C }
  - { offset: 0xA8F9B, size: 0x8, addend: 0x0, symName: '__ZN10serde_core2de5impls111_$LT$impl$u20$serde_core..de..Deserialize$u20$for$u20$std..collections..hash..map..HashMap$LT$K$C$V$C$S$GT$$GT$11deserialize17hfe105cec25b9fc8dE', symObjAddr: 0x60, symBinAddr: 0x28A5C, symSize: 0x28 }
  - { offset: 0xA9FF4, size: 0x8, addend: 0x0, symName: '__ZN3std11collections4hash3map24HashMap$LT$K$C$V$C$S$GT$24with_capacity_and_hasher17h2ccb340c6f6e0a29E', symObjAddr: 0x88, symBinAddr: 0x28A84, symSize: 0x48 }
  - { offset: 0xAA05F, size: 0x8, addend: 0x0, symName: '__ZN3std11collections4hash3map24HashMap$LT$K$C$V$C$S$GT$24with_capacity_and_hasher17hc4b57438c7310383E', symObjAddr: 0xD0, symBinAddr: 0x28ACC, symSize: 0x48 }
  - { offset: 0xAA1D4, size: 0x8, addend: 0x0, symName: __ZN10serde_core2de5Error12invalid_type17hf3e94a0cbe583985E, symObjAddr: 0x0, symBinAddr: 0x26B29C, symSize: 0x74 }
  - { offset: 0xAB90F, size: 0x8, addend: 0x0, symName: __ZN10serde_core2de5Error12invalid_type17hf3e94a0cbe583985E, symObjAddr: 0x0, symBinAddr: 0x26B29C, symSize: 0x74 }
  - { offset: 0xABDDD, size: 0x8, addend: 0x0, symName: '__ZN74_$LT$pythonize..error..PythonizeError$u20$as$u20$serde_core..de..Error$GT$6custom17ha20a94d796792737E', symObjAddr: 0x74, symBinAddr: 0x28B14, symSize: 0xE4 }
  - { offset: 0xABE2F, size: 0x8, addend: 0x0, symName: '__ZN74_$LT$pythonize..error..PythonizeError$u20$as$u20$serde_core..de..Error$GT$6custom17he8605115f0c016c0E', symObjAddr: 0x158, symBinAddr: 0x28BF8, symSize: 0xD4 }
  - { offset: 0xAC7B0, size: 0x8, addend: 0x0, symName: __ZN9pythonize5error14PythonizeError16unsupported_type17h02577698ff0653eeE, symObjAddr: 0x22C, symBinAddr: 0x28CCC, symSize: 0xE4 }
  - { offset: 0xAC812, size: 0x8, addend: 0x0, symName: __ZN9pythonize5error14PythonizeError16unsupported_type17h796cebf554f54be4E, symObjAddr: 0x310, symBinAddr: 0x28DB0, symSize: 0xF8 }
  - { offset: 0xAC85A, size: 0x8, addend: 0x0, symName: __ZN9pythonize5error14PythonizeError3msg17h6808f0b3261cbecbE, symObjAddr: 0x408, symBinAddr: 0x28EA8, symSize: 0xE4 }
  - { offset: 0xACA67, size: 0x8, addend: 0x0, symName: __ZN5serde7private3ser24serialize_tagged_newtype17h052ab9d13ef4df67E, symObjAddr: 0x0, symBinAddr: 0x28F8C, symSize: 0x80 }
  - { offset: 0xACCE8, size: 0x8, addend: 0x0, symName: __ZN5serde7private3ser24serialize_tagged_newtype17h052ab9d13ef4df67E, symObjAddr: 0x0, symBinAddr: 0x28F8C, symSize: 0x80 }
  - { offset: 0xACD6E, size: 0x8, addend: 0x0, symName: __ZN5serde7private3ser24serialize_tagged_newtype17h1f33184f7e0f7597E, symObjAddr: 0x80, symBinAddr: 0x2900C, symSize: 0x80 }
  - { offset: 0xACDF4, size: 0x8, addend: 0x0, symName: __ZN5serde7private3ser24serialize_tagged_newtype17h38ecc294739dca49E, symObjAddr: 0x100, symBinAddr: 0x2908C, symSize: 0x80 }
  - { offset: 0xACE7A, size: 0x8, addend: 0x0, symName: __ZN5serde7private3ser24serialize_tagged_newtype17h49b2b08dddce0b85E, symObjAddr: 0x180, symBinAddr: 0x2910C, symSize: 0x80 }
  - { offset: 0xACF00, size: 0x8, addend: 0x0, symName: __ZN5serde7private3ser24serialize_tagged_newtype17h5d268807fd787bf9E, symObjAddr: 0x200, symBinAddr: 0x2918C, symSize: 0x80 }
  - { offset: 0xACF86, size: 0x8, addend: 0x0, symName: __ZN5serde7private3ser24serialize_tagged_newtype17h60c5b3784ce2f6d8E, symObjAddr: 0x280, symBinAddr: 0x2920C, symSize: 0x80 }
  - { offset: 0xAD00C, size: 0x8, addend: 0x0, symName: __ZN5serde7private3ser24serialize_tagged_newtype17h88982e29cecb81f5E, symObjAddr: 0x300, symBinAddr: 0x2928C, symSize: 0x80 }
  - { offset: 0xAD092, size: 0x8, addend: 0x0, symName: __ZN5serde7private3ser24serialize_tagged_newtype17hb10665e60355be49E, symObjAddr: 0x380, symBinAddr: 0x2930C, symSize: 0x80 }
  - { offset: 0xAD118, size: 0x8, addend: 0x0, symName: __ZN5serde7private3ser24serialize_tagged_newtype17hb78b434dfe2f1185E, symObjAddr: 0x400, symBinAddr: 0x2938C, symSize: 0x80 }
  - { offset: 0xAD1A3, size: 0x8, addend: 0x0, symName: '__ZN94_$LT$serde..private..ser..TaggedSerializer$LT$S$GT$$u20$as$u20$serde_core..ser..Serializer$GT$16serialize_struct17h356e08918271082cE', symObjAddr: 0x480, symBinAddr: 0x2940C, symSize: 0x1D4 }
  - { offset: 0xAEA43, size: 0x8, addend: 0x0, symName: '__ZN4core5slice29_$LT$impl$u20$$u5b$T$u5d$$GT$18split_at_unchecked18precondition_check17h9ea8388c6ae2d6c3E', symObjAddr: 0x0, symBinAddr: 0x295E0, symSize: 0xAC }
  - { offset: 0xAED6A, size: 0x8, addend: 0x0, symName: '__ZN4core5slice29_$LT$impl$u20$$u5b$T$u5d$$GT$18split_at_unchecked18precondition_check17h9ea8388c6ae2d6c3E', symObjAddr: 0x0, symBinAddr: 0x295E0, symSize: 0xAC }
  - { offset: 0xAEF79, size: 0x8, addend: 0x0, symName: '__ZN4pyo35impl_10trampoline6noargs5inner28_$u7b$$u7b$closure$u7d$$u7d$17h0137288da565f43aE', symObjAddr: 0x0, symBinAddr: 0x2968C, symSize: 0x34 }
  - { offset: 0xB03BA, size: 0x8, addend: 0x0, symName: '__ZN4pyo35impl_10trampoline6noargs5inner28_$u7b$$u7b$closure$u7d$$u7d$17h0137288da565f43aE', symObjAddr: 0x0, symBinAddr: 0x2968C, symSize: 0x34 }
  - { offset: 0xB0C8B, size: 0x8, addend: 0x0, symName: __ZN4_rdx21parse_with_transforms9_PYO3_DEF17hf1abb1b89f0dfa93E, symObjAddr: 0x70, symBinAddr: 0x3A4468, symSize: 0x0 }
  - { offset: 0xB2217, size: 0x8, addend: 0x0, symName: '__ZN100_$LT$pyo3..types..tuple..BorrowedTupleIterator$u20$as$u20$core..iter..traits..iterator..Iterator$GT$4next17h4e40aa48c906b7a9E', symObjAddr: 0x0, symBinAddr: 0x296C0, symSize: 0x9C }
  - { offset: 0xB344B, size: 0x8, addend: 0x0, symName: '__ZN100_$LT$pyo3..types..tuple..BorrowedTupleIterator$u20$as$u20$core..iter..traits..iterator..Iterator$GT$4next17h4e40aa48c906b7a9E', symObjAddr: 0x0, symBinAddr: 0x296C0, symSize: 0x9C }
  - { offset: 0xB3B1B, size: 0x8, addend: 0x0, symName: __ZN4_rdx12collect_text9_PYO3_DEF17hc87816cc75ca13f3E, symObjAddr: 0x48, symBinAddr: 0x3A4488, symSize: 0x0 }
  - { offset: 0xB50A7, size: 0x8, addend: 0x0, symName: __ZN4core5slice3raw14from_raw_parts17ha82cd8a4b7d7744aE, symObjAddr: 0x0, symBinAddr: 0x2975C, symSize: 0x58 }
  - { offset: 0xB58D2, size: 0x8, addend: 0x0, symName: __ZN4core5slice3raw14from_raw_parts17ha82cd8a4b7d7744aE, symObjAddr: 0x0, symBinAddr: 0x2975C, symSize: 0x58 }
  - { offset: 0xB5915, size: 0x8, addend: 0x0, symName: __ZN4core5slice3raw14from_raw_parts17hc6c3c1c949ba3d0dE, symObjAddr: 0x58, symBinAddr: 0x297B4, symSize: 0x58 }
  - { offset: 0xB695D, size: 0x8, addend: 0x0, symName: '__ZN82_$LT$serde_json..value..ser..Serializer$u20$as$u20$serde_core..ser..Serializer$GT$12serialize_u817h77bd317ccc73b9deE', symObjAddr: 0x0, symBinAddr: 0x2980C, symSize: 0x28 }
  - { offset: 0xB6BE3, size: 0x8, addend: 0x0, symName: '__ZN82_$LT$serde_json..value..ser..Serializer$u20$as$u20$serde_core..ser..Serializer$GT$12serialize_u817h77bd317ccc73b9deE', symObjAddr: 0x0, symBinAddr: 0x2980C, symSize: 0x28 }
  - { offset: 0xB6C28, size: 0x8, addend: 0x0, symName: '__ZN82_$LT$serde_json..value..ser..Serializer$u20$as$u20$serde_core..ser..Serializer$GT$13serialize_f6417hb7417df0b0678cb2E', symObjAddr: 0x28, symBinAddr: 0x29834, symSize: 0x3C }
  - { offset: 0xB6C6D, size: 0x8, addend: 0x0, symName: '__ZN82_$LT$serde_json..value..ser..Serializer$u20$as$u20$serde_core..ser..Serializer$GT$13serialize_str17hae50f74f7b9e661bE', symObjAddr: 0x64, symBinAddr: 0x29870, symSize: 0x60 }
  - { offset: 0xB6CB2, size: 0x8, addend: 0x0, symName: '__ZN82_$LT$serde_json..value..ser..Serializer$u20$as$u20$serde_core..ser..Serializer$GT$13serialize_u6417h661ebdca5cbf62d6E', symObjAddr: 0xC4, symBinAddr: 0x298D0, symSize: 0x58 }
  - { offset: 0xB6CF7, size: 0x8, addend: 0x0, symName: '__ZN82_$LT$serde_json..value..ser..Serializer$u20$as$u20$serde_core..ser..Serializer$GT$14serialize_bool17ha402db8a02a0668aE', symObjAddr: 0x11C, symBinAddr: 0x29928, symSize: 0x2C }
  - { offset: 0xB6D3C, size: 0x8, addend: 0x0, symName: '__ZN82_$LT$serde_json..value..ser..Serializer$u20$as$u20$serde_core..ser..Serializer$GT$14serialize_none17h10d66f88b6001c3eE', symObjAddr: 0x148, symBinAddr: 0x29954, symSize: 0x1C }
  - { offset: 0xB6D73, size: 0x8, addend: 0x0, symName: '__ZN82_$LT$serde_json..value..ser..Serializer$u20$as$u20$serde_core..ser..Serializer$GT$14serialize_unit17h07a9350cf0426bf3E', symObjAddr: 0x164, symBinAddr: 0x29970, symSize: 0x20 }
  - { offset: 0xB6DAA, size: 0x8, addend: 0x0, symName: '__ZN82_$LT$serde_json..value..ser..Serializer$u20$as$u20$serde_core..ser..Serializer$GT$22serialize_unit_variant17h88afea569089755fE', symObjAddr: 0x184, symBinAddr: 0x29990, symSize: 0x44 }
  - { offset: 0xB6E11, size: 0x8, addend: 0x0, symName: '__ZN88_$LT$serde_json..value..ser..MapKeySerializer$u20$as$u20$serde_core..ser..Serializer$GT$13serialize_str17h397fcce9ed2ba1faE', symObjAddr: 0x1C8, symBinAddr: 0x299D4, symSize: 0x44 }
  - { offset: 0xB7B61, size: 0x8, addend: 0x0, symName: __ZN8pyo3_ffi10boolobject7Py_True17h40c78facdcacfc2cE, symObjAddr: 0x0, symBinAddr: 0x29A18, symSize: 0xC }
  - { offset: 0xB7C34, size: 0x8, addend: 0x0, symName: __ZN8pyo3_ffi10boolobject7Py_True17h40c78facdcacfc2cE, symObjAddr: 0x0, symBinAddr: 0x29A18, symSize: 0xC }
  - { offset: 0xB7C51, size: 0x8, addend: 0x0, symName: __ZN8pyo3_ffi10boolobject8Py_False17ha48f7eb08dd8aea4E, symObjAddr: 0xC, symBinAddr: 0x29A24, symSize: 0xC }
  - { offset: 0xB90D9, size: 0x8, addend: 0x0, symName: '__ZN10serde_core2de5impls87_$LT$impl$u20$serde_core..de..Deserialize$u20$for$u20$core..option..Option$LT$T$GT$$GT$11deserialize17h172b8e9585f73a5bE', symObjAddr: 0x0, symBinAddr: 0x29A30, symSize: 0x14 }
  - { offset: 0xB9D56, size: 0x8, addend: 0x0, symName: '__ZN4core3ptr9const_ptr33_$LT$impl$u20$$BP$const$u20$T$GT$7is_null17h6c23e29a7d812dc6E', symObjAddr: 0x338, symBinAddr: 0x29D68, symSize: 0x18 }
  - { offset: 0xB9FBA, size: 0x8, addend: 0x0, symName: '__ZN4core5slice29_$LT$impl$u20$$u5b$T$u5d$$GT$15copy_from_slice17he9ebbef054881860E', symObjAddr: 0x350, symBinAddr: 0x29D80, symSize: 0xAC }
  - { offset: 0xBA085, size: 0x8, addend: 0x0, symName: '__ZN4core5slice29_$LT$impl$u20$$u5b$T$u5d$$GT$18split_at_unchecked17h13e52c134c27dd29E', symObjAddr: 0x3FC, symBinAddr: 0x29E2C, symSize: 0xEC }
  - { offset: 0xBA211, size: 0x8, addend: 0x0, symName: '__ZN4core5slice29_$LT$impl$u20$$u5b$T$u5d$$GT$8split_at17hf4b60350b3027626E', symObjAddr: 0x4E8, symBinAddr: 0x29F18, symSize: 0xD8 }
  - { offset: 0xBBE45, size: 0x8, addend: 0x0, symName: __ZN4core6option6Option4Some17h08dd36ab44c78559E, symObjAddr: 0xE48, symBinAddr: 0x2A878, symSize: 0x14 }
  - { offset: 0xBBE78, size: 0x8, addend: 0x0, symName: __ZN4core6option6Option4Some17h09c537a1a0837260E, symObjAddr: 0xE5C, symBinAddr: 0x2A88C, symSize: 0x18 }
  - { offset: 0xBBEAB, size: 0x8, addend: 0x0, symName: __ZN4core6option6Option4Some17h169b07765b011c97E, symObjAddr: 0xE74, symBinAddr: 0x2A8A4, symSize: 0x10 }
  - { offset: 0xBBEDE, size: 0x8, addend: 0x0, symName: __ZN4core6option6Option4Some17h2a5560d55ce9c157E, symObjAddr: 0xE84, symBinAddr: 0x2A8B4, symSize: 0x20 }
  - { offset: 0xBBF11, size: 0x8, addend: 0x0, symName: __ZN4core6option6Option4Some17h2b26d60c36f83042E, symObjAddr: 0xEA4, symBinAddr: 0x2A8D4, symSize: 0x14 }
  - { offset: 0xBBF44, size: 0x8, addend: 0x0, symName: __ZN4core6option6Option4Some17h3325571dbefbddd9E, symObjAddr: 0xEB8, symBinAddr: 0x2A8E8, symSize: 0x10 }
  - { offset: 0xBBF77, size: 0x8, addend: 0x0, symName: __ZN4core6option6Option4Some17h3357c46157a9a3e6E, symObjAddr: 0xEC8, symBinAddr: 0x2A8F8, symSize: 0x30 }
  - { offset: 0xBBFAB, size: 0x8, addend: 0x0, symName: __ZN4core6option6Option4Some17h37550ddb70ac0fefE, symObjAddr: 0xEF8, symBinAddr: 0x2A928, symSize: 0x1C }
  - { offset: 0xBBFDE, size: 0x8, addend: 0x0, symName: __ZN4core6option6Option4Some17h399374b89d3753d3E, symObjAddr: 0xF14, symBinAddr: 0x2A944, symSize: 0x10 }
  - { offset: 0xBC011, size: 0x8, addend: 0x0, symName: __ZN4core6option6Option4Some17h47e93ae840f2066eE, symObjAddr: 0xF24, symBinAddr: 0x2A954, symSize: 0x10 }
  - { offset: 0xBC044, size: 0x8, addend: 0x0, symName: __ZN4core6option6Option4Some17h48306911e6669babE, symObjAddr: 0xF34, symBinAddr: 0x2A964, symSize: 0x10 }
  - { offset: 0xBC077, size: 0x8, addend: 0x0, symName: __ZN4core6option6Option4Some17h497a5414f9e26757E, symObjAddr: 0xF44, symBinAddr: 0x2A974, symSize: 0x10 }
  - { offset: 0xBC0AA, size: 0x8, addend: 0x0, symName: __ZN4core6option6Option4Some17h49e44506f3e1e0ffE, symObjAddr: 0xF54, symBinAddr: 0x2A984, symSize: 0x10 }
  - { offset: 0xBC0DD, size: 0x8, addend: 0x0, symName: __ZN4core6option6Option4Some17h4ec2e8274bcdb58dE, symObjAddr: 0xF64, symBinAddr: 0x2A994, symSize: 0x18 }
  - { offset: 0xBC110, size: 0x8, addend: 0x0, symName: __ZN4core6option6Option4Some17h546d6193cd3ec668E, symObjAddr: 0xF7C, symBinAddr: 0x2A9AC, symSize: 0x30 }
  - { offset: 0xBC144, size: 0x8, addend: 0x0, symName: __ZN4core6option6Option4Some17h5f73d065437deaa8E, symObjAddr: 0xFAC, symBinAddr: 0x2A9DC, symSize: 0x18 }
  - { offset: 0xBC177, size: 0x8, addend: 0x0, symName: __ZN4core6option6Option4Some17h63b8c303f04e8aa5E, symObjAddr: 0xFC4, symBinAddr: 0x2A9F4, symSize: 0x10 }
  - { offset: 0xBC1AA, size: 0x8, addend: 0x0, symName: __ZN4core6option6Option4Some17h6591e9353647b1a9E, symObjAddr: 0xFD4, symBinAddr: 0x2AA04, symSize: 0x10 }
  - { offset: 0xBC1DD, size: 0x8, addend: 0x0, symName: __ZN4core6option6Option4Some17h6edb7aa7370a5aa5E, symObjAddr: 0xFE4, symBinAddr: 0x2AA14, symSize: 0x10 }
  - { offset: 0xBC210, size: 0x8, addend: 0x0, symName: __ZN4core6option6Option4Some17h7dbe515da12e2d3aE, symObjAddr: 0xFF4, symBinAddr: 0x2AA24, symSize: 0x30 }
  - { offset: 0xBC244, size: 0x8, addend: 0x0, symName: __ZN4core6option6Option4Some17h7f3cd0adf9a26c46E, symObjAddr: 0x1024, symBinAddr: 0x2AA54, symSize: 0x1C }
  - { offset: 0xBC277, size: 0x8, addend: 0x0, symName: __ZN4core6option6Option4Some17h80d00385f1dc17a6E, symObjAddr: 0x1040, symBinAddr: 0x2AA70, symSize: 0x14 }
  - { offset: 0xBC2AA, size: 0x8, addend: 0x0, symName: __ZN4core6option6Option4Some17h81eb1b71cd9cea3dE, symObjAddr: 0x1054, symBinAddr: 0x2AA84, symSize: 0x10 }
  - { offset: 0xBC2DD, size: 0x8, addend: 0x0, symName: __ZN4core6option6Option4Some17h867a521d8301174cE, symObjAddr: 0x1064, symBinAddr: 0x2AA94, symSize: 0x18 }
  - { offset: 0xBC310, size: 0x8, addend: 0x0, symName: __ZN4core6option6Option4Some17h87078c8bd2ae1ff4E, symObjAddr: 0x107C, symBinAddr: 0x2AAAC, symSize: 0x18 }
  - { offset: 0xBC343, size: 0x8, addend: 0x0, symName: __ZN4core6option6Option4Some17h897002536c962407E, symObjAddr: 0x1094, symBinAddr: 0x2AAC4, symSize: 0x10 }
  - { offset: 0xBC376, size: 0x8, addend: 0x0, symName: __ZN4core6option6Option4Some17h8b73c5bf1dc13b1eE, symObjAddr: 0x10A4, symBinAddr: 0x2AAD4, symSize: 0x14 }
  - { offset: 0xBC3A9, size: 0x8, addend: 0x0, symName: __ZN4core6option6Option4Some17h8d8681cd0084c324E, symObjAddr: 0x10B8, symBinAddr: 0x2AAE8, symSize: 0x30 }
  - { offset: 0xBC3DD, size: 0x8, addend: 0x0, symName: __ZN4core6option6Option4Some17h8f42e5124ef35cf7E, symObjAddr: 0x10E8, symBinAddr: 0x2AB18, symSize: 0x10 }
  - { offset: 0xBC410, size: 0x8, addend: 0x0, symName: __ZN4core6option6Option4Some17h9e7143c0206bf878E, symObjAddr: 0x10F8, symBinAddr: 0x2AB28, symSize: 0x18 }
  - { offset: 0xBC443, size: 0x8, addend: 0x0, symName: __ZN4core6option6Option4Some17ha264c260ed5d5540E, symObjAddr: 0x1110, symBinAddr: 0x2AB40, symSize: 0x18 }
  - { offset: 0xBC476, size: 0x8, addend: 0x0, symName: __ZN4core6option6Option4Some17haff44d5447749c9cE, symObjAddr: 0x1128, symBinAddr: 0x2AB58, symSize: 0x10 }
  - { offset: 0xBC4A9, size: 0x8, addend: 0x0, symName: __ZN4core6option6Option4Some17hb074dd117b505d99E, symObjAddr: 0x1138, symBinAddr: 0x2AB68, symSize: 0x10 }
  - { offset: 0xBC4DC, size: 0x8, addend: 0x0, symName: __ZN4core6option6Option4Some17hb4d7f2ad4b8bb209E, symObjAddr: 0x1148, symBinAddr: 0x2AB78, symSize: 0x10 }
  - { offset: 0xBC50F, size: 0x8, addend: 0x0, symName: __ZN4core6option6Option4Some17hb7f79052239b3a9cE, symObjAddr: 0x1158, symBinAddr: 0x2AB88, symSize: 0x10 }
  - { offset: 0xBC542, size: 0x8, addend: 0x0, symName: __ZN4core6option6Option4Some17hbe2901947f8cadc2E, symObjAddr: 0x1168, symBinAddr: 0x2AB98, symSize: 0x10 }
  - { offset: 0xBC575, size: 0x8, addend: 0x0, symName: __ZN4core6option6Option4Some17hd0dc3f6f09a341a4E, symObjAddr: 0x1178, symBinAddr: 0x2ABA8, symSize: 0x10 }
  - { offset: 0xBC5A8, size: 0x8, addend: 0x0, symName: __ZN4core6option6Option4Some17he6d48f5f0d1cd448E, symObjAddr: 0x1188, symBinAddr: 0x2ABB8, symSize: 0x10 }
  - { offset: 0xBC5DB, size: 0x8, addend: 0x0, symName: __ZN4core6option6Option4Some17hf47c88116f6d642dE, symObjAddr: 0x1198, symBinAddr: 0x2ABC8, symSize: 0x30 }
  - { offset: 0xBC60F, size: 0x8, addend: 0x0, symName: __ZN4core6option6Option4Some17hf890d2f8c4d06722E, symObjAddr: 0x11C8, symBinAddr: 0x2ABF8, symSize: 0x14 }
  - { offset: 0xBC642, size: 0x8, addend: 0x0, symName: __ZN4core6option6Option4Some17hfdf02fa3cc8d4347E, symObjAddr: 0x11DC, symBinAddr: 0x2AC0C, symSize: 0x3C }
  - { offset: 0xBC67D, size: 0x8, addend: 0x0, symName: '__ZN72_$LT$core..option..Option$LT$T$GT$$u20$as$u20$core..default..Default$GT$7default17h5bd048b0404ffa41E', symObjAddr: 0x1218, symBinAddr: 0x2AC48, symSize: 0x10 }
  - { offset: 0xBE632, size: 0x8, addend: 0x0, symName: '__ZN10serde_core2de5impls87_$LT$impl$u20$serde_core..de..Deserialize$u20$for$u20$core..option..Option$LT$T$GT$$GT$11deserialize17h172b8e9585f73a5bE', symObjAddr: 0x0, symBinAddr: 0x29A30, symSize: 0x14 }
  - { offset: 0xBE673, size: 0x8, addend: 0x0, symName: '__ZN10serde_core2de5impls87_$LT$impl$u20$serde_core..de..Deserialize$u20$for$u20$core..option..Option$LT$T$GT$$GT$11deserialize17h22035083789ce71cE', symObjAddr: 0x14, symBinAddr: 0x29A44, symSize: 0x28 }
  - { offset: 0xBE6B3, size: 0x8, addend: 0x0, symName: '__ZN10serde_core2de5impls87_$LT$impl$u20$serde_core..de..Deserialize$u20$for$u20$core..option..Option$LT$T$GT$$GT$11deserialize17h37149743ef3be739E', symObjAddr: 0x3C, symBinAddr: 0x29A6C, symSize: 0x14 }
  - { offset: 0xBE6F4, size: 0x8, addend: 0x0, symName: '__ZN10serde_core2de5impls87_$LT$impl$u20$serde_core..de..Deserialize$u20$for$u20$core..option..Option$LT$T$GT$$GT$11deserialize17h48725b306b7d93b6E', symObjAddr: 0x50, symBinAddr: 0x29A80, symSize: 0x14 }
  - { offset: 0xBE735, size: 0x8, addend: 0x0, symName: '__ZN10serde_core2de5impls87_$LT$impl$u20$serde_core..de..Deserialize$u20$for$u20$core..option..Option$LT$T$GT$$GT$11deserialize17h56a4dca41a83720bE', symObjAddr: 0x64, symBinAddr: 0x29A94, symSize: 0x14 }
  - { offset: 0xBE776, size: 0x8, addend: 0x0, symName: '__ZN10serde_core2de5impls87_$LT$impl$u20$serde_core..de..Deserialize$u20$for$u20$core..option..Option$LT$T$GT$$GT$11deserialize17h5fbbef127dce2fa8E', symObjAddr: 0x78, symBinAddr: 0x29AA8, symSize: 0x28 }
  - { offset: 0xBE7B6, size: 0x8, addend: 0x0, symName: '__ZN10serde_core2de5impls87_$LT$impl$u20$serde_core..de..Deserialize$u20$for$u20$core..option..Option$LT$T$GT$$GT$11deserialize17h73197b4a6e492977E', symObjAddr: 0xA0, symBinAddr: 0x29AD0, symSize: 0x14 }
  - { offset: 0xBE7F7, size: 0x8, addend: 0x0, symName: '__ZN10serde_core2de5impls87_$LT$impl$u20$serde_core..de..Deserialize$u20$for$u20$core..option..Option$LT$T$GT$$GT$11deserialize17h9cef0b7da37386c2E', symObjAddr: 0xB4, symBinAddr: 0x29AE4, symSize: 0x28 }
  - { offset: 0xBE837, size: 0x8, addend: 0x0, symName: '__ZN10serde_core2de5impls87_$LT$impl$u20$serde_core..de..Deserialize$u20$for$u20$core..option..Option$LT$T$GT$$GT$11deserialize17hb54e87b5b76cf748E', symObjAddr: 0xDC, symBinAddr: 0x29B0C, symSize: 0x14 }
  - { offset: 0xBE878, size: 0x8, addend: 0x0, symName: '__ZN10serde_core2de5impls87_$LT$impl$u20$serde_core..de..Deserialize$u20$for$u20$core..option..Option$LT$T$GT$$GT$11deserialize17heb4352b2ec2a1c17E', symObjAddr: 0xF0, symBinAddr: 0x29B20, symSize: 0x28 }
  - { offset: 0xBE8CA, size: 0x8, addend: 0x0, symName: '__ZN10serde_core3ser5impls62_$LT$impl$u20$serde_core..ser..Serialize$u20$for$u20$$RF$T$GT$9serialize17h351e5692d969e694E', symObjAddr: 0x118, symBinAddr: 0x29B48, symSize: 0x28 }
  - { offset: 0xBE919, size: 0x8, addend: 0x0, symName: '__ZN10serde_core3ser5impls62_$LT$impl$u20$serde_core..ser..Serialize$u20$for$u20$$RF$T$GT$9serialize17h69741f0f13c32872E', symObjAddr: 0x140, symBinAddr: 0x29B70, symSize: 0x28 }
  - { offset: 0xBE968, size: 0x8, addend: 0x0, symName: '__ZN10serde_core3ser5impls62_$LT$impl$u20$serde_core..ser..Serialize$u20$for$u20$$RF$T$GT$9serialize17hb2b67a07decf5067E', symObjAddr: 0x168, symBinAddr: 0x29B98, symSize: 0x28 }
  - { offset: 0xBE9B7, size: 0x8, addend: 0x0, symName: '__ZN10serde_core3ser5impls62_$LT$impl$u20$serde_core..ser..Serialize$u20$for$u20$$RF$T$GT$9serialize17hd15649fb526d17a3E', symObjAddr: 0x190, symBinAddr: 0x29BC0, symSize: 0x28 }
  - { offset: 0xBEA0C, size: 0x8, addend: 0x0, symName: '__ZN10serde_core3ser5impls86_$LT$impl$u20$serde_core..ser..Serialize$u20$for$u20$core..option..Option$LT$T$GT$$GT$9serialize17h339afc702ddac8a7E', symObjAddr: 0x1B8, symBinAddr: 0x29BE8, symSize: 0x60 }
  - { offset: 0xBEA75, size: 0x8, addend: 0x0, symName: '__ZN10serde_core3ser5impls86_$LT$impl$u20$serde_core..ser..Serialize$u20$for$u20$core..option..Option$LT$T$GT$$GT$9serialize17h510a4b5d16b1dd0dE', symObjAddr: 0x218, symBinAddr: 0x29C48, symSize: 0x5C }
  - { offset: 0xBEADE, size: 0x8, addend: 0x0, symName: '__ZN10serde_core3ser5impls86_$LT$impl$u20$serde_core..ser..Serialize$u20$for$u20$core..option..Option$LT$T$GT$$GT$9serialize17hec7c6eee8d8252c2E', symObjAddr: 0x274, symBinAddr: 0x29CA4, symSize: 0x64 }
  - { offset: 0xBEB47, size: 0x8, addend: 0x0, symName: '__ZN10serde_core3ser5impls86_$LT$impl$u20$serde_core..ser..Serialize$u20$for$u20$core..option..Option$LT$T$GT$$GT$9serialize17hf06d6856ccb9272eE', symObjAddr: 0x2D8, symBinAddr: 0x29D08, symSize: 0x60 }
  - { offset: 0xC03EC, size: 0x8, addend: 0x0, symName: '__ZN4core6option15Option$LT$T$GT$10ok_or_else17h1e69e047096b9fecE', symObjAddr: 0x5C0, symBinAddr: 0x29FF0, symSize: 0x68 }
  - { offset: 0xC0458, size: 0x8, addend: 0x0, symName: '__ZN4core6option15Option$LT$T$GT$10ok_or_else17h1eba1bb3cea595c3E', symObjAddr: 0x628, symBinAddr: 0x2A058, symSize: 0x68 }
  - { offset: 0xC04C4, size: 0x8, addend: 0x0, symName: '__ZN4core6option15Option$LT$T$GT$10ok_or_else17h6bc5b26961fc55dbE', symObjAddr: 0x690, symBinAddr: 0x2A0C0, symSize: 0x90 }
  - { offset: 0xC05BC, size: 0x8, addend: 0x0, symName: '__ZN4core6option15Option$LT$T$GT$10ok_or_else17h753b86e6eb8e70e8E', symObjAddr: 0x720, symBinAddr: 0x2A150, symSize: 0x68 }
  - { offset: 0xC0635, size: 0x8, addend: 0x0, symName: '__ZN4core6option15Option$LT$T$GT$3map17h01c1bccb241b4ab3E', symObjAddr: 0x788, symBinAddr: 0x2A1B8, symSize: 0x5C }
  - { offset: 0xC06AD, size: 0x8, addend: 0x0, symName: '__ZN4core6option15Option$LT$T$GT$3map17h5420c1dc0fdac1f1E', symObjAddr: 0x7E4, symBinAddr: 0x2A214, symSize: 0x50 }
  - { offset: 0xC0790, size: 0x8, addend: 0x0, symName: '__ZN4core6option15Option$LT$T$GT$4take17h2f735d9473641ae2E', symObjAddr: 0x834, symBinAddr: 0x2A264, symSize: 0x20 }
  - { offset: 0xC0871, size: 0x8, addend: 0x0, symName: '__ZN4core6option15Option$LT$T$GT$4take17h8f7a1100396341c2E', symObjAddr: 0x854, symBinAddr: 0x2A284, symSize: 0x3C }
  - { offset: 0xC08C8, size: 0x8, addend: 0x0, symName: '__ZN4core6option15Option$LT$T$GT$4take17ha7b715149d3365a4E', symObjAddr: 0x890, symBinAddr: 0x2A2C0, symSize: 0x3C }
  - { offset: 0xC091F, size: 0x8, addend: 0x0, symName: '__ZN4core6option15Option$LT$T$GT$4take17hdc64b16fc540fc33E', symObjAddr: 0x8CC, symBinAddr: 0x2A2FC, symSize: 0x20 }
  - { offset: 0xC0976, size: 0x8, addend: 0x0, symName: '__ZN4core6option15Option$LT$T$GT$4take17hf6dbf6df6bb02f6dE', symObjAddr: 0x8EC, symBinAddr: 0x2A31C, symSize: 0x40 }
  - { offset: 0xC09EB, size: 0x8, addend: 0x0, symName: '__ZN4core6option15Option$LT$T$GT$6expect17h220341d5b5d3449dE', symObjAddr: 0x92C, symBinAddr: 0x2A35C, symSize: 0x5C }
  - { offset: 0xC0A26, size: 0x8, addend: 0x0, symName: '__ZN4core6option15Option$LT$T$GT$6expect17h230c3104954b6b1bE', symObjAddr: 0x988, symBinAddr: 0x2A3B8, symSize: 0x74 }
  - { offset: 0xC0A62, size: 0x8, addend: 0x0, symName: '__ZN4core6option15Option$LT$T$GT$6expect17h3c7c68d78e1038d0E', symObjAddr: 0x9FC, symBinAddr: 0x2A42C, symSize: 0x70 }
  - { offset: 0xC0A9E, size: 0x8, addend: 0x0, symName: '__ZN4core6option15Option$LT$T$GT$6expect17h981288be389b4d94E', symObjAddr: 0xA6C, symBinAddr: 0x2A49C, symSize: 0x5C }
  - { offset: 0xC0B49, size: 0x8, addend: 0x0, symName: '__ZN4core6option15Option$LT$T$GT$6insert17hbd918f103e01a1a3E', symObjAddr: 0xAC8, symBinAddr: 0x2A4F8, symSize: 0x7C }
  - { offset: 0xC0BEC, size: 0x8, addend: 0x0, symName: '__ZN4core6option15Option$LT$T$GT$7is_some17h11e9d435a3226743E', symObjAddr: 0xB44, symBinAddr: 0x2A574, symSize: 0x2C }
  - { offset: 0xC0C25, size: 0x8, addend: 0x0, symName: '__ZN4core6option15Option$LT$T$GT$7is_some17h1fd11bc01c226c05E', symObjAddr: 0xB70, symBinAddr: 0x2A5A0, symSize: 0x28 }
  - { offset: 0xC0C5E, size: 0x8, addend: 0x0, symName: '__ZN4core6option15Option$LT$T$GT$7is_some17h2048131d1fa95d9aE', symObjAddr: 0xB98, symBinAddr: 0x2A5C8, symSize: 0x20 }
  - { offset: 0xC0C97, size: 0x8, addend: 0x0, symName: '__ZN4core6option15Option$LT$T$GT$7is_some17h2a79ce659324ce19E', symObjAddr: 0xBB8, symBinAddr: 0x2A5E8, symSize: 0x2C }
  - { offset: 0xC0CD0, size: 0x8, addend: 0x0, symName: '__ZN4core6option15Option$LT$T$GT$7is_some17h3496abe8cef2645cE', symObjAddr: 0xBE4, symBinAddr: 0x2A614, symSize: 0x2C }
  - { offset: 0xC0D09, size: 0x8, addend: 0x0, symName: '__ZN4core6option15Option$LT$T$GT$7is_some17h52a8abbf560ba667E', symObjAddr: 0xC10, symBinAddr: 0x2A640, symSize: 0x28 }
  - { offset: 0xC0ED1, size: 0x8, addend: 0x0, symName: '__ZN4core6option15Option$LT$T$GT$7is_some17h5e8fda64b8e6494fE', symObjAddr: 0xC38, symBinAddr: 0x2A668, symSize: 0x28 }
  - { offset: 0xC0F0A, size: 0x8, addend: 0x0, symName: '__ZN4core6option15Option$LT$T$GT$7is_some17h633bc512de6bd721E', symObjAddr: 0xC60, symBinAddr: 0x2A690, symSize: 0x2C }
  - { offset: 0xC0F43, size: 0x8, addend: 0x0, symName: '__ZN4core6option15Option$LT$T$GT$7is_some17h67beea5b10c891baE', symObjAddr: 0xC8C, symBinAddr: 0x2A6BC, symSize: 0x28 }
  - { offset: 0xC0F7C, size: 0x8, addend: 0x0, symName: '__ZN4core6option15Option$LT$T$GT$7is_some17h7615e308a13fe6feE', symObjAddr: 0xCB4, symBinAddr: 0x2A6E4, symSize: 0x2C }
  - { offset: 0xC0FB5, size: 0x8, addend: 0x0, symName: '__ZN4core6option15Option$LT$T$GT$7is_some17h762b72e89f4288c0E', symObjAddr: 0xCE0, symBinAddr: 0x2A710, symSize: 0x24 }
  - { offset: 0xC0FEE, size: 0x8, addend: 0x0, symName: '__ZN4core6option15Option$LT$T$GT$7is_some17h83ae54529f164005E', symObjAddr: 0xD04, symBinAddr: 0x2A734, symSize: 0x20 }
  - { offset: 0xC1027, size: 0x8, addend: 0x0, symName: '__ZN4core6option15Option$LT$T$GT$7is_some17hb847defc08882fc8E', symObjAddr: 0xD24, symBinAddr: 0x2A754, symSize: 0x2C }
  - { offset: 0xC1060, size: 0x8, addend: 0x0, symName: '__ZN4core6option15Option$LT$T$GT$7is_some17hbcbc4cfebccf7776E', symObjAddr: 0xD50, symBinAddr: 0x2A780, symSize: 0x28 }
  - { offset: 0xC1099, size: 0x8, addend: 0x0, symName: '__ZN4core6option15Option$LT$T$GT$7is_some17hc924fffe6e1feffcE', symObjAddr: 0xD78, symBinAddr: 0x2A7A8, symSize: 0x28 }
  - { offset: 0xC10D2, size: 0x8, addend: 0x0, symName: '__ZN4core6option15Option$LT$T$GT$7is_some17hd836e1a8ff1827adE', symObjAddr: 0xDA0, symBinAddr: 0x2A7D0, symSize: 0x28 }
  - { offset: 0xC110B, size: 0x8, addend: 0x0, symName: '__ZN4core6option15Option$LT$T$GT$7is_some17he5a2bb2649f0112cE', symObjAddr: 0xDC8, symBinAddr: 0x2A7F8, symSize: 0x28 }
  - { offset: 0xC1144, size: 0x8, addend: 0x0, symName: '__ZN4core6option15Option$LT$T$GT$7is_some17hf55366e5a2cbab86E', symObjAddr: 0xDF0, symBinAddr: 0x2A820, symSize: 0x30 }
  - { offset: 0xC1170, size: 0x8, addend: 0x0, symName: '__ZN4core6option15Option$LT$T$GT$7replace17h4b23c96d490036beE', symObjAddr: 0xE20, symBinAddr: 0x2A850, symSize: 0x28 }
  - { offset: 0xC1336, size: 0x8, addend: 0x0, symName: '__ZN4pyo35types5float64_$LT$impl$u20$pyo3..conversion..IntoPyObject$u20$for$u20$f64$GT$13into_pyobject17hbe7eda0d6a814425E', symObjAddr: 0x0, symBinAddr: 0x2AC58, symSize: 0x20 }
  - { offset: 0xC25B6, size: 0x8, addend: 0x0, symName: '__ZN4pyo35types5float64_$LT$impl$u20$pyo3..conversion..IntoPyObject$u20$for$u20$f64$GT$13into_pyobject17hbe7eda0d6a814425E', symObjAddr: 0x0, symBinAddr: 0x2AC58, symSize: 0x20 }
  - { offset: 0xC2601, size: 0x8, addend: 0x0, symName: '__ZN77_$LT$pyo3..types..float..PyFloat$u20$as$u20$pyo3..type_object..PyTypeInfo$GT$10is_type_of17hecb42f427e93b4e4E', symObjAddr: 0x20, symBinAddr: 0x2AC78, symSize: 0x30 }
  - { offset: 0xC2C50, size: 0x8, addend: 0x0, symName: __ZN4pyo310exceptions10PyKeyError7new_err17he5aac66d9523c57fE, symObjAddr: 0x0, symBinAddr: 0x2ACA8, symSize: 0x24 }
  - { offset: 0xC409C, size: 0x8, addend: 0x0, symName: '__ZN78_$LT$pyo3..exceptions..PyKeyError$u20$as$u20$pyo3..type_object..PyTypeInfo$GT$15type_object_raw28_$u7b$$u7b$closure$u7d$$u7d$17hdb51a7c870de58bfE', symObjAddr: 0x54, symBinAddr: 0x2ACFC, symSize: 0x4C }
  - { offset: 0xC429D, size: 0x8, addend: 0x0, symName: __ZN4pyo311type_object10PyTypeInfo11type_object17h470ec1baa406f75aE, symObjAddr: 0x24, symBinAddr: 0x2ACCC, symSize: 0x30 }
  - { offset: 0xC49BC, size: 0x8, addend: 0x0, symName: __ZN4pyo310exceptions10PyKeyError7new_err17he5aac66d9523c57fE, symObjAddr: 0x0, symBinAddr: 0x2ACA8, symSize: 0x24 }
  - { offset: 0xC4A2C, size: 0x8, addend: 0x0, symName: '__ZN58_$LT$alloc..string..String$u20$as$u20$core..fmt..Write$GT$10write_char17he4bcd700e46b7bc3E', symObjAddr: 0x0, symBinAddr: 0x2AD48, symSize: 0x30 }
  - { offset: 0xC4A48, size: 0x8, addend: 0x0, symName: '__ZN58_$LT$alloc..string..String$u20$as$u20$core..fmt..Write$GT$10write_char17he4bcd700e46b7bc3E', symObjAddr: 0x0, symBinAddr: 0x2AD48, symSize: 0x30 }
  - { offset: 0xC4A85, size: 0x8, addend: 0x0, symName: '__ZN58_$LT$alloc..string..String$u20$as$u20$core..fmt..Write$GT$9write_str17hb9828031170fbf36E', symObjAddr: 0x30, symBinAddr: 0x2AD78, symSize: 0x38 }
  - { offset: 0xC4BB1, size: 0x8, addend: 0x0, symName: '__ZN65_$LT$alloc..string..String$u20$as$u20$core..ops..deref..Deref$GT$5deref17h9754544f46204fa9E', symObjAddr: 0x3A4, symBinAddr: 0x2B0EC, symSize: 0x24 }
  - { offset: 0xC4BE5, size: 0x8, addend: 0x0, symName: '__ZN76_$LT$alloc..string..String$u20$as$u20$core..convert..From$LT$$RF$str$GT$$GT$4from17hfe3ef7da6082f9e2E', symObjAddr: 0x3C8, symBinAddr: 0x2B110, symSize: 0x50 }
  - { offset: 0xC4D0C, size: 0x8, addend: 0x0, symName: '__ZN77_$LT$alloc..string..String$u20$as$u20$core..cmp..PartialEq$LT$$RF$str$GT$$GT$2eq17h571f77c1b03390deE', symObjAddr: 0x418, symBinAddr: 0x2B160, symSize: 0x10C }
  - { offset: 0xC5A80, size: 0x8, addend: 0x0, symName: __ZN5alloc6string13FromUtf8Error10into_bytes17h7e7ad4e78034560cE, symObjAddr: 0x68, symBinAddr: 0x2ADB0, symSize: 0x18 }
  - { offset: 0xC5C7B, size: 0x8, addend: 0x0, symName: __ZN5alloc6string6String4push17h4b427fce66be5b0eE, symObjAddr: 0x80, symBinAddr: 0x2ADC8, symSize: 0x114 }
  - { offset: 0xC5FA1, size: 0x8, addend: 0x0, symName: __ZN5alloc6string6String6as_str17h3d2bc398adc1c6a7E, symObjAddr: 0x194, symBinAddr: 0x2AEDC, symSize: 0x70 }
  - { offset: 0xC616F, size: 0x8, addend: 0x0, symName: __ZN5alloc6string6String8push_str17h805d02a12fba827bE, symObjAddr: 0x204, symBinAddr: 0x2AF4C, symSize: 0x50 }
  - { offset: 0xC6350, size: 0x8, addend: 0x0, symName: __ZN5alloc6string6String9from_utf817h9431b2c9daf9ebbdE, symObjAddr: 0x254, symBinAddr: 0x2AF9C, symSize: 0x150 }
  - { offset: 0xC6558, size: 0x8, addend: 0x0, symName: '__ZN50_$LT$T$u20$as$u20$core..convert..Into$LT$U$GT$$GT$4into17hc441d1cdbad5be6eE', symObjAddr: 0x0, symBinAddr: 0x2B26C, symSize: 0x24 }
  - { offset: 0xC6D8A, size: 0x8, addend: 0x0, symName: '__ZN50_$LT$T$u20$as$u20$core..convert..Into$LT$U$GT$$GT$4into17hc441d1cdbad5be6eE', symObjAddr: 0x0, symBinAddr: 0x2B26C, symSize: 0x24 }
  - { offset: 0xC7D50, size: 0x8, addend: 0x0, symName: __ZN10serde_core2de12Deserializer24__deserialize_content_v117h97cee350333b7720E, symObjAddr: 0x0, symBinAddr: 0x2B290, symSize: 0x1C }
  - { offset: 0xC7EBF, size: 0x8, addend: 0x0, symName: __ZN10serde_core2de12Deserializer24__deserialize_content_v117h97cee350333b7720E, symObjAddr: 0x0, symBinAddr: 0x2B290, symSize: 0x1C }
  - { offset: 0xC7F2E, size: 0x8, addend: 0x0, symName: '__ZN10serde_core3ser5impls62_$LT$impl$u20$serde_core..ser..Serialize$u20$for$u20$$RF$T$GT$9serialize17h26f2561eb6c50774E', symObjAddr: 0x1C, symBinAddr: 0x2B2AC, symSize: 0x28 }
  - { offset: 0xC7F7D, size: 0x8, addend: 0x0, symName: '__ZN10serde_core3ser5impls62_$LT$impl$u20$serde_core..ser..Serialize$u20$for$u20$$RF$T$GT$9serialize17h552be8004fe21ce3E', symObjAddr: 0x44, symBinAddr: 0x2B2D4, symSize: 0x28 }
  - { offset: 0xC7FCC, size: 0x8, addend: 0x0, symName: '__ZN10serde_core3ser5impls62_$LT$impl$u20$serde_core..ser..Serialize$u20$for$u20$$RF$T$GT$9serialize17ha76d26df757210fbE', symObjAddr: 0x6C, symBinAddr: 0x2B2FC, symSize: 0x28 }
  - { offset: 0xCB132, size: 0x8, addend: 0x0, symName: __ZN10serde_json5value10from_value17h491d3d4af34fcc38E, symObjAddr: 0x94, symBinAddr: 0x2B324, symSize: 0x14 }
  - { offset: 0xCB16A, size: 0x8, addend: 0x0, symName: __ZN10serde_json5value10from_value17h8b309d7c4a8526b4E, symObjAddr: 0xA8, symBinAddr: 0x2B338, symSize: 0x14 }
  - { offset: 0xCB1AC, size: 0x8, addend: 0x0, symName: '__ZN10serde_json5value2de82_$LT$impl$u20$serde_core..de..Deserialize$u20$for$u20$serde_json..value..Value$GT$11deserialize17h00a6dd8339b7320bE', symObjAddr: 0xBC, symBinAddr: 0x2B34C, symSize: 0x24 }
  - { offset: 0xCB1E1, size: 0x8, addend: 0x0, symName: '__ZN10serde_json5value2de82_$LT$impl$u20$serde_core..de..Deserialize$u20$for$u20$serde_json..value..Value$GT$11deserialize17h29a5771dce7a16b6E', symObjAddr: 0xE0, symBinAddr: 0x2B370, symSize: 0x24 }
  - { offset: 0xCB216, size: 0x8, addend: 0x0, symName: '__ZN10serde_json5value2de82_$LT$impl$u20$serde_core..de..Deserialize$u20$for$u20$serde_json..value..Value$GT$11deserialize17hc69dcfcdc46d3b5cE', symObjAddr: 0x104, symBinAddr: 0x2B394, symSize: 0x14 }
  - { offset: 0xCB260, size: 0x8, addend: 0x0, symName: '__ZN10serde_json5value2de83_$LT$impl$u20$serde_core..de..Deserializer$u20$for$u20$serde_json..value..Value$GT$15deserialize_any17h0e7d6a4a9cd04d10E', symObjAddr: 0x118, symBinAddr: 0x2B3A8, symSize: 0x148 }
  - { offset: 0xCB33E, size: 0x8, addend: 0x0, symName: '__ZN10serde_json5value2de83_$LT$impl$u20$serde_core..de..Deserializer$u20$for$u20$serde_json..value..Value$GT$15deserialize_any17hacd34d5b984645f6E', symObjAddr: 0x260, symBinAddr: 0x2B4F0, symSize: 0x12C }
  - { offset: 0xCB41B, size: 0x8, addend: 0x0, symName: '__ZN10serde_json5value2de83_$LT$impl$u20$serde_core..de..Deserializer$u20$for$u20$serde_json..value..Value$GT$15deserialize_any17hed641d3dadf55d00E', symObjAddr: 0x38C, symBinAddr: 0x2B61C, symSize: 0x12C }
  - { offset: 0xCB4F8, size: 0x8, addend: 0x0, symName: '__ZN10serde_json5value2de83_$LT$impl$u20$serde_core..de..Deserializer$u20$for$u20$serde_json..value..Value$GT$15deserialize_map17hb2a2aecaf990969bE', symObjAddr: 0x4B8, symBinAddr: 0x2B748, symSize: 0x114 }
  - { offset: 0xCB555, size: 0x8, addend: 0x0, symName: '__ZN10serde_json5value2de83_$LT$impl$u20$serde_core..de..Deserializer$u20$for$u20$serde_json..value..Value$GT$15deserialize_map17hde06c01c94c08c06E', symObjAddr: 0x5CC, symBinAddr: 0x2B85C, symSize: 0x114 }
  - { offset: 0xCB5B2, size: 0x8, addend: 0x0, symName: '__ZN10serde_json5value2de83_$LT$impl$u20$serde_core..de..Deserializer$u20$for$u20$serde_json..value..Value$GT$15deserialize_seq17h37e9eb2e42bc0cbcE', symObjAddr: 0x6E0, symBinAddr: 0x2B970, symSize: 0x118 }
  - { offset: 0xCB60F, size: 0x8, addend: 0x0, symName: '__ZN10serde_json5value2de83_$LT$impl$u20$serde_core..de..Deserializer$u20$for$u20$serde_json..value..Value$GT$15deserialize_seq17hcc54c64ad5206e08E', symObjAddr: 0x7F8, symBinAddr: 0x2BA88, symSize: 0x118 }
  - { offset: 0xCB66C, size: 0x8, addend: 0x0, symName: '__ZN10serde_json5value2de83_$LT$impl$u20$serde_core..de..Deserializer$u20$for$u20$serde_json..value..Value$GT$15deserialize_u6417he62a234455ff11baE', symObjAddr: 0x910, symBinAddr: 0x2BBA0, symSize: 0x124 }
  - { offset: 0xCB6C5, size: 0x8, addend: 0x0, symName: '__ZN10serde_json5value2de83_$LT$impl$u20$serde_core..de..Deserializer$u20$for$u20$serde_json..value..Value$GT$16deserialize_bool17h2ae0180a45088fbbE', symObjAddr: 0xA34, symBinAddr: 0x2BCC4, symSize: 0xEC }
  - { offset: 0xCB722, size: 0x8, addend: 0x0, symName: '__ZN10serde_json5value2de83_$LT$impl$u20$serde_core..de..Deserializer$u20$for$u20$serde_json..value..Value$GT$16deserialize_enum17h6b116fedc4dd33d2E', symObjAddr: 0xB20, symBinAddr: 0x2BDB0, symSize: 0x268 }
  - { offset: 0xCB7CD, size: 0x8, addend: 0x0, symName: '__ZN10serde_json5value2de83_$LT$impl$u20$serde_core..de..Deserializer$u20$for$u20$serde_json..value..Value$GT$16deserialize_enum17hbb4daeb8800d91cbE', symObjAddr: 0xD88, symBinAddr: 0x2C018, symSize: 0x254 }
  - { offset: 0xCB878, size: 0x8, addend: 0x0, symName: '__ZN10serde_json5value2de83_$LT$impl$u20$serde_core..de..Deserializer$u20$for$u20$serde_json..value..Value$GT$18deserialize_option17h04c3abbf950ed61fE', symObjAddr: 0xFDC, symBinAddr: 0x2C26C, symSize: 0xC0 }
  - { offset: 0xCB8BF, size: 0x8, addend: 0x0, symName: '__ZN10serde_json5value2de83_$LT$impl$u20$serde_core..de..Deserializer$u20$for$u20$serde_json..value..Value$GT$18deserialize_option17h6f64211d97f4cb6bE', symObjAddr: 0x109C, symBinAddr: 0x2C32C, symSize: 0xC0 }
  - { offset: 0xCB906, size: 0x8, addend: 0x0, symName: '__ZN10serde_json5value2de83_$LT$impl$u20$serde_core..de..Deserializer$u20$for$u20$serde_json..value..Value$GT$18deserialize_option17hfc6c390b9c211490E', symObjAddr: 0x115C, symBinAddr: 0x2C3EC, symSize: 0xC0 }
  - { offset: 0xCB94D, size: 0x8, addend: 0x0, symName: '__ZN10serde_json5value2de83_$LT$impl$u20$serde_core..de..Deserializer$u20$for$u20$serde_json..value..Value$GT$18deserialize_string17h86a8af213494ca76E', symObjAddr: 0x121C, symBinAddr: 0x2C4AC, symSize: 0x118 }
  - { offset: 0xCB9AA, size: 0x8, addend: 0x0, symName: '__ZN10serde_json5value2de83_$LT$impl$u20$serde_core..de..Deserializer$u20$for$u20$serde_json..value..Value$GT$18deserialize_string17h8904ed5e31e1fd4fE', symObjAddr: 0x1334, symBinAddr: 0x2C5C4, symSize: 0x118 }
  - { offset: 0xCBA07, size: 0x8, addend: 0x0, symName: '__ZN10serde_json5value2de83_$LT$impl$u20$serde_core..de..Deserializer$u20$for$u20$serde_json..value..Value$GT$18deserialize_struct17h31d99e1f8dda116dE', symObjAddr: 0x144C, symBinAddr: 0x2C6DC, symSize: 0x170 }
  - { offset: 0xCBA99, size: 0x8, addend: 0x0, symName: '__ZN10serde_json5value2de83_$LT$impl$u20$serde_core..de..Deserializer$u20$for$u20$serde_json..value..Value$GT$18deserialize_struct17h39156b4a60068b7aE', symObjAddr: 0x15BC, symBinAddr: 0x2C84C, symSize: 0x170 }
  - { offset: 0xCBB2B, size: 0x8, addend: 0x0, symName: '__ZN10serde_json5value2de83_$LT$impl$u20$serde_core..de..Deserializer$u20$for$u20$serde_json..value..Value$GT$18deserialize_struct17h558a669e43bda57bE', symObjAddr: 0x172C, symBinAddr: 0x2C9BC, symSize: 0x170 }
  - { offset: 0xCBBBD, size: 0x8, addend: 0x0, symName: '__ZN10serde_json5value2de83_$LT$impl$u20$serde_core..de..Deserializer$u20$for$u20$serde_json..value..Value$GT$18deserialize_struct17h57ec470150592390E', symObjAddr: 0x189C, symBinAddr: 0x2CB2C, symSize: 0x170 }
  - { offset: 0xCBC4F, size: 0x8, addend: 0x0, symName: '__ZN10serde_json5value2de83_$LT$impl$u20$serde_core..de..Deserializer$u20$for$u20$serde_json..value..Value$GT$18deserialize_struct17h943324da9e2f9890E', symObjAddr: 0x1A0C, symBinAddr: 0x2CC9C, symSize: 0x170 }
  - { offset: 0xCBCE1, size: 0x8, addend: 0x0, symName: '__ZN10serde_json5value2de83_$LT$impl$u20$serde_core..de..Deserializer$u20$for$u20$serde_json..value..Value$GT$18deserialize_struct17hff6335e580a356f6E', symObjAddr: 0x1B7C, symBinAddr: 0x2CE0C, symSize: 0x170 }
  - { offset: 0xCBD73, size: 0x8, addend: 0x0, symName: '__ZN10serde_json5value2de83_$LT$impl$u20$serde_core..de..Deserializer$u20$for$u20$serde_json..value..Value$GT$22deserialize_identifier17h45ecabb45f283dd4E', symObjAddr: 0x1CEC, symBinAddr: 0x2CF7C, symSize: 0x1C }
  - { offset: 0xCBDBA, size: 0x8, addend: 0x0, symName: '__ZN10serde_json5value2de83_$LT$impl$u20$serde_core..de..Deserializer$u20$for$u20$serde_json..value..Value$GT$23deserialize_ignored_any17h8bf025fc013a6047E', symObjAddr: 0x1D08, symBinAddr: 0x2CF98, symSize: 0x68 }
  - { offset: 0xCBE0D, size: 0x8, addend: 0x0, symName: '__ZN10serde_json5value3ser81_$LT$impl$u20$serde_core..ser..Serialize$u20$for$u20$serde_json..value..Value$GT$9serialize17h87eec54725c53740E', symObjAddr: 0x1D70, symBinAddr: 0x2D000, symSize: 0x38C }
  - { offset: 0xCBF82, size: 0x8, addend: 0x0, symName: '__ZN10serde_json5value3ser81_$LT$impl$u20$serde_core..ser..Serialize$u20$for$u20$serde_json..value..Value$GT$9serialize17hfc3aeb116a372746E', symObjAddr: 0x20FC, symBinAddr: 0x2D38C, symSize: 0x384 }
  - { offset: 0xCC139, size: 0x8, addend: 0x0, symName: __ZN10serde_json5value8to_value17h060772cfd0e000dcE, symObjAddr: 0x2480, symBinAddr: 0x2D710, symSize: 0x44 }
  - { offset: 0xCC170, size: 0x8, addend: 0x0, symName: __ZN10serde_json5value8to_value17h0b0c2b78b39b1d52E, symObjAddr: 0x24C4, symBinAddr: 0x2D754, symSize: 0x44 }
  - { offset: 0xCC1A7, size: 0x8, addend: 0x0, symName: __ZN10serde_json5value8to_value17h0cd4df1a22a8d8bcE, symObjAddr: 0x2508, symBinAddr: 0x2D798, symSize: 0x44 }
  - { offset: 0xCC1DE, size: 0x8, addend: 0x0, symName: __ZN10serde_json5value8to_value17h0ce342296add49c5E, symObjAddr: 0x254C, symBinAddr: 0x2D7DC, symSize: 0x44 }
  - { offset: 0xCC215, size: 0x8, addend: 0x0, symName: __ZN10serde_json5value8to_value17h1596b6827c8c804fE, symObjAddr: 0x2590, symBinAddr: 0x2D820, symSize: 0x44 }
  - { offset: 0xCC24C, size: 0x8, addend: 0x0, symName: __ZN10serde_json5value8to_value17h430b5a37a3e66044E, symObjAddr: 0x25D4, symBinAddr: 0x2D864, symSize: 0x44 }
  - { offset: 0xCC283, size: 0x8, addend: 0x0, symName: __ZN10serde_json5value8to_value17h4bc4cc91be3140b5E, symObjAddr: 0x2618, symBinAddr: 0x2D8A8, symSize: 0x44 }
  - { offset: 0xCC2BA, size: 0x8, addend: 0x0, symName: __ZN10serde_json5value8to_value17h4cdd293ae7961838E, symObjAddr: 0x265C, symBinAddr: 0x2D8EC, symSize: 0x44 }
  - { offset: 0xCC2F1, size: 0x8, addend: 0x0, symName: __ZN10serde_json5value8to_value17h60a30a3fcc8044f1E, symObjAddr: 0x26A0, symBinAddr: 0x2D930, symSize: 0x44 }
  - { offset: 0xCC328, size: 0x8, addend: 0x0, symName: __ZN10serde_json5value8to_value17h6ca7b5556cce7cecE, symObjAddr: 0x26E4, symBinAddr: 0x2D974, symSize: 0x44 }
  - { offset: 0xCC35F, size: 0x8, addend: 0x0, symName: __ZN10serde_json5value8to_value17h718332836319e37aE, symObjAddr: 0x2728, symBinAddr: 0x2D9B8, symSize: 0x44 }
  - { offset: 0xCC396, size: 0x8, addend: 0x0, symName: __ZN10serde_json5value8to_value17h95e953099aa17622E, symObjAddr: 0x276C, symBinAddr: 0x2D9FC, symSize: 0x44 }
  - { offset: 0xCC3CD, size: 0x8, addend: 0x0, symName: __ZN10serde_json5value8to_value17h97968d2bf967f04dE, symObjAddr: 0x27B0, symBinAddr: 0x2DA40, symSize: 0x44 }
  - { offset: 0xCC404, size: 0x8, addend: 0x0, symName: __ZN10serde_json5value8to_value17h9a469c24895e4a22E, symObjAddr: 0x27F4, symBinAddr: 0x2DA84, symSize: 0x48 }
  - { offset: 0xCC43B, size: 0x8, addend: 0x0, symName: __ZN10serde_json5value8to_value17ha4ddda9512192be7E, symObjAddr: 0x283C, symBinAddr: 0x2DACC, symSize: 0x44 }
  - { offset: 0xCC472, size: 0x8, addend: 0x0, symName: __ZN10serde_json5value8to_value17hc578d6b3a11f4a11E, symObjAddr: 0x2880, symBinAddr: 0x2DB10, symSize: 0x44 }
  - { offset: 0xCC4A9, size: 0x8, addend: 0x0, symName: __ZN10serde_json5value8to_value17hc5e1cfcb76da29c1E, symObjAddr: 0x28C4, symBinAddr: 0x2DB54, symSize: 0x44 }
  - { offset: 0xCC4E0, size: 0x8, addend: 0x0, symName: __ZN10serde_json5value8to_value17hc7f18dd62277a3f1E, symObjAddr: 0x2908, symBinAddr: 0x2DB98, symSize: 0x44 }
  - { offset: 0xCC517, size: 0x8, addend: 0x0, symName: __ZN10serde_json5value8to_value17hcb6eba68c1ab7e66E, symObjAddr: 0x294C, symBinAddr: 0x2DBDC, symSize: 0x44 }
  - { offset: 0xCC54E, size: 0x8, addend: 0x0, symName: __ZN10serde_json5value8to_value17he85ac35527fbf69dE, symObjAddr: 0x2990, symBinAddr: 0x2DC20, symSize: 0x44 }
  - { offset: 0xCC585, size: 0x8, addend: 0x0, symName: __ZN10serde_json5value8to_value17he93a6308bcc8f89fE, symObjAddr: 0x29D4, symBinAddr: 0x2DC64, symSize: 0x44 }
  - { offset: 0xCC5BC, size: 0x8, addend: 0x0, symName: __ZN10serde_json5value8to_value17hf1e098b732210318E, symObjAddr: 0x2A18, symBinAddr: 0x2DCA8, symSize: 0x44 }
  - { offset: 0xCC5F3, size: 0x8, addend: 0x0, symName: __ZN10serde_json5value8to_value17hf564fd7d2c999913E, symObjAddr: 0x2A5C, symBinAddr: 0x2DCEC, symSize: 0x44 }
  - { offset: 0xCEA70, size: 0x8, addend: 0x0, symName: '__ZN10serde_core2de5impls79_$LT$impl$u20$serde_core..de..Deserialize$u20$for$u20$alloc..string..String$GT$11deserialize17h6a5a9c935df01f5eE', symObjAddr: 0x0, symBinAddr: 0x2DD30, symSize: 0x14 }
  - { offset: 0xD075C, size: 0x8, addend: 0x0, symName: '__ZN10serde_core2de5impls79_$LT$impl$u20$serde_core..de..Deserialize$u20$for$u20$alloc..string..String$GT$11deserialize17h6a5a9c935df01f5eE', symObjAddr: 0x0, symBinAddr: 0x2DD30, symSize: 0x14 }
  - { offset: 0xD0794, size: 0x8, addend: 0x0, symName: '__ZN10serde_core2de5impls79_$LT$impl$u20$serde_core..de..Deserialize$u20$for$u20$alloc..string..String$GT$11deserialize17h8b53a7f2d6be99e3E', symObjAddr: 0x14, symBinAddr: 0x2DD44, symSize: 0x24 }
  - { offset: 0xD07CB, size: 0x8, addend: 0x0, symName: '__ZN10serde_core2de5impls79_$LT$impl$u20$serde_core..de..Deserialize$u20$for$u20$alloc..string..String$GT$11deserialize17h91b10388e938bddcE', symObjAddr: 0x38, symBinAddr: 0x2DD68, symSize: 0x14 }
  - { offset: 0xD0803, size: 0x8, addend: 0x0, symName: '__ZN10serde_core2de5impls79_$LT$impl$u20$serde_core..de..Deserialize$u20$for$u20$alloc..string..String$GT$11deserialize17h9831cf30f23b18bbE', symObjAddr: 0x4C, symBinAddr: 0x2DD7C, symSize: 0x14 }
  - { offset: 0xD083B, size: 0x8, addend: 0x0, symName: '__ZN10serde_core2de5impls79_$LT$impl$u20$serde_core..de..Deserialize$u20$for$u20$alloc..string..String$GT$11deserialize17haa2098331feb7bb3E', symObjAddr: 0x60, symBinAddr: 0x2DD90, symSize: 0x24 }
  - { offset: 0xD0872, size: 0x8, addend: 0x0, symName: '__ZN10serde_core2de5impls79_$LT$impl$u20$serde_core..de..Deserialize$u20$for$u20$alloc..string..String$GT$11deserialize17hc194d888ce302937E', symObjAddr: 0x84, symBinAddr: 0x2DDB4, symSize: 0x28 }
  - { offset: 0xD08B5, size: 0x8, addend: 0x0, symName: '__ZN10serde_core2de5value93_$LT$impl$u20$serde_core..de..IntoDeserializer$LT$E$GT$$u20$for$u20$alloc..string..String$GT$17into_deserializer17ha251cb7f2c3a857fE', symObjAddr: 0xAC, symBinAddr: 0x2DDDC, symSize: 0x14 }
  - { offset: 0xD0929, size: 0x8, addend: 0x0, symName: '__ZN10serde_core3ser5impls62_$LT$impl$u20$serde_core..ser..Serialize$u20$for$u20$$RF$T$GT$9serialize17he5c26ecce367df7cE', symObjAddr: 0xC0, symBinAddr: 0x2DDF0, symSize: 0x28 }
  - { offset: 0xD097E, size: 0x8, addend: 0x0, symName: '__ZN10serde_core3ser5impls78_$LT$impl$u20$serde_core..ser..Serialize$u20$for$u20$alloc..string..String$GT$9serialize17hb3ab94251127a2b0E', symObjAddr: 0xE8, symBinAddr: 0x2DE18, symSize: 0x8C }
  - { offset: 0xD09C1, size: 0x8, addend: 0x0, symName: '__ZN10serde_core3ser5impls78_$LT$impl$u20$serde_core..ser..Serialize$u20$for$u20$alloc..string..String$GT$9serialize17hb6910c1ee08ab59cE', symObjAddr: 0x174, symBinAddr: 0x2DEA4, symSize: 0x84 }
  - { offset: 0xD0A04, size: 0x8, addend: 0x0, symName: '__ZN10serde_core3ser5impls78_$LT$impl$u20$serde_core..ser..Serialize$u20$for$u20$alloc..string..String$GT$9serialize17hee4135eceede2d8aE', symObjAddr: 0x1F8, symBinAddr: 0x2DF28, symSize: 0x84 }
  - { offset: 0xD2168, size: 0x8, addend: 0x0, symName: __ZN8pyo3_ffi7cpython10listobject15PyList_SET_ITEM17h3c2c82a1b801c922E, symObjAddr: 0x0, symBinAddr: 0x2DFAC, symSize: 0x110 }
  - { offset: 0xD2782, size: 0x8, addend: 0x0, symName: __ZN8pyo3_ffi7cpython10listobject15PyList_SET_ITEM17h3c2c82a1b801c922E, symObjAddr: 0x0, symBinAddr: 0x2DFAC, symSize: 0x110 }
  - { offset: 0xD3754, size: 0x8, addend: 0x0, symName: __ZN5alloc3fmt6format17hc0f188de24c1f91aE, symObjAddr: 0x0, symBinAddr: 0x2E0BC, symSize: 0xC4 }
  - { offset: 0xD3CEF, size: 0x8, addend: 0x0, symName: __ZN5alloc3fmt6format17hc0f188de24c1f91aE, symObjAddr: 0x0, symBinAddr: 0x2E0BC, symSize: 0xC4 }
  - { offset: 0xD3E4D, size: 0x8, addend: 0x0, symName: __ZN10serde_json5value5Value6Number17h114af13227e433b5E, symObjAddr: 0x0, symBinAddr: 0x2E180, symSize: 0x18 }
  - { offset: 0xD3E6E, size: 0x8, addend: 0x0, symName: __ZN10serde_json5value5Value6Number17h114af13227e433b5E, symObjAddr: 0x0, symBinAddr: 0x2E180, symSize: 0x18 }
  - { offset: 0xD46EC, size: 0x8, addend: 0x0, symName: '__ZN106_$LT$pyo3..impl_..extract_argument..NoVarargs$u20$as$u20$pyo3..impl_..extract_argument..VarargsHandler$GT$23handle_varargs_fastcall17hf71737c5e47154fbE', symObjAddr: 0x0, symBinAddr: 0x2E198, symSize: 0xB4 }
  - { offset: 0xD5F28, size: 0x8, addend: 0x0, symName: '__ZN106_$LT$pyo3..impl_..extract_argument..NoVarargs$u20$as$u20$pyo3..impl_..extract_argument..VarargsHandler$GT$23handle_varargs_fastcall17hf71737c5e47154fbE', symObjAddr: 0x0, symBinAddr: 0x2E198, symSize: 0xB4 }
  - { offset: 0xD5F9C, size: 0x8, addend: 0x0, symName: '__ZN114_$LT$pyo3..impl_..extract_argument..NoVarkeywords$u20$as$u20$pyo3..impl_..extract_argument..VarkeywordsHandler$GT$17handle_varkeyword17hd8e78179492b32f3E', symObjAddr: 0xB4, symBinAddr: 0x2E24C, symSize: 0x6C }
  - { offset: 0xD60DB, size: 0x8, addend: 0x0, symName: __ZN4pyo35impl_16extract_argument24unwrap_required_argument17hb7df83c9a68568ecE, symObjAddr: 0x4D4, symBinAddr: 0x2E66C, symSize: 0x64 }
  - { offset: 0xD63C3, size: 0x8, addend: 0x0, symName: __ZN4pyo35impl_16extract_argument19FunctionDescription36find_keyword_parameter_in_positional17h96ecab56a310d5e3E, symObjAddr: 0x120, symBinAddr: 0x2E2B8, symSize: 0x5C }
  - { offset: 0xD63F5, size: 0x8, addend: 0x0, symName: __ZN4pyo35impl_16extract_argument19FunctionDescription38find_keyword_parameter_in_keyword_only17h97b5fd95c92f062cE, symObjAddr: 0x17C, symBinAddr: 0x2E314, symSize: 0x5C }
  - { offset: 0xD6AAD, size: 0x8, addend: 0x0, symName: __ZN4pyo35impl_16extract_argument19FunctionDescription44ensure_no_missing_required_keyword_arguments17hab4f6474aadecc0eE, symObjAddr: 0x1D8, symBinAddr: 0x2E370, symSize: 0x160 }
  - { offset: 0xD6B79, size: 0x8, addend: 0x0, symName: __ZN4pyo35impl_16extract_argument19FunctionDescription47ensure_no_missing_required_positional_arguments17h38cebb0c400a7d04E, symObjAddr: 0x338, symBinAddr: 0x2E4D0, symSize: 0x19C }
  - { offset: 0xD6CF4, size: 0x8, addend: 0x0, symName: '__ZN86_$LT$core..marker..PhantomData$LT$T$GT$$u20$as$u20$serde_core..de..DeserializeSeed$GT$11deserialize17h06e2b7346b7272e8E', symObjAddr: 0x0, symBinAddr: 0x2E6D0, symSize: 0x1C }
  - { offset: 0xDAE96, size: 0x8, addend: 0x0, symName: '__ZN86_$LT$core..marker..PhantomData$LT$T$GT$$u20$as$u20$serde_core..de..DeserializeSeed$GT$11deserialize17h06e2b7346b7272e8E', symObjAddr: 0x0, symBinAddr: 0x2E6D0, symSize: 0x1C }
  - { offset: 0xDAEF2, size: 0x8, addend: 0x0, symName: '__ZN86_$LT$core..marker..PhantomData$LT$T$GT$$u20$as$u20$serde_core..de..DeserializeSeed$GT$11deserialize17h09cf661f6a5f5533E', symObjAddr: 0x1C, symBinAddr: 0x2E6EC, symSize: 0x1C }
  - { offset: 0xDAF4E, size: 0x8, addend: 0x0, symName: '__ZN86_$LT$core..marker..PhantomData$LT$T$GT$$u20$as$u20$serde_core..de..DeserializeSeed$GT$11deserialize17h0b8d95c7672b4705E', symObjAddr: 0x38, symBinAddr: 0x2E708, symSize: 0x1C }
  - { offset: 0xDAFAA, size: 0x8, addend: 0x0, symName: '__ZN86_$LT$core..marker..PhantomData$LT$T$GT$$u20$as$u20$serde_core..de..DeserializeSeed$GT$11deserialize17h0ba91c92929fd991E', symObjAddr: 0x54, symBinAddr: 0x2E724, symSize: 0x1C }
  - { offset: 0xDB006, size: 0x8, addend: 0x0, symName: '__ZN86_$LT$core..marker..PhantomData$LT$T$GT$$u20$as$u20$serde_core..de..DeserializeSeed$GT$11deserialize17h1473c43bb3d0a1ccE', symObjAddr: 0x70, symBinAddr: 0x2E740, symSize: 0x1C }
  - { offset: 0xDB062, size: 0x8, addend: 0x0, symName: '__ZN86_$LT$core..marker..PhantomData$LT$T$GT$$u20$as$u20$serde_core..de..DeserializeSeed$GT$11deserialize17h1956c0d98d25874fE', symObjAddr: 0x8C, symBinAddr: 0x2E75C, symSize: 0x1C }
  - { offset: 0xDB0BE, size: 0x8, addend: 0x0, symName: '__ZN86_$LT$core..marker..PhantomData$LT$T$GT$$u20$as$u20$serde_core..de..DeserializeSeed$GT$11deserialize17h197b117c9c0fe1afE', symObjAddr: 0xA8, symBinAddr: 0x2E778, symSize: 0x1C }
  - { offset: 0xDB11A, size: 0x8, addend: 0x0, symName: '__ZN86_$LT$core..marker..PhantomData$LT$T$GT$$u20$as$u20$serde_core..de..DeserializeSeed$GT$11deserialize17h1eebe2d68be68de4E', symObjAddr: 0xC4, symBinAddr: 0x2E794, symSize: 0x1C }
  - { offset: 0xDB176, size: 0x8, addend: 0x0, symName: '__ZN86_$LT$core..marker..PhantomData$LT$T$GT$$u20$as$u20$serde_core..de..DeserializeSeed$GT$11deserialize17h2351d83a2c8de5cfE', symObjAddr: 0xE0, symBinAddr: 0x2E7B0, symSize: 0x24 }
  - { offset: 0xDB1D1, size: 0x8, addend: 0x0, symName: '__ZN86_$LT$core..marker..PhantomData$LT$T$GT$$u20$as$u20$serde_core..de..DeserializeSeed$GT$11deserialize17h26b3133fc1e48968E', symObjAddr: 0x104, symBinAddr: 0x2E7D4, symSize: 0x1C }
  - { offset: 0xDB22D, size: 0x8, addend: 0x0, symName: '__ZN86_$LT$core..marker..PhantomData$LT$T$GT$$u20$as$u20$serde_core..de..DeserializeSeed$GT$11deserialize17h28e59d1f82fd8dc2E', symObjAddr: 0x120, symBinAddr: 0x2E7F0, symSize: 0x1C }
  - { offset: 0xDB289, size: 0x8, addend: 0x0, symName: '__ZN86_$LT$core..marker..PhantomData$LT$T$GT$$u20$as$u20$serde_core..de..DeserializeSeed$GT$11deserialize17h2ac24f3598b3c6f4E', symObjAddr: 0x13C, symBinAddr: 0x2E80C, symSize: 0x1C }
  - { offset: 0xDB2E5, size: 0x8, addend: 0x0, symName: '__ZN86_$LT$core..marker..PhantomData$LT$T$GT$$u20$as$u20$serde_core..de..DeserializeSeed$GT$11deserialize17h333c88433810461fE', symObjAddr: 0x158, symBinAddr: 0x2E828, symSize: 0x24 }
  - { offset: 0xDB340, size: 0x8, addend: 0x0, symName: '__ZN86_$LT$core..marker..PhantomData$LT$T$GT$$u20$as$u20$serde_core..de..DeserializeSeed$GT$11deserialize17h358747e454f59955E', symObjAddr: 0x17C, symBinAddr: 0x2E84C, symSize: 0x1C }
  - { offset: 0xDB39C, size: 0x8, addend: 0x0, symName: '__ZN86_$LT$core..marker..PhantomData$LT$T$GT$$u20$as$u20$serde_core..de..DeserializeSeed$GT$11deserialize17h3a296df7cb0f271cE', symObjAddr: 0x198, symBinAddr: 0x2E868, symSize: 0x1C }
  - { offset: 0xDB3F8, size: 0x8, addend: 0x0, symName: '__ZN86_$LT$core..marker..PhantomData$LT$T$GT$$u20$as$u20$serde_core..de..DeserializeSeed$GT$11deserialize17h3c1322546181e67dE', symObjAddr: 0x1B4, symBinAddr: 0x2E884, symSize: 0x1C }
  - { offset: 0xDB454, size: 0x8, addend: 0x0, symName: '__ZN86_$LT$core..marker..PhantomData$LT$T$GT$$u20$as$u20$serde_core..de..DeserializeSeed$GT$11deserialize17h4128f9dff1691befE', symObjAddr: 0x1D0, symBinAddr: 0x2E8A0, symSize: 0x1C }
  - { offset: 0xDB4B0, size: 0x8, addend: 0x0, symName: '__ZN86_$LT$core..marker..PhantomData$LT$T$GT$$u20$as$u20$serde_core..de..DeserializeSeed$GT$11deserialize17h4568acc436ba1292E', symObjAddr: 0x1EC, symBinAddr: 0x2E8BC, symSize: 0x1C }
  - { offset: 0xDB50C, size: 0x8, addend: 0x0, symName: '__ZN86_$LT$core..marker..PhantomData$LT$T$GT$$u20$as$u20$serde_core..de..DeserializeSeed$GT$11deserialize17h476c0298c4ca408dE', symObjAddr: 0x208, symBinAddr: 0x2E8D8, symSize: 0x1C }
  - { offset: 0xDB568, size: 0x8, addend: 0x0, symName: '__ZN86_$LT$core..marker..PhantomData$LT$T$GT$$u20$as$u20$serde_core..de..DeserializeSeed$GT$11deserialize17h50ea66da0c9a8406E', symObjAddr: 0x224, symBinAddr: 0x2E8F4, symSize: 0x1C }
  - { offset: 0xDB5C4, size: 0x8, addend: 0x0, symName: '__ZN86_$LT$core..marker..PhantomData$LT$T$GT$$u20$as$u20$serde_core..de..DeserializeSeed$GT$11deserialize17h5f5f278f23e23aefE', symObjAddr: 0x240, symBinAddr: 0x2E910, symSize: 0x24 }
  - { offset: 0xDB61F, size: 0x8, addend: 0x0, symName: '__ZN86_$LT$core..marker..PhantomData$LT$T$GT$$u20$as$u20$serde_core..de..DeserializeSeed$GT$11deserialize17h642d13cfce26942dE', symObjAddr: 0x264, symBinAddr: 0x2E934, symSize: 0x1C }
  - { offset: 0xDB67B, size: 0x8, addend: 0x0, symName: '__ZN86_$LT$core..marker..PhantomData$LT$T$GT$$u20$as$u20$serde_core..de..DeserializeSeed$GT$11deserialize17h6439122901a40534E', symObjAddr: 0x280, symBinAddr: 0x2E950, symSize: 0x1C }
  - { offset: 0xDB6D7, size: 0x8, addend: 0x0, symName: '__ZN86_$LT$core..marker..PhantomData$LT$T$GT$$u20$as$u20$serde_core..de..DeserializeSeed$GT$11deserialize17h67c69936f4806452E', symObjAddr: 0x29C, symBinAddr: 0x2E96C, symSize: 0x1C }
  - { offset: 0xDB733, size: 0x8, addend: 0x0, symName: '__ZN86_$LT$core..marker..PhantomData$LT$T$GT$$u20$as$u20$serde_core..de..DeserializeSeed$GT$11deserialize17h6818f4d145acc4f4E', symObjAddr: 0x2B8, symBinAddr: 0x2E988, symSize: 0x24 }
  - { offset: 0xDB78E, size: 0x8, addend: 0x0, symName: '__ZN86_$LT$core..marker..PhantomData$LT$T$GT$$u20$as$u20$serde_core..de..DeserializeSeed$GT$11deserialize17h68cfc223186a8b3eE', symObjAddr: 0x2DC, symBinAddr: 0x2E9AC, symSize: 0x1C }
  - { offset: 0xDB7EA, size: 0x8, addend: 0x0, symName: '__ZN86_$LT$core..marker..PhantomData$LT$T$GT$$u20$as$u20$serde_core..de..DeserializeSeed$GT$11deserialize17h6abbbb7dc96546c4E', symObjAddr: 0x2F8, symBinAddr: 0x2E9C8, symSize: 0x1C }
  - { offset: 0xDB846, size: 0x8, addend: 0x0, symName: '__ZN86_$LT$core..marker..PhantomData$LT$T$GT$$u20$as$u20$serde_core..de..DeserializeSeed$GT$11deserialize17h6e185b5e07718aa0E', symObjAddr: 0x314, symBinAddr: 0x2E9E4, symSize: 0x1C }
  - { offset: 0xDB8A2, size: 0x8, addend: 0x0, symName: '__ZN86_$LT$core..marker..PhantomData$LT$T$GT$$u20$as$u20$serde_core..de..DeserializeSeed$GT$11deserialize17h6eda2890e4e4e8f6E', symObjAddr: 0x330, symBinAddr: 0x2EA00, symSize: 0x1C }
  - { offset: 0xDB8FE, size: 0x8, addend: 0x0, symName: '__ZN86_$LT$core..marker..PhantomData$LT$T$GT$$u20$as$u20$serde_core..de..DeserializeSeed$GT$11deserialize17h720bb637c9d1669bE', symObjAddr: 0x34C, symBinAddr: 0x2EA1C, symSize: 0x1C }
  - { offset: 0xDB95A, size: 0x8, addend: 0x0, symName: '__ZN86_$LT$core..marker..PhantomData$LT$T$GT$$u20$as$u20$serde_core..de..DeserializeSeed$GT$11deserialize17h76da4375afaf408aE', symObjAddr: 0x368, symBinAddr: 0x2EA38, symSize: 0x24 }
  - { offset: 0xDB9B5, size: 0x8, addend: 0x0, symName: '__ZN86_$LT$core..marker..PhantomData$LT$T$GT$$u20$as$u20$serde_core..de..DeserializeSeed$GT$11deserialize17h7f5c03c947729a30E', symObjAddr: 0x38C, symBinAddr: 0x2EA5C, symSize: 0x24 }
  - { offset: 0xDBA10, size: 0x8, addend: 0x0, symName: '__ZN86_$LT$core..marker..PhantomData$LT$T$GT$$u20$as$u20$serde_core..de..DeserializeSeed$GT$11deserialize17h80861966260c06e8E', symObjAddr: 0x3B0, symBinAddr: 0x2EA80, symSize: 0x1C }
  - { offset: 0xDBA6C, size: 0x8, addend: 0x0, symName: '__ZN86_$LT$core..marker..PhantomData$LT$T$GT$$u20$as$u20$serde_core..de..DeserializeSeed$GT$11deserialize17h82af2d6b50c0c9efE', symObjAddr: 0x3CC, symBinAddr: 0x2EA9C, symSize: 0x1C }
  - { offset: 0xDBAC8, size: 0x8, addend: 0x0, symName: '__ZN86_$LT$core..marker..PhantomData$LT$T$GT$$u20$as$u20$serde_core..de..DeserializeSeed$GT$11deserialize17h8c196fa957214158E', symObjAddr: 0x3E8, symBinAddr: 0x2EAB8, symSize: 0x1C }
  - { offset: 0xDBB24, size: 0x8, addend: 0x0, symName: '__ZN86_$LT$core..marker..PhantomData$LT$T$GT$$u20$as$u20$serde_core..de..DeserializeSeed$GT$11deserialize17h8de36ea786662f40E', symObjAddr: 0x404, symBinAddr: 0x2EAD4, symSize: 0x1C }
  - { offset: 0xDBB80, size: 0x8, addend: 0x0, symName: '__ZN86_$LT$core..marker..PhantomData$LT$T$GT$$u20$as$u20$serde_core..de..DeserializeSeed$GT$11deserialize17h8df1ad20fc2de9efE', symObjAddr: 0x420, symBinAddr: 0x2EAF0, symSize: 0x1C }
  - { offset: 0xDBBDC, size: 0x8, addend: 0x0, symName: '__ZN86_$LT$core..marker..PhantomData$LT$T$GT$$u20$as$u20$serde_core..de..DeserializeSeed$GT$11deserialize17h8e3b271f341162d4E', symObjAddr: 0x43C, symBinAddr: 0x2EB0C, symSize: 0x1C }
  - { offset: 0xDBC38, size: 0x8, addend: 0x0, symName: '__ZN86_$LT$core..marker..PhantomData$LT$T$GT$$u20$as$u20$serde_core..de..DeserializeSeed$GT$11deserialize17h8ecfb599e158bffeE', symObjAddr: 0x458, symBinAddr: 0x2EB28, symSize: 0x1C }
  - { offset: 0xDBC94, size: 0x8, addend: 0x0, symName: '__ZN86_$LT$core..marker..PhantomData$LT$T$GT$$u20$as$u20$serde_core..de..DeserializeSeed$GT$11deserialize17h94a84006850e3667E', symObjAddr: 0x474, symBinAddr: 0x2EB44, symSize: 0x1C }
  - { offset: 0xDBCF0, size: 0x8, addend: 0x0, symName: '__ZN86_$LT$core..marker..PhantomData$LT$T$GT$$u20$as$u20$serde_core..de..DeserializeSeed$GT$11deserialize17h957637b9d3be4107E', symObjAddr: 0x490, symBinAddr: 0x2EB60, symSize: 0x1C }
  - { offset: 0xDBD4C, size: 0x8, addend: 0x0, symName: '__ZN86_$LT$core..marker..PhantomData$LT$T$GT$$u20$as$u20$serde_core..de..DeserializeSeed$GT$11deserialize17h9b81168bd7a6a44fE', symObjAddr: 0x4AC, symBinAddr: 0x2EB7C, symSize: 0x1C }
  - { offset: 0xDBDA8, size: 0x8, addend: 0x0, symName: '__ZN86_$LT$core..marker..PhantomData$LT$T$GT$$u20$as$u20$serde_core..de..DeserializeSeed$GT$11deserialize17h9cad24b51bd69d03E', symObjAddr: 0x4C8, symBinAddr: 0x2EB98, symSize: 0x1C }
  - { offset: 0xDBE04, size: 0x8, addend: 0x0, symName: '__ZN86_$LT$core..marker..PhantomData$LT$T$GT$$u20$as$u20$serde_core..de..DeserializeSeed$GT$11deserialize17h9dbd4dabb6d141d5E', symObjAddr: 0x4E4, symBinAddr: 0x2EBB4, symSize: 0x1C }
  - { offset: 0xDBE60, size: 0x8, addend: 0x0, symName: '__ZN86_$LT$core..marker..PhantomData$LT$T$GT$$u20$as$u20$serde_core..de..DeserializeSeed$GT$11deserialize17ha058bd59ab93143bE', symObjAddr: 0x500, symBinAddr: 0x2EBD0, symSize: 0x1C }
  - { offset: 0xDBEBC, size: 0x8, addend: 0x0, symName: '__ZN86_$LT$core..marker..PhantomData$LT$T$GT$$u20$as$u20$serde_core..de..DeserializeSeed$GT$11deserialize17ha58d14936b38a6feE', symObjAddr: 0x51C, symBinAddr: 0x2EBEC, symSize: 0x1C }
  - { offset: 0xDBF18, size: 0x8, addend: 0x0, symName: '__ZN86_$LT$core..marker..PhantomData$LT$T$GT$$u20$as$u20$serde_core..de..DeserializeSeed$GT$11deserialize17hab2a63a3e46bec24E', symObjAddr: 0x538, symBinAddr: 0x2EC08, symSize: 0x1C }
  - { offset: 0xDBF74, size: 0x8, addend: 0x0, symName: '__ZN86_$LT$core..marker..PhantomData$LT$T$GT$$u20$as$u20$serde_core..de..DeserializeSeed$GT$11deserialize17hac0335703daaffddE', symObjAddr: 0x554, symBinAddr: 0x2EC24, symSize: 0x1C }
  - { offset: 0xDBFD0, size: 0x8, addend: 0x0, symName: '__ZN86_$LT$core..marker..PhantomData$LT$T$GT$$u20$as$u20$serde_core..de..DeserializeSeed$GT$11deserialize17hb3e628b5a458d1d8E', symObjAddr: 0x570, symBinAddr: 0x2EC40, symSize: 0x1C }
  - { offset: 0xDC02C, size: 0x8, addend: 0x0, symName: '__ZN86_$LT$core..marker..PhantomData$LT$T$GT$$u20$as$u20$serde_core..de..DeserializeSeed$GT$11deserialize17hb5611ef1e972ceacE', symObjAddr: 0x58C, symBinAddr: 0x2EC5C, symSize: 0x1C }
  - { offset: 0xDC088, size: 0x8, addend: 0x0, symName: '__ZN86_$LT$core..marker..PhantomData$LT$T$GT$$u20$as$u20$serde_core..de..DeserializeSeed$GT$11deserialize17hb605c592ba0f2454E', symObjAddr: 0x5A8, symBinAddr: 0x2EC78, symSize: 0x24 }
  - { offset: 0xDC0E3, size: 0x8, addend: 0x0, symName: '__ZN86_$LT$core..marker..PhantomData$LT$T$GT$$u20$as$u20$serde_core..de..DeserializeSeed$GT$11deserialize17hb74285967dbf338aE', symObjAddr: 0x5CC, symBinAddr: 0x2EC9C, symSize: 0x24 }
  - { offset: 0xDC13E, size: 0x8, addend: 0x0, symName: '__ZN86_$LT$core..marker..PhantomData$LT$T$GT$$u20$as$u20$serde_core..de..DeserializeSeed$GT$11deserialize17hbe1aae098ec189b1E', symObjAddr: 0x5F0, symBinAddr: 0x2ECC0, symSize: 0x24 }
  - { offset: 0xDC199, size: 0x8, addend: 0x0, symName: '__ZN86_$LT$core..marker..PhantomData$LT$T$GT$$u20$as$u20$serde_core..de..DeserializeSeed$GT$11deserialize17hc24bc112247aa3abE', symObjAddr: 0x614, symBinAddr: 0x2ECE4, symSize: 0x1C }
  - { offset: 0xDC1F5, size: 0x8, addend: 0x0, symName: '__ZN86_$LT$core..marker..PhantomData$LT$T$GT$$u20$as$u20$serde_core..de..DeserializeSeed$GT$11deserialize17hc8cc9dd3340ae2e0E', symObjAddr: 0x630, symBinAddr: 0x2ED00, symSize: 0x1C }
  - { offset: 0xDC251, size: 0x8, addend: 0x0, symName: '__ZN86_$LT$core..marker..PhantomData$LT$T$GT$$u20$as$u20$serde_core..de..DeserializeSeed$GT$11deserialize17hcac4f34bc1b61c67E', symObjAddr: 0x64C, symBinAddr: 0x2ED1C, symSize: 0x1C }
  - { offset: 0xDC2AD, size: 0x8, addend: 0x0, symName: '__ZN86_$LT$core..marker..PhantomData$LT$T$GT$$u20$as$u20$serde_core..de..DeserializeSeed$GT$11deserialize17hcfb18454a17e168cE', symObjAddr: 0x668, symBinAddr: 0x2ED38, symSize: 0x1C }
  - { offset: 0xDC309, size: 0x8, addend: 0x0, symName: '__ZN86_$LT$core..marker..PhantomData$LT$T$GT$$u20$as$u20$serde_core..de..DeserializeSeed$GT$11deserialize17hd134f0490dc3909dE', symObjAddr: 0x684, symBinAddr: 0x2ED54, symSize: 0x24 }
  - { offset: 0xDC364, size: 0x8, addend: 0x0, symName: '__ZN86_$LT$core..marker..PhantomData$LT$T$GT$$u20$as$u20$serde_core..de..DeserializeSeed$GT$11deserialize17hdaca22edc78bcfadE', symObjAddr: 0x6A8, symBinAddr: 0x2ED78, symSize: 0x1C }
  - { offset: 0xDC3C0, size: 0x8, addend: 0x0, symName: '__ZN86_$LT$core..marker..PhantomData$LT$T$GT$$u20$as$u20$serde_core..de..DeserializeSeed$GT$11deserialize17he188484a944584c1E', symObjAddr: 0x6C4, symBinAddr: 0x2ED94, symSize: 0x1C }
  - { offset: 0xDC41C, size: 0x8, addend: 0x0, symName: '__ZN86_$LT$core..marker..PhantomData$LT$T$GT$$u20$as$u20$serde_core..de..DeserializeSeed$GT$11deserialize17he776f9f79a038cd6E', symObjAddr: 0x6E0, symBinAddr: 0x2EDB0, symSize: 0x1C }
  - { offset: 0xDC478, size: 0x8, addend: 0x0, symName: '__ZN86_$LT$core..marker..PhantomData$LT$T$GT$$u20$as$u20$serde_core..de..DeserializeSeed$GT$11deserialize17hecc0eb0a118baa8cE', symObjAddr: 0x6FC, symBinAddr: 0x2EDCC, symSize: 0x1C }
  - { offset: 0xDC4D4, size: 0x8, addend: 0x0, symName: '__ZN86_$LT$core..marker..PhantomData$LT$T$GT$$u20$as$u20$serde_core..de..DeserializeSeed$GT$11deserialize17hf609e049f825d9efE', symObjAddr: 0x718, symBinAddr: 0x2EDE8, symSize: 0x1C }
  - { offset: 0xDC530, size: 0x8, addend: 0x0, symName: '__ZN86_$LT$core..marker..PhantomData$LT$T$GT$$u20$as$u20$serde_core..de..DeserializeSeed$GT$11deserialize17hf7bd5d530922d1aeE', symObjAddr: 0x734, symBinAddr: 0x2EE04, symSize: 0x1C }
  - { offset: 0xDC58C, size: 0x8, addend: 0x0, symName: '__ZN86_$LT$core..marker..PhantomData$LT$T$GT$$u20$as$u20$serde_core..de..DeserializeSeed$GT$11deserialize17hfb78b588af096a41E', symObjAddr: 0x750, symBinAddr: 0x2EE20, symSize: 0x24 }
  - { offset: 0xDC5E7, size: 0x8, addend: 0x0, symName: '__ZN86_$LT$core..marker..PhantomData$LT$T$GT$$u20$as$u20$serde_core..de..DeserializeSeed$GT$11deserialize17hff02ae365f97f86fE', symObjAddr: 0x774, symBinAddr: 0x2EE44, symSize: 0x1C }
  - { offset: 0xDDFCA, size: 0x8, addend: 0x0, symName: '__ZN4core3ptr7mut_ptr31_$LT$impl$u20$$BP$mut$u20$T$GT$6offset18precondition_check17h6ba4b91c970b9627E', symObjAddr: 0x0, symBinAddr: 0x2EE60, symSize: 0x110 }
  - { offset: 0xDE080, size: 0x8, addend: 0x0, symName: '__ZN4core3ptr7mut_ptr31_$LT$impl$u20$$BP$mut$u20$T$GT$6offset18precondition_check17h6ba4b91c970b9627E', symObjAddr: 0x0, symBinAddr: 0x2EE60, symSize: 0x110 }
  - { offset: 0xDE8C3, size: 0x8, addend: 0x0, symName: '__ZN4core7convert3num18ptr_try_from_impls69_$LT$impl$u20$core..convert..TryFrom$LT$u64$GT$$u20$for$u20$usize$GT$8try_from17he98f524f90c28928E', symObjAddr: 0x0, symBinAddr: 0x2EF70, symSize: 0x18 }
  - { offset: 0xDE8E9, size: 0x8, addend: 0x0, symName: '__ZN4core7convert3num18ptr_try_from_impls69_$LT$impl$u20$core..convert..TryFrom$LT$u64$GT$$u20$for$u20$usize$GT$8try_from17he98f524f90c28928E', symObjAddr: 0x0, symBinAddr: 0x2EF70, symSize: 0x18 }
  - { offset: 0xDE9F6, size: 0x8, addend: 0x0, symName: '__ZN10serde_core3ser10Serializer11collect_seq28_$u7b$$u7b$closure$u7d$$u7d$17h4a4b29a79fa54eacE', symObjAddr: 0x0, symBinAddr: 0x2EF88, symSize: 0x58 }
  - { offset: 0xE08A0, size: 0x8, addend: 0x0, symName: '__ZN10serde_core3ser10Serializer11collect_seq28_$u7b$$u7b$closure$u7d$$u7d$17h4a4b29a79fa54eacE', symObjAddr: 0x0, symBinAddr: 0x2EF88, symSize: 0x58 }
  - { offset: 0xE08F2, size: 0x8, addend: 0x0, symName: '__ZN10serde_core3ser10Serializer11collect_seq28_$u7b$$u7b$closure$u7d$$u7d$17h5b9e40780f8bffb1E', symObjAddr: 0x58, symBinAddr: 0x2EFE0, symSize: 0x58 }
  - { offset: 0xE0944, size: 0x8, addend: 0x0, symName: '__ZN10serde_core3ser10Serializer11collect_seq28_$u7b$$u7b$closure$u7d$$u7d$17h5e8616b94c5c1541E', symObjAddr: 0xB0, symBinAddr: 0x2F038, symSize: 0x58 }
  - { offset: 0xE0996, size: 0x8, addend: 0x0, symName: '__ZN10serde_core3ser10Serializer11collect_seq28_$u7b$$u7b$closure$u7d$$u7d$17h859ecfa6ed8b959eE', symObjAddr: 0x108, symBinAddr: 0x2F090, symSize: 0x58 }
  - { offset: 0xE09E8, size: 0x8, addend: 0x0, symName: '__ZN10serde_core3ser10Serializer11collect_seq28_$u7b$$u7b$closure$u7d$$u7d$17he154e6fefc73c824E', symObjAddr: 0x160, symBinAddr: 0x2F0E8, symSize: 0x58 }
  - { offset: 0xE0A3C, size: 0x8, addend: 0x0, symName: __ZN10serde_core3ser17iterator_len_hint17h06bdcc1ad112e0a4E, symObjAddr: 0x1B8, symBinAddr: 0x2F140, symSize: 0x8C }
  - { offset: 0xE0AC1, size: 0x8, addend: 0x0, symName: __ZN10serde_core3ser17iterator_len_hint17h72b4d122225e00bfE, symObjAddr: 0x244, symBinAddr: 0x2F1CC, symSize: 0x8C }
  - { offset: 0xE0B46, size: 0x8, addend: 0x0, symName: __ZN10serde_core3ser17iterator_len_hint17hf8dde7676492e571E, symObjAddr: 0x2D0, symBinAddr: 0x2F258, symSize: 0x8C }
  - { offset: 0xE2780, size: 0x8, addend: 0x0, symName: '__ZN5alloc3vec16Vec$LT$T$C$A$GT$13from_parts_in18precondition_check17hb055cb09e3e1bc26E', symObjAddr: 0x0, symBinAddr: 0x2F2E4, symSize: 0xAC }
  - { offset: 0xE2C32, size: 0x8, addend: 0x0, symName: '__ZN5alloc3vec16Vec$LT$T$C$A$GT$13from_parts_in18precondition_check17hb055cb09e3e1bc26E', symObjAddr: 0x0, symBinAddr: 0x2F2E4, symSize: 0xAC }
  - { offset: 0xE2CA0, size: 0x8, addend: 0x0, symName: '__ZN5alloc3vec16Vec$LT$T$C$A$GT$7set_len18precondition_check17h518d3b6698704d57E', symObjAddr: 0xAC, symBinAddr: 0x2F390, symSize: 0xAC }
  - { offset: 0xE2D3C, size: 0x8, addend: 0x0, symName: '__ZN103_$LT$pyo3..instance..Bound$LT$pyo3..types..any..PyAny$GT$$u20$as$u20$pyo3..types..any..PyAnyMethods$GT$7is_none17h708f249b0cd86deeE', symObjAddr: 0x0, symBinAddr: 0x2F43C, symSize: 0x4C }
  - { offset: 0xE480E, size: 0x8, addend: 0x0, symName: '__ZN103_$LT$pyo3..instance..Bound$LT$pyo3..types..any..PyAny$GT$$u20$as$u20$pyo3..types..any..PyAnyMethods$GT$7is_none17h708f249b0cd86deeE', symObjAddr: 0x0, symBinAddr: 0x2F43C, symSize: 0x4C }
  - { offset: 0xE4883, size: 0x8, addend: 0x0, symName: '__ZN111_$LT$pyo3..instance..Bound$LT$pyo3..types..bytes..PyBytes$GT$$u20$as$u20$pyo3..types..bytes..PyBytesMethods$GT$8as_bytes17he190277ad8e73d8cE', symObjAddr: 0x4C, symBinAddr: 0x2F488, symSize: 0x28 }
  - { offset: 0xE48D0, size: 0x8, addend: 0x0, symName: '__ZN123_$LT$pyo3..instance..Bound$LT$pyo3..types..sequence..PySequence$GT$$u20$as$u20$pyo3..types..sequence..PySequenceMethods$GT$8get_item17h4e97a3903149f7f3E', symObjAddr: 0x74, symBinAddr: 0x2F4B0, symSize: 0x6C }
  - { offset: 0xE4D07, size: 0x8, addend: 0x0, symName: '__ZN4pyo38instance36Bound$LT$pyo3..types..any..PyAny$GT$14from_owned_ptr17he7db5bdf5ca79668E', symObjAddr: 0xE0, symBinAddr: 0x2F51C, symSize: 0x48 }
  - { offset: 0xE4F51, size: 0x8, addend: 0x0, symName: '__ZN4pyo38instance36Bound$LT$pyo3..types..any..PyAny$GT$21from_owned_ptr_or_err17hb0d4105308a32e96E', symObjAddr: 0x128, symBinAddr: 0x2F564, symSize: 0x9C }
  - { offset: 0xE4FBA, size: 0x8, addend: 0x0, symName: '__ZN4pyo38instance39Borrowed$LT$pyo3..types..any..PyAny$GT$13from_non_null17hda735e4ae012ed7eE', symObjAddr: 0x1C4, symBinAddr: 0x2F600, symSize: 0x14 }
  - { offset: 0xE4FF8, size: 0x8, addend: 0x0, symName: '__ZN4pyo38instance39Borrowed$LT$pyo3..types..any..PyAny$GT$15from_ptr_or_err17ha68e7209cbfbbc36E', symObjAddr: 0x1D8, symBinAddr: 0x2F614, symSize: 0x38 }
  - { offset: 0xE5036, size: 0x8, addend: 0x0, symName: '__ZN4pyo38instance39Borrowed$LT$pyo3..types..any..PyAny$GT$15from_ptr_or_opt17h0351e21326733412E', symObjAddr: 0x210, symBinAddr: 0x2F64C, symSize: 0x2C }
  - { offset: 0xE5074, size: 0x8, addend: 0x0, symName: '__ZN4pyo38instance39Borrowed$LT$pyo3..types..any..PyAny$GT$18from_ptr_unchecked17heb202389d54bba38E', symObjAddr: 0x23C, symBinAddr: 0x2F678, symSize: 0x30 }
  - { offset: 0xE5115, size: 0x8, addend: 0x0, symName: _PyInit__rdx, symObjAddr: 0x0, symBinAddr: 0x2F6A8, symSize: 0x34 }
  - { offset: 0xE5139, size: 0x8, addend: 0x0, symName: __ZN4_rdx4_rdx9_PYO3_DEF17h05d5503354ea35cdE, symObjAddr: 0x110, symBinAddr: 0x3A44A8, symSize: 0x0 }
  - { offset: 0xE5158, size: 0x8, addend: 0x0, symName: __ZN4_rdx4_rdx9_PYO3_DEF5SLOTS17h539f5979a69dd112E, symObjAddr: 0x190, symBinAddr: 0x3A4528, symSize: 0x0 }
  - { offset: 0xE5165, size: 0x8, addend: 0x0, symName: __ZN4_rdx4_rdx9_PYO3_DEF18__pyo3_module_exec17hca3ff33d45406e90E, symObjAddr: 0x6C, symBinAddr: 0x2F714, symSize: 0x3C }
  - { offset: 0xE5192, size: 0x8, addend: 0x0, symName: _PyInit__rdx, symObjAddr: 0x0, symBinAddr: 0x2F6A8, symSize: 0x34 }
  - { offset: 0xE7586, size: 0x8, addend: 0x0, symName: '__ZN4_rdx40_$LT$impl$u20$_rdx.._rdx..ModuleExec$GT$18__pyo3_module_exec17h9da8d71c985f5a04E', symObjAddr: 0x34, symBinAddr: 0x2F6DC, symSize: 0x38 }
  - { offset: 0xE75C6, size: 0x8, addend: 0x0, symName: '__ZN102_$LT$serde_core..de..value..SeqAccessDeserializer$LT$A$GT$$u20$as$u20$serde_core..de..Deserializer$GT$15deserialize_any17h058dba611108a981E', symObjAddr: 0x0, symBinAddr: 0x2F750, symSize: 0x24 }
  - { offset: 0xE92B1, size: 0x8, addend: 0x0, symName: '__ZN102_$LT$serde_core..de..value..SeqAccessDeserializer$LT$A$GT$$u20$as$u20$serde_core..de..Deserializer$GT$15deserialize_any17h058dba611108a981E', symObjAddr: 0x0, symBinAddr: 0x2F750, symSize: 0x24 }
  - { offset: 0xE9300, size: 0x8, addend: 0x0, symName: '__ZN102_$LT$serde_core..de..value..SeqAccessDeserializer$LT$A$GT$$u20$as$u20$serde_core..de..Deserializer$GT$15deserialize_any17h4f7522896165b32bE', symObjAddr: 0x24, symBinAddr: 0x2F774, symSize: 0x24 }
  - { offset: 0xE94AA, size: 0x8, addend: 0x0, symName: '__ZN97_$LT$serde_core..de..value..I128Deserializer$LT$E$GT$$u20$as$u20$serde_core..de..Deserializer$GT$15deserialize_any17h56b84ead3375aeb8E', symObjAddr: 0x100, symBinAddr: 0x2F850, symSize: 0x28 }
  - { offset: 0xE94FF, size: 0x8, addend: 0x0, symName: '__ZN97_$LT$serde_core..de..value..U128Deserializer$LT$E$GT$$u20$as$u20$serde_core..de..Deserializer$GT$15deserialize_any17h02c0e9ad8f4f5f78E', symObjAddr: 0x128, symBinAddr: 0x2F878, symSize: 0x28 }
  - { offset: 0xE9554, size: 0x8, addend: 0x0, symName: '__ZN99_$LT$serde_core..de..value..StringDeserializer$LT$E$GT$$u20$as$u20$serde_core..de..Deserializer$GT$15deserialize_any17h772ba98ebfc59048E', symObjAddr: 0x150, symBinAddr: 0x2F8A0, symSize: 0x34 }
  - { offset: 0xE95A4, size: 0x8, addend: 0x0, symName: '__ZN99_$LT$serde_core..de..value..StringDeserializer$LT$E$GT$$u20$as$u20$serde_core..de..Deserializer$GT$15deserialize_any17ha07bc4337269c3feE', symObjAddr: 0x184, symBinAddr: 0x2F8D4, symSize: 0x34 }
  - { offset: 0xE95F4, size: 0x8, addend: 0x0, symName: '__ZN99_$LT$serde_core..de..value..StringDeserializer$LT$E$GT$$u20$as$u20$serde_core..de..Deserializer$GT$22deserialize_identifier17h7d400fbb7b99c12dE', symObjAddr: 0x1B8, symBinAddr: 0x2F908, symSize: 0x1C }
  - { offset: 0xE9641, size: 0x8, addend: 0x0, symName: '__ZN99_$LT$serde_core..de..value..StringDeserializer$LT$E$GT$$u20$as$u20$serde_core..de..Deserializer$GT$22deserialize_identifier17ha173926cf9664136E', symObjAddr: 0x1D4, symBinAddr: 0x2F924, symSize: 0x1C }
  - { offset: 0xE9695, size: 0x8, addend: 0x0, symName: __ZN10serde_core2de12Deserializer24__deserialize_content_v117h1267ae605c7f47daE, symObjAddr: 0x48, symBinAddr: 0x2F798, symSize: 0x24 }
  - { offset: 0xE96E4, size: 0x8, addend: 0x0, symName: __ZN10serde_core2de12Deserializer24__deserialize_content_v117h972836432f39dffcE, symObjAddr: 0x6C, symBinAddr: 0x2F7BC, symSize: 0x24 }
  - { offset: 0xEA62D, size: 0x8, addend: 0x0, symName: '__ZN10serde_core2de5value25I128Deserializer$LT$E$GT$3new17h801b42f8a4feefb4E', symObjAddr: 0x90, symBinAddr: 0x2F7E0, symSize: 0x18 }
  - { offset: 0xEA660, size: 0x8, addend: 0x0, symName: '__ZN10serde_core2de5value25U128Deserializer$LT$E$GT$3new17h377cf922d020b755E', symObjAddr: 0xA8, symBinAddr: 0x2F7F8, symSize: 0x18 }
  - { offset: 0xEABC8, size: 0x8, addend: 0x0, symName: '__ZN10serde_core2de5value27StringDeserializer$LT$E$GT$3new17h49d79d8ccacea6a1E', symObjAddr: 0xC0, symBinAddr: 0x2F810, symSize: 0x18 }
  - { offset: 0xEACA6, size: 0x8, addend: 0x0, symName: '__ZN10serde_core2de5value30SeqAccessDeserializer$LT$A$GT$3new17h37e816a198c21a7eE', symObjAddr: 0xD8, symBinAddr: 0x2F828, symSize: 0x14 }
  - { offset: 0xEADAD, size: 0x8, addend: 0x0, symName: '__ZN10serde_core2de5value30SeqAccessDeserializer$LT$A$GT$3new17h887efe2f0ff8cddfE', symObjAddr: 0xEC, symBinAddr: 0x2F83C, symSize: 0x14 }
  - { offset: 0xEAE37, size: 0x8, addend: 0x0, symName: '__ZN106_$LT$core..ops..range..Range$LT$usize$GT$$u20$as$u20$core..slice..index..SliceIndex$LT$$u5b$T$u5d$$GT$$GT$9index_mut17h43fec0fbf0944595E', symObjAddr: 0x0, symBinAddr: 0x2F940, symSize: 0xBC }
  - { offset: 0xEC058, size: 0x8, addend: 0x0, symName: '__ZN106_$LT$core..ops..range..Range$LT$usize$GT$$u20$as$u20$core..slice..index..SliceIndex$LT$$u5b$T$u5d$$GT$$GT$9index_mut17h43fec0fbf0944595E', symObjAddr: 0x0, symBinAddr: 0x2F940, symSize: 0xBC }
  - { offset: 0xEC109, size: 0x8, addend: 0x0, symName: '__ZN108_$LT$core..ops..range..RangeTo$LT$usize$GT$$u20$as$u20$core..slice..index..SliceIndex$LT$$u5b$T$u5d$$GT$$GT$9index_mut17hcabf320bcb249114E', symObjAddr: 0xBC, symBinAddr: 0x2F9FC, symSize: 0x54 }
  - { offset: 0xEC190, size: 0x8, addend: 0x0, symName: '__ZN110_$LT$core..ops..range..RangeFrom$LT$usize$GT$$u20$as$u20$core..slice..index..SliceIndex$LT$$u5b$T$u5d$$GT$$GT$5index17h4e92d4d6021dd7f2E', symObjAddr: 0x110, symBinAddr: 0x2FA50, symSize: 0x70 }
  - { offset: 0xEC995, size: 0x8, addend: 0x0, symName: '__ZN153_$LT$core..result..Result$LT$T$C$F$GT$$u20$as$u20$core..ops..try_trait..FromResidual$LT$core..result..Result$LT$core..convert..Infallible$C$E$GT$$GT$$GT$13from_residual17h122d916512cf9708E', symObjAddr: 0x0, symBinAddr: 0x2FAC0, symSize: 0x4C }
  - { offset: 0xED1C0, size: 0x8, addend: 0x0, symName: '__ZN153_$LT$core..result..Result$LT$T$C$F$GT$$u20$as$u20$core..ops..try_trait..FromResidual$LT$core..result..Result$LT$core..convert..Infallible$C$E$GT$$GT$$GT$13from_residual17h122d916512cf9708E', symObjAddr: 0x0, symBinAddr: 0x2FAC0, symSize: 0x4C }
  - { offset: 0xED228, size: 0x8, addend: 0x0, symName: '__ZN153_$LT$core..result..Result$LT$T$C$F$GT$$u20$as$u20$core..ops..try_trait..FromResidual$LT$core..result..Result$LT$core..convert..Infallible$C$E$GT$$GT$$GT$13from_residual17h1370c332cb4e433bE', symObjAddr: 0x4C, symBinAddr: 0x2FB0C, symSize: 0x34 }
  - { offset: 0xED28F, size: 0x8, addend: 0x0, symName: '__ZN153_$LT$core..result..Result$LT$T$C$F$GT$$u20$as$u20$core..ops..try_trait..FromResidual$LT$core..result..Result$LT$core..convert..Infallible$C$E$GT$$GT$$GT$13from_residual17h1db181dd0e829545E', symObjAddr: 0x80, symBinAddr: 0x2FB40, symSize: 0x34 }
  - { offset: 0xED2F6, size: 0x8, addend: 0x0, symName: '__ZN153_$LT$core..result..Result$LT$T$C$F$GT$$u20$as$u20$core..ops..try_trait..FromResidual$LT$core..result..Result$LT$core..convert..Infallible$C$E$GT$$GT$$GT$13from_residual17h21c983d19b4c4211E', symObjAddr: 0xB4, symBinAddr: 0x2FB74, symSize: 0x50 }
  - { offset: 0xED35D, size: 0x8, addend: 0x0, symName: '__ZN153_$LT$core..result..Result$LT$T$C$F$GT$$u20$as$u20$core..ops..try_trait..FromResidual$LT$core..result..Result$LT$core..convert..Infallible$C$E$GT$$GT$$GT$13from_residual17h2bd63c0f9760cb0dE', symObjAddr: 0x104, symBinAddr: 0x2FBC4, symSize: 0x38 }
  - { offset: 0xED3C5, size: 0x8, addend: 0x0, symName: '__ZN153_$LT$core..result..Result$LT$T$C$F$GT$$u20$as$u20$core..ops..try_trait..FromResidual$LT$core..result..Result$LT$core..convert..Infallible$C$E$GT$$GT$$GT$13from_residual17h2d0e0b77a0f93f80E', symObjAddr: 0x13C, symBinAddr: 0x2FBFC, symSize: 0x34 }
  - { offset: 0xED42C, size: 0x8, addend: 0x0, symName: '__ZN153_$LT$core..result..Result$LT$T$C$F$GT$$u20$as$u20$core..ops..try_trait..FromResidual$LT$core..result..Result$LT$core..convert..Infallible$C$E$GT$$GT$$GT$13from_residual17h2e7fdf69176fcc2cE', symObjAddr: 0x170, symBinAddr: 0x2FC30, symSize: 0x4C }
  - { offset: 0xED494, size: 0x8, addend: 0x0, symName: '__ZN153_$LT$core..result..Result$LT$T$C$F$GT$$u20$as$u20$core..ops..try_trait..FromResidual$LT$core..result..Result$LT$core..convert..Infallible$C$E$GT$$GT$$GT$13from_residual17h310df461e441823eE', symObjAddr: 0x1BC, symBinAddr: 0x2FC7C, symSize: 0x4C }
  - { offset: 0xED4FC, size: 0x8, addend: 0x0, symName: '__ZN153_$LT$core..result..Result$LT$T$C$F$GT$$u20$as$u20$core..ops..try_trait..FromResidual$LT$core..result..Result$LT$core..convert..Infallible$C$E$GT$$GT$$GT$13from_residual17h3627ba0c5a7fc1ccE', symObjAddr: 0x208, symBinAddr: 0x2FCC8, symSize: 0x34 }
  - { offset: 0xED563, size: 0x8, addend: 0x0, symName: '__ZN153_$LT$core..result..Result$LT$T$C$F$GT$$u20$as$u20$core..ops..try_trait..FromResidual$LT$core..result..Result$LT$core..convert..Infallible$C$E$GT$$GT$$GT$13from_residual17h38996cf11eaccef0E', symObjAddr: 0x23C, symBinAddr: 0x2FCFC, symSize: 0x34 }
  - { offset: 0xED5CA, size: 0x8, addend: 0x0, symName: '__ZN153_$LT$core..result..Result$LT$T$C$F$GT$$u20$as$u20$core..ops..try_trait..FromResidual$LT$core..result..Result$LT$core..convert..Infallible$C$E$GT$$GT$$GT$13from_residual17h42aa926a00359185E', symObjAddr: 0x270, symBinAddr: 0x2FD30, symSize: 0x34 }
  - { offset: 0xED631, size: 0x8, addend: 0x0, symName: '__ZN153_$LT$core..result..Result$LT$T$C$F$GT$$u20$as$u20$core..ops..try_trait..FromResidual$LT$core..result..Result$LT$core..convert..Infallible$C$E$GT$$GT$$GT$13from_residual17h4f8d272cd46db7ecE', symObjAddr: 0x2A4, symBinAddr: 0x2FD64, symSize: 0x34 }
  - { offset: 0xED698, size: 0x8, addend: 0x0, symName: '__ZN153_$LT$core..result..Result$LT$T$C$F$GT$$u20$as$u20$core..ops..try_trait..FromResidual$LT$core..result..Result$LT$core..convert..Infallible$C$E$GT$$GT$$GT$13from_residual17h5a2c821df34aa668E', symObjAddr: 0x2D8, symBinAddr: 0x2FD98, symSize: 0x34 }
  - { offset: 0xED6FF, size: 0x8, addend: 0x0, symName: '__ZN153_$LT$core..result..Result$LT$T$C$F$GT$$u20$as$u20$core..ops..try_trait..FromResidual$LT$core..result..Result$LT$core..convert..Infallible$C$E$GT$$GT$$GT$13from_residual17h5bd64852950f2444E', symObjAddr: 0x30C, symBinAddr: 0x2FDCC, symSize: 0x4C }
  - { offset: 0xED767, size: 0x8, addend: 0x0, symName: '__ZN153_$LT$core..result..Result$LT$T$C$F$GT$$u20$as$u20$core..ops..try_trait..FromResidual$LT$core..result..Result$LT$core..convert..Infallible$C$E$GT$$GT$$GT$13from_residual17h602e7e52e1f338afE', symObjAddr: 0x358, symBinAddr: 0x2FE18, symSize: 0x24 }
  - { offset: 0xED7B0, size: 0x8, addend: 0x0, symName: '__ZN153_$LT$core..result..Result$LT$T$C$F$GT$$u20$as$u20$core..ops..try_trait..FromResidual$LT$core..result..Result$LT$core..convert..Infallible$C$E$GT$$GT$$GT$13from_residual17h63707a7ec1be3458E', symObjAddr: 0x37C, symBinAddr: 0x2FE3C, symSize: 0x34 }
  - { offset: 0xED817, size: 0x8, addend: 0x0, symName: '__ZN153_$LT$core..result..Result$LT$T$C$F$GT$$u20$as$u20$core..ops..try_trait..FromResidual$LT$core..result..Result$LT$core..convert..Infallible$C$E$GT$$GT$$GT$13from_residual17h6a9d6311b5fc199aE', symObjAddr: 0x3B0, symBinAddr: 0x2FE70, symSize: 0x34 }
  - { offset: 0xED87E, size: 0x8, addend: 0x0, symName: '__ZN153_$LT$core..result..Result$LT$T$C$F$GT$$u20$as$u20$core..ops..try_trait..FromResidual$LT$core..result..Result$LT$core..convert..Infallible$C$E$GT$$GT$$GT$13from_residual17h6ef6fb3f02cb07e7E', symObjAddr: 0x3E4, symBinAddr: 0x2FEA4, symSize: 0x38 }
  - { offset: 0xED8E5, size: 0x8, addend: 0x0, symName: '__ZN153_$LT$core..result..Result$LT$T$C$F$GT$$u20$as$u20$core..ops..try_trait..FromResidual$LT$core..result..Result$LT$core..convert..Infallible$C$E$GT$$GT$$GT$13from_residual17h7373a5b9a8d68353E', symObjAddr: 0x41C, symBinAddr: 0x2FEDC, symSize: 0x44 }
  - { offset: 0xED94D, size: 0x8, addend: 0x0, symName: '__ZN153_$LT$core..result..Result$LT$T$C$F$GT$$u20$as$u20$core..ops..try_trait..FromResidual$LT$core..result..Result$LT$core..convert..Infallible$C$E$GT$$GT$$GT$13from_residual17h78a5a810bd820498E', symObjAddr: 0x460, symBinAddr: 0x2FF20, symSize: 0x44 }
  - { offset: 0xED9B4, size: 0x8, addend: 0x0, symName: '__ZN153_$LT$core..result..Result$LT$T$C$F$GT$$u20$as$u20$core..ops..try_trait..FromResidual$LT$core..result..Result$LT$core..convert..Infallible$C$E$GT$$GT$$GT$13from_residual17h847281593b174f67E', symObjAddr: 0x4A4, symBinAddr: 0x2FF64, symSize: 0x34 }
  - { offset: 0xEDA1B, size: 0x8, addend: 0x0, symName: '__ZN153_$LT$core..result..Result$LT$T$C$F$GT$$u20$as$u20$core..ops..try_trait..FromResidual$LT$core..result..Result$LT$core..convert..Infallible$C$E$GT$$GT$$GT$13from_residual17h92d09824911fa20bE', symObjAddr: 0x4D8, symBinAddr: 0x2FF98, symSize: 0x4C }
  - { offset: 0xEDA83, size: 0x8, addend: 0x0, symName: '__ZN153_$LT$core..result..Result$LT$T$C$F$GT$$u20$as$u20$core..ops..try_trait..FromResidual$LT$core..result..Result$LT$core..convert..Infallible$C$E$GT$$GT$$GT$13from_residual17h958c7e781efabda0E', symObjAddr: 0x524, symBinAddr: 0x2FFE4, symSize: 0x34 }
  - { offset: 0xEDAEA, size: 0x8, addend: 0x0, symName: '__ZN153_$LT$core..result..Result$LT$T$C$F$GT$$u20$as$u20$core..ops..try_trait..FromResidual$LT$core..result..Result$LT$core..convert..Infallible$C$E$GT$$GT$$GT$13from_residual17h9bf6b885a18bb835E', symObjAddr: 0x558, symBinAddr: 0x30018, symSize: 0x4C }
  - { offset: 0xEDB52, size: 0x8, addend: 0x0, symName: '__ZN153_$LT$core..result..Result$LT$T$C$F$GT$$u20$as$u20$core..ops..try_trait..FromResidual$LT$core..result..Result$LT$core..convert..Infallible$C$E$GT$$GT$$GT$13from_residual17h9d91a9d61705e7e5E', symObjAddr: 0x5A4, symBinAddr: 0x30064, symSize: 0x50 }
  - { offset: 0xEDBB9, size: 0x8, addend: 0x0, symName: '__ZN153_$LT$core..result..Result$LT$T$C$F$GT$$u20$as$u20$core..ops..try_trait..FromResidual$LT$core..result..Result$LT$core..convert..Infallible$C$E$GT$$GT$$GT$13from_residual17ha39c2664e0f95007E', symObjAddr: 0x5F4, symBinAddr: 0x300B4, symSize: 0x34 }
  - { offset: 0xEDC20, size: 0x8, addend: 0x0, symName: '__ZN153_$LT$core..result..Result$LT$T$C$F$GT$$u20$as$u20$core..ops..try_trait..FromResidual$LT$core..result..Result$LT$core..convert..Infallible$C$E$GT$$GT$$GT$13from_residual17ha43bdb8398240a7eE', symObjAddr: 0x628, symBinAddr: 0x300E8, symSize: 0x34 }
  - { offset: 0xEDC87, size: 0x8, addend: 0x0, symName: '__ZN153_$LT$core..result..Result$LT$T$C$F$GT$$u20$as$u20$core..ops..try_trait..FromResidual$LT$core..result..Result$LT$core..convert..Infallible$C$E$GT$$GT$$GT$13from_residual17ha7b59725b0e2c448E', symObjAddr: 0x65C, symBinAddr: 0x3011C, symSize: 0x34 }
  - { offset: 0xEDCEE, size: 0x8, addend: 0x0, symName: '__ZN153_$LT$core..result..Result$LT$T$C$F$GT$$u20$as$u20$core..ops..try_trait..FromResidual$LT$core..result..Result$LT$core..convert..Infallible$C$E$GT$$GT$$GT$13from_residual17had7dd315f6fc9dffE', symObjAddr: 0x690, symBinAddr: 0x30150, symSize: 0x6C }
  - { offset: 0xEDD74, size: 0x8, addend: 0x0, symName: '__ZN153_$LT$core..result..Result$LT$T$C$F$GT$$u20$as$u20$core..ops..try_trait..FromResidual$LT$core..result..Result$LT$core..convert..Infallible$C$E$GT$$GT$$GT$13from_residual17hadbd8f0597c863c8E', symObjAddr: 0x6FC, symBinAddr: 0x301BC, symSize: 0x48 }
  - { offset: 0xEDDDC, size: 0x8, addend: 0x0, symName: '__ZN153_$LT$core..result..Result$LT$T$C$F$GT$$u20$as$u20$core..ops..try_trait..FromResidual$LT$core..result..Result$LT$core..convert..Infallible$C$E$GT$$GT$$GT$13from_residual17haf0192bebb35156bE', symObjAddr: 0x744, symBinAddr: 0x30204, symSize: 0x34 }
  - { offset: 0xEDE43, size: 0x8, addend: 0x0, symName: '__ZN153_$LT$core..result..Result$LT$T$C$F$GT$$u20$as$u20$core..ops..try_trait..FromResidual$LT$core..result..Result$LT$core..convert..Infallible$C$E$GT$$GT$$GT$13from_residual17hb6605a8e25bb3371E', symObjAddr: 0x780, symBinAddr: 0x30238, symSize: 0x34 }
  - { offset: 0xEDEAA, size: 0x8, addend: 0x0, symName: '__ZN153_$LT$core..result..Result$LT$T$C$F$GT$$u20$as$u20$core..ops..try_trait..FromResidual$LT$core..result..Result$LT$core..convert..Infallible$C$E$GT$$GT$$GT$13from_residual17hb8bc22fefc484df0E', symObjAddr: 0x7B4, symBinAddr: 0x3026C, symSize: 0x38 }
  - { offset: 0xEDF11, size: 0x8, addend: 0x0, symName: '__ZN153_$LT$core..result..Result$LT$T$C$F$GT$$u20$as$u20$core..ops..try_trait..FromResidual$LT$core..result..Result$LT$core..convert..Infallible$C$E$GT$$GT$$GT$13from_residual17hbd1725cc2a399924E', symObjAddr: 0x7EC, symBinAddr: 0x302A4, symSize: 0x34 }
  - { offset: 0xEDF78, size: 0x8, addend: 0x0, symName: '__ZN153_$LT$core..result..Result$LT$T$C$F$GT$$u20$as$u20$core..ops..try_trait..FromResidual$LT$core..result..Result$LT$core..convert..Infallible$C$E$GT$$GT$$GT$13from_residual17hbe07d9b59198e616E', symObjAddr: 0x820, symBinAddr: 0x302D8, symSize: 0x24 }
  - { offset: 0xEDFC1, size: 0x8, addend: 0x0, symName: '__ZN153_$LT$core..result..Result$LT$T$C$F$GT$$u20$as$u20$core..ops..try_trait..FromResidual$LT$core..result..Result$LT$core..convert..Infallible$C$E$GT$$GT$$GT$13from_residual17hd3590017c527a737E', symObjAddr: 0x844, symBinAddr: 0x302FC, symSize: 0x50 }
  - { offset: 0xEE028, size: 0x8, addend: 0x0, symName: '__ZN153_$LT$core..result..Result$LT$T$C$F$GT$$u20$as$u20$core..ops..try_trait..FromResidual$LT$core..result..Result$LT$core..convert..Infallible$C$E$GT$$GT$$GT$13from_residual17hd37ccd9fbcedc5abE', symObjAddr: 0x894, symBinAddr: 0x3034C, symSize: 0x6C }
  - { offset: 0xEE08F, size: 0x8, addend: 0x0, symName: '__ZN153_$LT$core..result..Result$LT$T$C$F$GT$$u20$as$u20$core..ops..try_trait..FromResidual$LT$core..result..Result$LT$core..convert..Infallible$C$E$GT$$GT$$GT$13from_residual17he4deba8eb6b7b795E', symObjAddr: 0x900, symBinAddr: 0x303B8, symSize: 0x6C }
  - { offset: 0xEE115, size: 0x8, addend: 0x0, symName: '__ZN153_$LT$core..result..Result$LT$T$C$F$GT$$u20$as$u20$core..ops..try_trait..FromResidual$LT$core..result..Result$LT$core..convert..Infallible$C$E$GT$$GT$$GT$13from_residual17hedea40a04dd85e34E', symObjAddr: 0x96C, symBinAddr: 0x30424, symSize: 0x34 }
  - { offset: 0xEE17C, size: 0x8, addend: 0x0, symName: '__ZN153_$LT$core..result..Result$LT$T$C$F$GT$$u20$as$u20$core..ops..try_trait..FromResidual$LT$core..result..Result$LT$core..convert..Infallible$C$E$GT$$GT$$GT$13from_residual17hff1aaa55a52db6c5E', symObjAddr: 0x9A0, symBinAddr: 0x30458, symSize: 0x6C }
  - { offset: 0xF3C77, size: 0x8, addend: 0x0, symName: '__ZN79_$LT$core..result..Result$LT$T$C$E$GT$$u20$as$u20$core..ops..try_trait..Try$GT$11from_output17h09dd3c3ee282b4d8E', symObjAddr: 0x4EA8, symBinAddr: 0x34960, symSize: 0x10 }
  - { offset: 0xF3CB7, size: 0x8, addend: 0x0, symName: '__ZN79_$LT$core..result..Result$LT$T$C$E$GT$$u20$as$u20$core..ops..try_trait..Try$GT$11from_output17h0a42ce6ef9edf951E', symObjAddr: 0x4EB8, symBinAddr: 0x34970, symSize: 0x18 }
  - { offset: 0xF3CF7, size: 0x8, addend: 0x0, symName: '__ZN79_$LT$core..result..Result$LT$T$C$E$GT$$u20$as$u20$core..ops..try_trait..Try$GT$11from_output17h1cfd351fcfa7f75bE', symObjAddr: 0x4ED0, symBinAddr: 0x34988, symSize: 0x1C }
  - { offset: 0xF3D37, size: 0x8, addend: 0x0, symName: '__ZN79_$LT$core..result..Result$LT$T$C$E$GT$$u20$as$u20$core..ops..try_trait..Try$GT$6branch17h027d3084c0db802fE', symObjAddr: 0x4EEC, symBinAddr: 0x349A4, symSize: 0x78 }
  - { offset: 0xF3DB4, size: 0x8, addend: 0x0, symName: '__ZN79_$LT$core..result..Result$LT$T$C$E$GT$$u20$as$u20$core..ops..try_trait..Try$GT$6branch17h02c1daa225a1006aE', symObjAddr: 0x4F64, symBinAddr: 0x34A1C, symSize: 0x5C }
  - { offset: 0xF3E31, size: 0x8, addend: 0x0, symName: '__ZN79_$LT$core..result..Result$LT$T$C$E$GT$$u20$as$u20$core..ops..try_trait..Try$GT$6branch17h08c656884dd68546E', symObjAddr: 0x4FC0, symBinAddr: 0x34A78, symSize: 0x84 }
  - { offset: 0xF3EAE, size: 0x8, addend: 0x0, symName: '__ZN79_$LT$core..result..Result$LT$T$C$E$GT$$u20$as$u20$core..ops..try_trait..Try$GT$6branch17h0f6bb77fd8c975e1E', symObjAddr: 0x5044, symBinAddr: 0x34AFC, symSize: 0x54 }
  - { offset: 0xF3F2A, size: 0x8, addend: 0x0, symName: '__ZN79_$LT$core..result..Result$LT$T$C$E$GT$$u20$as$u20$core..ops..try_trait..Try$GT$6branch17h1031133434c86849E', symObjAddr: 0x5098, symBinAddr: 0x34B50, symSize: 0x68 }
  - { offset: 0xF3FA7, size: 0x8, addend: 0x0, symName: '__ZN79_$LT$core..result..Result$LT$T$C$E$GT$$u20$as$u20$core..ops..try_trait..Try$GT$6branch17h107a543a355c64d8E', symObjAddr: 0x5100, symBinAddr: 0x34BB8, symSize: 0x5C }
  - { offset: 0xF4024, size: 0x8, addend: 0x0, symName: '__ZN79_$LT$core..result..Result$LT$T$C$E$GT$$u20$as$u20$core..ops..try_trait..Try$GT$6branch17h12e3bf3b7ecea43bE', symObjAddr: 0x515C, symBinAddr: 0x34C14, symSize: 0x84 }
  - { offset: 0xF40A1, size: 0x8, addend: 0x0, symName: '__ZN79_$LT$core..result..Result$LT$T$C$E$GT$$u20$as$u20$core..ops..try_trait..Try$GT$6branch17h20c42d6f63bfcb4bE', symObjAddr: 0x51E0, symBinAddr: 0x34C98, symSize: 0x84 }
  - { offset: 0xF411E, size: 0x8, addend: 0x0, symName: '__ZN79_$LT$core..result..Result$LT$T$C$E$GT$$u20$as$u20$core..ops..try_trait..Try$GT$6branch17h246bdddf4f1a3564E', symObjAddr: 0x5264, symBinAddr: 0x34D1C, symSize: 0x5C }
  - { offset: 0xF419B, size: 0x8, addend: 0x0, symName: '__ZN79_$LT$core..result..Result$LT$T$C$E$GT$$u20$as$u20$core..ops..try_trait..Try$GT$6branch17h2cc6489a698daad8E', symObjAddr: 0x52C0, symBinAddr: 0x34D78, symSize: 0x5C }
  - { offset: 0xF4218, size: 0x8, addend: 0x0, symName: '__ZN79_$LT$core..result..Result$LT$T$C$E$GT$$u20$as$u20$core..ops..try_trait..Try$GT$6branch17h2ccd36fea232e86aE', symObjAddr: 0x531C, symBinAddr: 0x34DD4, symSize: 0x8C }
  - { offset: 0xF4295, size: 0x8, addend: 0x0, symName: '__ZN79_$LT$core..result..Result$LT$T$C$E$GT$$u20$as$u20$core..ops..try_trait..Try$GT$6branch17h2e5b1bf53e3bd9e7E', symObjAddr: 0x53A8, symBinAddr: 0x34E60, symSize: 0x84 }
  - { offset: 0xF4312, size: 0x8, addend: 0x0, symName: '__ZN79_$LT$core..result..Result$LT$T$C$E$GT$$u20$as$u20$core..ops..try_trait..Try$GT$6branch17h30da4a126f330149E', symObjAddr: 0x542C, symBinAddr: 0x34EE4, symSize: 0x7C }
  - { offset: 0xF438F, size: 0x8, addend: 0x0, symName: '__ZN79_$LT$core..result..Result$LT$T$C$E$GT$$u20$as$u20$core..ops..try_trait..Try$GT$6branch17h32c9352505a9fa61E', symObjAddr: 0x54A8, symBinAddr: 0x34F60, symSize: 0x78 }
  - { offset: 0xF440C, size: 0x8, addend: 0x0, symName: '__ZN79_$LT$core..result..Result$LT$T$C$E$GT$$u20$as$u20$core..ops..try_trait..Try$GT$6branch17h3cca5c764fc9de62E', symObjAddr: 0x5520, symBinAddr: 0x34FD8, symSize: 0x84 }
  - { offset: 0xF4489, size: 0x8, addend: 0x0, symName: '__ZN79_$LT$core..result..Result$LT$T$C$E$GT$$u20$as$u20$core..ops..try_trait..Try$GT$6branch17h408cbb286e0430f7E', symObjAddr: 0x55A4, symBinAddr: 0x3505C, symSize: 0x5C }
  - { offset: 0xF4506, size: 0x8, addend: 0x0, symName: '__ZN79_$LT$core..result..Result$LT$T$C$E$GT$$u20$as$u20$core..ops..try_trait..Try$GT$6branch17h40fcb61709854d31E', symObjAddr: 0x5600, symBinAddr: 0x350B8, symSize: 0x70 }
  - { offset: 0xF4583, size: 0x8, addend: 0x0, symName: '__ZN79_$LT$core..result..Result$LT$T$C$E$GT$$u20$as$u20$core..ops..try_trait..Try$GT$6branch17h41664bd098ad5de0E', symObjAddr: 0x5670, symBinAddr: 0x35128, symSize: 0x40 }
  - { offset: 0xF45FF, size: 0x8, addend: 0x0, symName: '__ZN79_$LT$core..result..Result$LT$T$C$E$GT$$u20$as$u20$core..ops..try_trait..Try$GT$6branch17h427976ec0640b4a5E', symObjAddr: 0x56B0, symBinAddr: 0x35168, symSize: 0x5C }
  - { offset: 0xF467C, size: 0x8, addend: 0x0, symName: '__ZN79_$LT$core..result..Result$LT$T$C$E$GT$$u20$as$u20$core..ops..try_trait..Try$GT$6branch17h44c3511eb33571aeE', symObjAddr: 0x570C, symBinAddr: 0x351C4, symSize: 0x40 }
  - { offset: 0xF46F8, size: 0x8, addend: 0x0, symName: '__ZN79_$LT$core..result..Result$LT$T$C$E$GT$$u20$as$u20$core..ops..try_trait..Try$GT$6branch17h4a1609131dc3992bE', symObjAddr: 0x574C, symBinAddr: 0x35204, symSize: 0x5C }
  - { offset: 0xF4775, size: 0x8, addend: 0x0, symName: '__ZN79_$LT$core..result..Result$LT$T$C$E$GT$$u20$as$u20$core..ops..try_trait..Try$GT$6branch17h4b9732e90592ce73E', symObjAddr: 0x57A8, symBinAddr: 0x35260, symSize: 0x78 }
  - { offset: 0xF47F2, size: 0x8, addend: 0x0, symName: '__ZN79_$LT$core..result..Result$LT$T$C$E$GT$$u20$as$u20$core..ops..try_trait..Try$GT$6branch17h5029b91988a93b52E', symObjAddr: 0x5820, symBinAddr: 0x352D8, symSize: 0x74 }
  - { offset: 0xF486F, size: 0x8, addend: 0x0, symName: '__ZN79_$LT$core..result..Result$LT$T$C$E$GT$$u20$as$u20$core..ops..try_trait..Try$GT$6branch17h5738b57568615564E', symObjAddr: 0x5894, symBinAddr: 0x3534C, symSize: 0xA0 }
  - { offset: 0xF48EC, size: 0x8, addend: 0x0, symName: '__ZN79_$LT$core..result..Result$LT$T$C$E$GT$$u20$as$u20$core..ops..try_trait..Try$GT$6branch17h5a4f3bbcfa5c1d22E', symObjAddr: 0x5934, symBinAddr: 0x353EC, symSize: 0x7C }
  - { offset: 0xF4969, size: 0x8, addend: 0x0, symName: '__ZN79_$LT$core..result..Result$LT$T$C$E$GT$$u20$as$u20$core..ops..try_trait..Try$GT$6branch17h5d8bb7a962a33fa9E', symObjAddr: 0x59B0, symBinAddr: 0x35468, symSize: 0x5C }
  - { offset: 0xF49E6, size: 0x8, addend: 0x0, symName: '__ZN79_$LT$core..result..Result$LT$T$C$E$GT$$u20$as$u20$core..ops..try_trait..Try$GT$6branch17h614a4946beb6cb09E', symObjAddr: 0x5A0C, symBinAddr: 0x354C4, symSize: 0x8C }
  - { offset: 0xF4A63, size: 0x8, addend: 0x0, symName: '__ZN79_$LT$core..result..Result$LT$T$C$E$GT$$u20$as$u20$core..ops..try_trait..Try$GT$6branch17h618947c2f2659fd1E', symObjAddr: 0x5A98, symBinAddr: 0x35550, symSize: 0x68 }
  - { offset: 0xF4AE0, size: 0x8, addend: 0x0, symName: '__ZN79_$LT$core..result..Result$LT$T$C$E$GT$$u20$as$u20$core..ops..try_trait..Try$GT$6branch17h63510742fa511061E', symObjAddr: 0x5B00, symBinAddr: 0x355B8, symSize: 0x5C }
  - { offset: 0xF4B5D, size: 0x8, addend: 0x0, symName: '__ZN79_$LT$core..result..Result$LT$T$C$E$GT$$u20$as$u20$core..ops..try_trait..Try$GT$6branch17h648c9dc7ea4789fcE', symObjAddr: 0x5B5C, symBinAddr: 0x35614, symSize: 0x68 }
  - { offset: 0xF4BDA, size: 0x8, addend: 0x0, symName: '__ZN79_$LT$core..result..Result$LT$T$C$E$GT$$u20$as$u20$core..ops..try_trait..Try$GT$6branch17h66fd0e4bf4015f93E', symObjAddr: 0x5BC4, symBinAddr: 0x3567C, symSize: 0x40 }
  - { offset: 0xF4C56, size: 0x8, addend: 0x0, symName: '__ZN79_$LT$core..result..Result$LT$T$C$E$GT$$u20$as$u20$core..ops..try_trait..Try$GT$6branch17h6909fc1c79bda47aE', symObjAddr: 0x5C04, symBinAddr: 0x356BC, symSize: 0x5C }
  - { offset: 0xF4CD3, size: 0x8, addend: 0x0, symName: '__ZN79_$LT$core..result..Result$LT$T$C$E$GT$$u20$as$u20$core..ops..try_trait..Try$GT$6branch17h6d64acf8bc542318E', symObjAddr: 0x5C60, symBinAddr: 0x35718, symSize: 0x5C }
  - { offset: 0xF4D50, size: 0x8, addend: 0x0, symName: '__ZN79_$LT$core..result..Result$LT$T$C$E$GT$$u20$as$u20$core..ops..try_trait..Try$GT$6branch17h711353d4cfe9ac18E', symObjAddr: 0x5CBC, symBinAddr: 0x35774, symSize: 0x5C }
  - { offset: 0xF4DCD, size: 0x8, addend: 0x0, symName: '__ZN79_$LT$core..result..Result$LT$T$C$E$GT$$u20$as$u20$core..ops..try_trait..Try$GT$6branch17h7124fce8f2c7c35bE', symObjAddr: 0x5D18, symBinAddr: 0x357D0, symSize: 0x8C }
  - { offset: 0xF4E4A, size: 0x8, addend: 0x0, symName: '__ZN79_$LT$core..result..Result$LT$T$C$E$GT$$u20$as$u20$core..ops..try_trait..Try$GT$6branch17h7710c30c21fec3abE', symObjAddr: 0x5DA4, symBinAddr: 0x3585C, symSize: 0xA0 }
  - { offset: 0xF4EC7, size: 0x8, addend: 0x0, symName: '__ZN79_$LT$core..result..Result$LT$T$C$E$GT$$u20$as$u20$core..ops..try_trait..Try$GT$6branch17h7a31502062eb8045E', symObjAddr: 0x5E44, symBinAddr: 0x358FC, symSize: 0x88 }
  - { offset: 0xF4F44, size: 0x8, addend: 0x0, symName: '__ZN79_$LT$core..result..Result$LT$T$C$E$GT$$u20$as$u20$core..ops..try_trait..Try$GT$6branch17h7d2dc861106267f2E', symObjAddr: 0x5ECC, symBinAddr: 0x35984, symSize: 0x7C }
  - { offset: 0xF4FC1, size: 0x8, addend: 0x0, symName: '__ZN79_$LT$core..result..Result$LT$T$C$E$GT$$u20$as$u20$core..ops..try_trait..Try$GT$6branch17h812f3c151f859064E', symObjAddr: 0x5F48, symBinAddr: 0x35A00, symSize: 0x68 }
  - { offset: 0xF503E, size: 0x8, addend: 0x0, symName: '__ZN79_$LT$core..result..Result$LT$T$C$E$GT$$u20$as$u20$core..ops..try_trait..Try$GT$6branch17h874130254f6b0df5E', symObjAddr: 0x5FB0, symBinAddr: 0x35A68, symSize: 0xB4 }
  - { offset: 0xF50BC, size: 0x8, addend: 0x0, symName: '__ZN79_$LT$core..result..Result$LT$T$C$E$GT$$u20$as$u20$core..ops..try_trait..Try$GT$6branch17h87628b93b52780faE', symObjAddr: 0x6064, symBinAddr: 0x35B1C, symSize: 0xA0 }
  - { offset: 0xF5139, size: 0x8, addend: 0x0, symName: '__ZN79_$LT$core..result..Result$LT$T$C$E$GT$$u20$as$u20$core..ops..try_trait..Try$GT$6branch17h87c5345eabc1fb3cE', symObjAddr: 0x6104, symBinAddr: 0x35BBC, symSize: 0x88 }
  - { offset: 0xF51B6, size: 0x8, addend: 0x0, symName: '__ZN79_$LT$core..result..Result$LT$T$C$E$GT$$u20$as$u20$core..ops..try_trait..Try$GT$6branch17h8b64800c358a31e5E', symObjAddr: 0x618C, symBinAddr: 0x35C44, symSize: 0x8C }
  - { offset: 0xF5233, size: 0x8, addend: 0x0, symName: '__ZN79_$LT$core..result..Result$LT$T$C$E$GT$$u20$as$u20$core..ops..try_trait..Try$GT$6branch17h8fc0d9478a8c99c0E', symObjAddr: 0x6218, symBinAddr: 0x35CD0, symSize: 0x5C }
  - { offset: 0xF52B0, size: 0x8, addend: 0x0, symName: '__ZN79_$LT$core..result..Result$LT$T$C$E$GT$$u20$as$u20$core..ops..try_trait..Try$GT$6branch17h90a429bd943d6c4eE', symObjAddr: 0x6274, symBinAddr: 0x35D2C, symSize: 0x8C }
  - { offset: 0xF532D, size: 0x8, addend: 0x0, symName: '__ZN79_$LT$core..result..Result$LT$T$C$E$GT$$u20$as$u20$core..ops..try_trait..Try$GT$6branch17h914146cc08feff01E', symObjAddr: 0x6300, symBinAddr: 0x35DB8, symSize: 0x5C }
  - { offset: 0xF53AA, size: 0x8, addend: 0x0, symName: '__ZN79_$LT$core..result..Result$LT$T$C$E$GT$$u20$as$u20$core..ops..try_trait..Try$GT$6branch17h954bae715ab58bf2E', symObjAddr: 0x635C, symBinAddr: 0x35E14, symSize: 0xB4 }
  - { offset: 0xF5428, size: 0x8, addend: 0x0, symName: '__ZN79_$LT$core..result..Result$LT$T$C$E$GT$$u20$as$u20$core..ops..try_trait..Try$GT$6branch17h962634a14e3a6e87E', symObjAddr: 0x6410, symBinAddr: 0x35EC8, symSize: 0x68 }
  - { offset: 0xF54A5, size: 0x8, addend: 0x0, symName: '__ZN79_$LT$core..result..Result$LT$T$C$E$GT$$u20$as$u20$core..ops..try_trait..Try$GT$6branch17h96cf03ee0e56530bE', symObjAddr: 0x6478, symBinAddr: 0x35F30, symSize: 0x78 }
  - { offset: 0xF5522, size: 0x8, addend: 0x0, symName: '__ZN79_$LT$core..result..Result$LT$T$C$E$GT$$u20$as$u20$core..ops..try_trait..Try$GT$6branch17h9efc09a0374d30c1E', symObjAddr: 0x64F0, symBinAddr: 0x35FA8, symSize: 0xC4 }
  - { offset: 0xF55A0, size: 0x8, addend: 0x0, symName: '__ZN79_$LT$core..result..Result$LT$T$C$E$GT$$u20$as$u20$core..ops..try_trait..Try$GT$6branch17ha013b6c30f66faf0E', symObjAddr: 0x65B4, symBinAddr: 0x3606C, symSize: 0x5C }
  - { offset: 0xF561D, size: 0x8, addend: 0x0, symName: '__ZN79_$LT$core..result..Result$LT$T$C$E$GT$$u20$as$u20$core..ops..try_trait..Try$GT$6branch17ha17b271f81fc91e1E', symObjAddr: 0x6610, symBinAddr: 0x360C8, symSize: 0x7C }
  - { offset: 0xF569A, size: 0x8, addend: 0x0, symName: '__ZN79_$LT$core..result..Result$LT$T$C$E$GT$$u20$as$u20$core..ops..try_trait..Try$GT$6branch17ha900f9baaa5238baE', symObjAddr: 0x668C, symBinAddr: 0x36144, symSize: 0x54 }
  - { offset: 0xF5716, size: 0x8, addend: 0x0, symName: '__ZN79_$LT$core..result..Result$LT$T$C$E$GT$$u20$as$u20$core..ops..try_trait..Try$GT$6branch17ha9141524d288fd3eE', symObjAddr: 0x66E0, symBinAddr: 0x36198, symSize: 0x78 }
  - { offset: 0xF5793, size: 0x8, addend: 0x0, symName: '__ZN79_$LT$core..result..Result$LT$T$C$E$GT$$u20$as$u20$core..ops..try_trait..Try$GT$6branch17hab52759b0dfd76deE', symObjAddr: 0x6758, symBinAddr: 0x36210, symSize: 0x5C }
  - { offset: 0xF5810, size: 0x8, addend: 0x0, symName: '__ZN79_$LT$core..result..Result$LT$T$C$E$GT$$u20$as$u20$core..ops..try_trait..Try$GT$6branch17hae3081bae301229dE', symObjAddr: 0x67B4, symBinAddr: 0x3626C, symSize: 0x90 }
  - { offset: 0xF588D, size: 0x8, addend: 0x0, symName: '__ZN79_$LT$core..result..Result$LT$T$C$E$GT$$u20$as$u20$core..ops..try_trait..Try$GT$6branch17haf4c22aad78a3082E', symObjAddr: 0x6844, symBinAddr: 0x362FC, symSize: 0x7C }
  - { offset: 0xF590A, size: 0x8, addend: 0x0, symName: '__ZN79_$LT$core..result..Result$LT$T$C$E$GT$$u20$as$u20$core..ops..try_trait..Try$GT$6branch17haf98523650214de1E', symObjAddr: 0x68C0, symBinAddr: 0x36378, symSize: 0xB4 }
  - { offset: 0xF5988, size: 0x8, addend: 0x0, symName: '__ZN79_$LT$core..result..Result$LT$T$C$E$GT$$u20$as$u20$core..ops..try_trait..Try$GT$6branch17hbb8e51079674367eE', symObjAddr: 0x6974, symBinAddr: 0x3642C, symSize: 0x5C }
  - { offset: 0xF5A05, size: 0x8, addend: 0x0, symName: '__ZN79_$LT$core..result..Result$LT$T$C$E$GT$$u20$as$u20$core..ops..try_trait..Try$GT$6branch17hccddba79ad278bf9E', symObjAddr: 0x69D0, symBinAddr: 0x36488, symSize: 0x7C }
  - { offset: 0xF5A82, size: 0x8, addend: 0x0, symName: '__ZN79_$LT$core..result..Result$LT$T$C$E$GT$$u20$as$u20$core..ops..try_trait..Try$GT$6branch17hce93c4d5ef80885fE', symObjAddr: 0x6A4C, symBinAddr: 0x36504, symSize: 0x5C }
  - { offset: 0xF5AFF, size: 0x8, addend: 0x0, symName: '__ZN79_$LT$core..result..Result$LT$T$C$E$GT$$u20$as$u20$core..ops..try_trait..Try$GT$6branch17hd3040f58b1c28187E', symObjAddr: 0x6AA8, symBinAddr: 0x36560, symSize: 0x88 }
  - { offset: 0xF5B7C, size: 0x8, addend: 0x0, symName: '__ZN79_$LT$core..result..Result$LT$T$C$E$GT$$u20$as$u20$core..ops..try_trait..Try$GT$6branch17hd327964e416162f7E', symObjAddr: 0x6B30, symBinAddr: 0x365E8, symSize: 0x74 }
  - { offset: 0xF5BF9, size: 0x8, addend: 0x0, symName: '__ZN79_$LT$core..result..Result$LT$T$C$E$GT$$u20$as$u20$core..ops..try_trait..Try$GT$6branch17hd517a65466c5005eE', symObjAddr: 0x6BA4, symBinAddr: 0x3665C, symSize: 0x84 }
  - { offset: 0xF5C76, size: 0x8, addend: 0x0, symName: '__ZN79_$LT$core..result..Result$LT$T$C$E$GT$$u20$as$u20$core..ops..try_trait..Try$GT$6branch17hd71dafee4ff3f6c7E', symObjAddr: 0x6C28, symBinAddr: 0x366E0, symSize: 0xA0 }
  - { offset: 0xF5CF3, size: 0x8, addend: 0x0, symName: '__ZN79_$LT$core..result..Result$LT$T$C$E$GT$$u20$as$u20$core..ops..try_trait..Try$GT$6branch17he35ecade82fea525E', symObjAddr: 0x6CC8, symBinAddr: 0x36780, symSize: 0x8C }
  - { offset: 0xF5D70, size: 0x8, addend: 0x0, symName: '__ZN79_$LT$core..result..Result$LT$T$C$E$GT$$u20$as$u20$core..ops..try_trait..Try$GT$6branch17he94957cd4f669bc2E', symObjAddr: 0x6D54, symBinAddr: 0x3680C, symSize: 0x5C }
  - { offset: 0xF5DED, size: 0x8, addend: 0x0, symName: '__ZN79_$LT$core..result..Result$LT$T$C$E$GT$$u20$as$u20$core..ops..try_trait..Try$GT$6branch17heaab2980c5c0e22fE', symObjAddr: 0x6DB0, symBinAddr: 0x36868, symSize: 0x28 }
  - { offset: 0xF5E4B, size: 0x8, addend: 0x0, symName: '__ZN79_$LT$core..result..Result$LT$T$C$E$GT$$u20$as$u20$core..ops..try_trait..Try$GT$6branch17heb06b87b3db8bafaE', symObjAddr: 0x6DD8, symBinAddr: 0x36890, symSize: 0x68 }
  - { offset: 0xF5EC8, size: 0x8, addend: 0x0, symName: '__ZN79_$LT$core..result..Result$LT$T$C$E$GT$$u20$as$u20$core..ops..try_trait..Try$GT$6branch17hec7f0251fadd3770E', symObjAddr: 0x6E40, symBinAddr: 0x368F8, symSize: 0x3C }
  - { offset: 0xF5F26, size: 0x8, addend: 0x0, symName: '__ZN79_$LT$core..result..Result$LT$T$C$E$GT$$u20$as$u20$core..ops..try_trait..Try$GT$6branch17hed242e668a91d6d6E', symObjAddr: 0x6E7C, symBinAddr: 0x36934, symSize: 0x7C }
  - { offset: 0xF5FA3, size: 0x8, addend: 0x0, symName: '__ZN79_$LT$core..result..Result$LT$T$C$E$GT$$u20$as$u20$core..ops..try_trait..Try$GT$6branch17hedeaeead99b10315E', symObjAddr: 0x6EF8, symBinAddr: 0x369B0, symSize: 0xCC }
  - { offset: 0xF6021, size: 0x8, addend: 0x0, symName: '__ZN79_$LT$core..result..Result$LT$T$C$E$GT$$u20$as$u20$core..ops..try_trait..Try$GT$6branch17hf417693b012c15f4E', symObjAddr: 0x6FC4, symBinAddr: 0x36A7C, symSize: 0x70 }
  - { offset: 0xF609E, size: 0x8, addend: 0x0, symName: '__ZN79_$LT$core..result..Result$LT$T$C$E$GT$$u20$as$u20$core..ops..try_trait..Try$GT$6branch17hf4d2db2072465479E', symObjAddr: 0x7034, symBinAddr: 0x36AEC, symSize: 0x94 }
  - { offset: 0xF611B, size: 0x8, addend: 0x0, symName: '__ZN79_$LT$core..result..Result$LT$T$C$E$GT$$u20$as$u20$core..ops..try_trait..Try$GT$6branch17hfa82d2379f696d7cE', symObjAddr: 0x70C8, symBinAddr: 0x36B80, symSize: 0x5C }
  - { offset: 0xFDC63, size: 0x8, addend: 0x0, symName: '__ZN4core6result19Result$LT$T$C$E$GT$11map_or_else17hc790a03ccd85713bE', symObjAddr: 0xA0C, symBinAddr: 0x304C4, symSize: 0xF8 }
  - { offset: 0xFE375, size: 0x8, addend: 0x0, symName: '__ZN4core6result19Result$LT$T$C$E$GT$3map17h01095fdd1da59903E', symObjAddr: 0xB04, symBinAddr: 0x305BC, symSize: 0xC0 }
  - { offset: 0xFE420, size: 0x8, addend: 0x0, symName: '__ZN4core6result19Result$LT$T$C$E$GT$3map17h05deffbc12fdafd5E', symObjAddr: 0xBC4, symBinAddr: 0x3067C, symSize: 0x84 }
  - { offset: 0xFE4CB, size: 0x8, addend: 0x0, symName: '__ZN4core6result19Result$LT$T$C$E$GT$3map17h0adcb0d9875bb505E', symObjAddr: 0xC48, symBinAddr: 0x30700, symSize: 0xC0 }
  - { offset: 0xFE576, size: 0x8, addend: 0x0, symName: '__ZN4core6result19Result$LT$T$C$E$GT$3map17h0b99f3a8d96a9045E', symObjAddr: 0xD08, symBinAddr: 0x307C0, symSize: 0x90 }
  - { offset: 0xFEAF7, size: 0x8, addend: 0x0, symName: '__ZN4core6result19Result$LT$T$C$E$GT$3map17h0c8f09d14c07ff82E', symObjAddr: 0xD98, symBinAddr: 0x30850, symSize: 0xA0 }
  - { offset: 0xFEBA2, size: 0x8, addend: 0x0, symName: '__ZN4core6result19Result$LT$T$C$E$GT$3map17h1029f292992c388eE', symObjAddr: 0xE38, symBinAddr: 0x308F0, symSize: 0xA4 }
  - { offset: 0xFEC4D, size: 0x8, addend: 0x0, symName: '__ZN4core6result19Result$LT$T$C$E$GT$3map17h15437255aa2d191dE', symObjAddr: 0xEDC, symBinAddr: 0x30994, symSize: 0x6C }
  - { offset: 0xFECF8, size: 0x8, addend: 0x0, symName: '__ZN4core6result19Result$LT$T$C$E$GT$3map17h1c4d802fc91bca3dE', symObjAddr: 0xF48, symBinAddr: 0x30A00, symSize: 0x6C }
  - { offset: 0xFEDA3, size: 0x8, addend: 0x0, symName: '__ZN4core6result19Result$LT$T$C$E$GT$3map17h1dcc361daf0cc25cE', symObjAddr: 0xFB4, symBinAddr: 0x30A6C, symSize: 0x6C }
  - { offset: 0xFEE4E, size: 0x8, addend: 0x0, symName: '__ZN4core6result19Result$LT$T$C$E$GT$3map17h1ee68f972bc3967fE', symObjAddr: 0x1020, symBinAddr: 0x30AD8, symSize: 0x6C }
  - { offset: 0xFEEF9, size: 0x8, addend: 0x0, symName: '__ZN4core6result19Result$LT$T$C$E$GT$3map17h21f75bca183e8121E', symObjAddr: 0x108C, symBinAddr: 0x30B44, symSize: 0xAC }
  - { offset: 0xFEFA4, size: 0x8, addend: 0x0, symName: '__ZN4core6result19Result$LT$T$C$E$GT$3map17h24789af394c9b48bE', symObjAddr: 0x1138, symBinAddr: 0x30BF0, symSize: 0x6C }
  - { offset: 0xFF1C0, size: 0x8, addend: 0x0, symName: '__ZN4core6result19Result$LT$T$C$E$GT$3map17h291612fe8416c830E', symObjAddr: 0x11A4, symBinAddr: 0x30C5C, symSize: 0xB8 }
  - { offset: 0xFF253, size: 0x8, addend: 0x0, symName: '__ZN4core6result19Result$LT$T$C$E$GT$3map17h2cfadecaf6134326E', symObjAddr: 0x125C, symBinAddr: 0x30D14, symSize: 0xC0 }
  - { offset: 0xFF2FE, size: 0x8, addend: 0x0, symName: '__ZN4core6result19Result$LT$T$C$E$GT$3map17h365e4b76805f3718E', symObjAddr: 0x131C, symBinAddr: 0x30DD4, symSize: 0xC0 }
  - { offset: 0xFF391, size: 0x8, addend: 0x0, symName: '__ZN4core6result19Result$LT$T$C$E$GT$3map17h36e9a6c8f79588fcE', symObjAddr: 0x13DC, symBinAddr: 0x30E94, symSize: 0xC0 }
  - { offset: 0xFF43C, size: 0x8, addend: 0x0, symName: '__ZN4core6result19Result$LT$T$C$E$GT$3map17h38c97c223499c359E', symObjAddr: 0x149C, symBinAddr: 0x30F54, symSize: 0x6C }
  - { offset: 0xFF4DC, size: 0x8, addend: 0x0, symName: '__ZN4core6result19Result$LT$T$C$E$GT$3map17h3fc3a00a87a9b1f9E', symObjAddr: 0x1508, symBinAddr: 0x30FC0, symSize: 0x38 }
  - { offset: 0xFF568, size: 0x8, addend: 0x0, symName: '__ZN4core6result19Result$LT$T$C$E$GT$3map17h4101e7d26368c1a6E', symObjAddr: 0x1540, symBinAddr: 0x30FF8, symSize: 0xB8 }
  - { offset: 0xFF613, size: 0x8, addend: 0x0, symName: '__ZN4core6result19Result$LT$T$C$E$GT$3map17h41e193720f72229dE', symObjAddr: 0x15F8, symBinAddr: 0x310B0, symSize: 0x6C }
  - { offset: 0xFF6A6, size: 0x8, addend: 0x0, symName: '__ZN4core6result19Result$LT$T$C$E$GT$3map17h421f56a3750f526dE', symObjAddr: 0x1664, symBinAddr: 0x3111C, symSize: 0x38 }
  - { offset: 0xFF71A, size: 0x8, addend: 0x0, symName: '__ZN4core6result19Result$LT$T$C$E$GT$3map17h457b297eadd0a4e5E', symObjAddr: 0x169C, symBinAddr: 0x31154, symSize: 0xC0 }
  - { offset: 0xFF7C5, size: 0x8, addend: 0x0, symName: '__ZN4core6result19Result$LT$T$C$E$GT$3map17h479167cf709efff9E', symObjAddr: 0x175C, symBinAddr: 0x31214, symSize: 0x98 }
  - { offset: 0xFF858, size: 0x8, addend: 0x0, symName: '__ZN4core6result19Result$LT$T$C$E$GT$3map17h4ad891fd92ad2d81E', symObjAddr: 0x17F4, symBinAddr: 0x312AC, symSize: 0x38 }
  - { offset: 0xFF8E4, size: 0x8, addend: 0x0, symName: '__ZN4core6result19Result$LT$T$C$E$GT$3map17h4f523d79081e7e4aE', symObjAddr: 0x182C, symBinAddr: 0x312E4, symSize: 0xA4 }
  - { offset: 0xFF98F, size: 0x8, addend: 0x0, symName: '__ZN4core6result19Result$LT$T$C$E$GT$3map17h561289c73e937e74E', symObjAddr: 0x18D0, symBinAddr: 0x31388, symSize: 0x90 }
  - { offset: 0xFFA3A, size: 0x8, addend: 0x0, symName: '__ZN4core6result19Result$LT$T$C$E$GT$3map17h5a1f07d7a59d866bE', symObjAddr: 0x1960, symBinAddr: 0x31418, symSize: 0xA4 }
  - { offset: 0xFFAE5, size: 0x8, addend: 0x0, symName: '__ZN4core6result19Result$LT$T$C$E$GT$3map17h5b681107b4216d90E', symObjAddr: 0x1A04, symBinAddr: 0x314BC, symSize: 0x6C }
  - { offset: 0xFFB90, size: 0x8, addend: 0x0, symName: '__ZN4core6result19Result$LT$T$C$E$GT$3map17h5d0dc56e516d5bf7E', symObjAddr: 0x1A70, symBinAddr: 0x31528, symSize: 0x9C }
  - { offset: 0xFFC3B, size: 0x8, addend: 0x0, symName: '__ZN4core6result19Result$LT$T$C$E$GT$3map17h5e31975a280e8968E', symObjAddr: 0x1B0C, symBinAddr: 0x315C4, symSize: 0x64 }
  - { offset: 0xFFCE5, size: 0x8, addend: 0x0, symName: '__ZN4core6result19Result$LT$T$C$E$GT$3map17h62731a5f93478752E', symObjAddr: 0x1B70, symBinAddr: 0x31628, symSize: 0xBC }
  - { offset: 0xFFD90, size: 0x8, addend: 0x0, symName: '__ZN4core6result19Result$LT$T$C$E$GT$3map17h63c184a7f7462c09E', symObjAddr: 0x1C2C, symBinAddr: 0x316E4, symSize: 0x6C }
  - { offset: 0xFFE3B, size: 0x8, addend: 0x0, symName: '__ZN4core6result19Result$LT$T$C$E$GT$3map17h64bd4df59fdd7130E', symObjAddr: 0x1C98, symBinAddr: 0x31750, symSize: 0x6C }
  - { offset: 0xFFECE, size: 0x8, addend: 0x0, symName: '__ZN4core6result19Result$LT$T$C$E$GT$3map17h6cd79e2553c11fadE', symObjAddr: 0x1D04, symBinAddr: 0x317BC, symSize: 0x38 }
  - { offset: 0xFFF5A, size: 0x8, addend: 0x0, symName: '__ZN4core6result19Result$LT$T$C$E$GT$3map17h6d418cdd6ef920efE', symObjAddr: 0x1D3C, symBinAddr: 0x317F4, symSize: 0xA8 }
  - { offset: 0xFFFED, size: 0x8, addend: 0x0, symName: '__ZN4core6result19Result$LT$T$C$E$GT$3map17h6d9ae1843da568bdE', symObjAddr: 0x1DE4, symBinAddr: 0x3189C, symSize: 0xC0 }
  - { offset: 0x100098, size: 0x8, addend: 0x0, symName: '__ZN4core6result19Result$LT$T$C$E$GT$3map17h6de1a68128cbdc5fE', symObjAddr: 0x1EA4, symBinAddr: 0x3195C, symSize: 0x6C }
  - { offset: 0x100143, size: 0x8, addend: 0x0, symName: '__ZN4core6result19Result$LT$T$C$E$GT$3map17h771eb576312052d9E', symObjAddr: 0x1F10, symBinAddr: 0x319C8, symSize: 0x68 }
  - { offset: 0x1001ED, size: 0x8, addend: 0x0, symName: '__ZN4core6result19Result$LT$T$C$E$GT$3map17h7ad5e4aa347d302bE', symObjAddr: 0x1F78, symBinAddr: 0x31A30, symSize: 0xC0 }
  - { offset: 0x100280, size: 0x8, addend: 0x0, symName: '__ZN4core6result19Result$LT$T$C$E$GT$3map17h7e4193d5ef3c050aE', symObjAddr: 0x2038, symBinAddr: 0x31AF0, symSize: 0xC0 }
  - { offset: 0x10032B, size: 0x8, addend: 0x0, symName: '__ZN4core6result19Result$LT$T$C$E$GT$3map17h7ed16932572e782fE', symObjAddr: 0x20F8, symBinAddr: 0x31BB0, symSize: 0xA4 }
  - { offset: 0x1003F4, size: 0x8, addend: 0x0, symName: '__ZN4core6result19Result$LT$T$C$E$GT$3map17h836aebdf2d22133eE', symObjAddr: 0x219C, symBinAddr: 0x31C54, symSize: 0xB8 }
  - { offset: 0x10049F, size: 0x8, addend: 0x0, symName: '__ZN4core6result19Result$LT$T$C$E$GT$3map17h8412c7dcc784c4deE', symObjAddr: 0x2254, symBinAddr: 0x31D0C, symSize: 0x8C }
  - { offset: 0x10054A, size: 0x8, addend: 0x0, symName: '__ZN4core6result19Result$LT$T$C$E$GT$3map17h87be5b3df4637d2dE', symObjAddr: 0x22E0, symBinAddr: 0x31D98, symSize: 0xA0 }
  - { offset: 0x1005DD, size: 0x8, addend: 0x0, symName: '__ZN4core6result19Result$LT$T$C$E$GT$3map17h8a479612414fe5abE', symObjAddr: 0x2380, symBinAddr: 0x31E38, symSize: 0xC0 }
  - { offset: 0x100670, size: 0x8, addend: 0x0, symName: '__ZN4core6result19Result$LT$T$C$E$GT$3map17h8b445d4eadacc95fE', symObjAddr: 0x2440, symBinAddr: 0x31EF8, symSize: 0xC0 }
  - { offset: 0x10071B, size: 0x8, addend: 0x0, symName: '__ZN4core6result19Result$LT$T$C$E$GT$3map17h91329c5fcc1f8497E', symObjAddr: 0x2500, symBinAddr: 0x31FB8, symSize: 0xA0 }
  - { offset: 0x1007AE, size: 0x8, addend: 0x0, symName: '__ZN4core6result19Result$LT$T$C$E$GT$3map17h9b82ebacd300a15bE', symObjAddr: 0x25A0, symBinAddr: 0x32058, symSize: 0xA4 }
  - { offset: 0x100859, size: 0x8, addend: 0x0, symName: '__ZN4core6result19Result$LT$T$C$E$GT$3map17h9ed604fe981b8d4fE', symObjAddr: 0x2644, symBinAddr: 0x320FC, symSize: 0xBC }
  - { offset: 0x100904, size: 0x8, addend: 0x0, symName: '__ZN4core6result19Result$LT$T$C$E$GT$3map17h9f84f6fa438332c4E', symObjAddr: 0x2700, symBinAddr: 0x321B8, symSize: 0x6C }
  - { offset: 0x1009AF, size: 0x8, addend: 0x0, symName: '__ZN4core6result19Result$LT$T$C$E$GT$3map17ha1633a48ed29d037E', symObjAddr: 0x276C, symBinAddr: 0x32224, symSize: 0xC0 }
  - { offset: 0x100A5A, size: 0x8, addend: 0x0, symName: '__ZN4core6result19Result$LT$T$C$E$GT$3map17ha2f0285506280048E', symObjAddr: 0x282C, symBinAddr: 0x322E4, symSize: 0x6C }
  - { offset: 0x100AED, size: 0x8, addend: 0x0, symName: '__ZN4core6result19Result$LT$T$C$E$GT$3map17ha50dbe60cb615a1bE', symObjAddr: 0x2898, symBinAddr: 0x32350, symSize: 0xC0 }
  - { offset: 0x100B80, size: 0x8, addend: 0x0, symName: '__ZN4core6result19Result$LT$T$C$E$GT$3map17haaea382f01024983E', symObjAddr: 0x2958, symBinAddr: 0x32410, symSize: 0xC0 }
  - { offset: 0x100C2B, size: 0x8, addend: 0x0, symName: '__ZN4core6result19Result$LT$T$C$E$GT$3map17habe2cc7c16e8a26eE', symObjAddr: 0x2A18, symBinAddr: 0x324D0, symSize: 0x74 }
  - { offset: 0x100CDC, size: 0x8, addend: 0x0, symName: '__ZN4core6result19Result$LT$T$C$E$GT$3map17hac7b5613c4cfbf7cE', symObjAddr: 0x2A8C, symBinAddr: 0x32544, symSize: 0xA0 }
  - { offset: 0x100D88, size: 0x8, addend: 0x0, symName: '__ZN4core6result19Result$LT$T$C$E$GT$3map17hbaeb1070d64af551E', symObjAddr: 0x2B2C, symBinAddr: 0x325E4, symSize: 0xA8 }
  - { offset: 0x100E33, size: 0x8, addend: 0x0, symName: '__ZN4core6result19Result$LT$T$C$E$GT$3map17hbaeb544b650b57daE', symObjAddr: 0x2BD4, symBinAddr: 0x3268C, symSize: 0xA0 }
  - { offset: 0x100EDE, size: 0x8, addend: 0x0, symName: '__ZN4core6result19Result$LT$T$C$E$GT$3map17hbb18d69c0280ed04E', symObjAddr: 0x2C74, symBinAddr: 0x3272C, symSize: 0x6C }
  - { offset: 0x100F89, size: 0x8, addend: 0x0, symName: '__ZN4core6result19Result$LT$T$C$E$GT$3map17hbf3136c3f9cb8e62E', symObjAddr: 0x2CE0, symBinAddr: 0x32798, symSize: 0xC0 }
  - { offset: 0x101034, size: 0x8, addend: 0x0, symName: '__ZN4core6result19Result$LT$T$C$E$GT$3map17hc5d6eeaef75ada83E', symObjAddr: 0x2DA0, symBinAddr: 0x32858, symSize: 0xA4 }
  - { offset: 0x1010C7, size: 0x8, addend: 0x0, symName: '__ZN4core6result19Result$LT$T$C$E$GT$3map17hcc9c8cf613826620E', symObjAddr: 0x2E44, symBinAddr: 0x328FC, symSize: 0xC0 }
  - { offset: 0x101172, size: 0x8, addend: 0x0, symName: '__ZN4core6result19Result$LT$T$C$E$GT$3map17hcdee9a8962b5122aE', symObjAddr: 0x2F04, symBinAddr: 0x329BC, symSize: 0x6C }
  - { offset: 0x10121D, size: 0x8, addend: 0x0, symName: '__ZN4core6result19Result$LT$T$C$E$GT$3map17hd0156a333b63fea7E', symObjAddr: 0x2F70, symBinAddr: 0x32A28, symSize: 0xC0 }
  - { offset: 0x1012C8, size: 0x8, addend: 0x0, symName: '__ZN4core6result19Result$LT$T$C$E$GT$3map17hda089b60abb9161bE', symObjAddr: 0x3030, symBinAddr: 0x32AE8, symSize: 0x6C }
  - { offset: 0x101373, size: 0x8, addend: 0x0, symName: '__ZN4core6result19Result$LT$T$C$E$GT$3map17hda367eea8db4ae83E', symObjAddr: 0x309C, symBinAddr: 0x32B54, symSize: 0xA0 }
  - { offset: 0x101406, size: 0x8, addend: 0x0, symName: '__ZN4core6result19Result$LT$T$C$E$GT$3map17hdc945014f04c3fa1E', symObjAddr: 0x313C, symBinAddr: 0x32BF4, symSize: 0xC0 }
  - { offset: 0x101499, size: 0x8, addend: 0x0, symName: '__ZN4core6result19Result$LT$T$C$E$GT$3map17hdf58cde0d31fdb69E', symObjAddr: 0x31FC, symBinAddr: 0x32CB4, symSize: 0xC0 }
  - { offset: 0x10152C, size: 0x8, addend: 0x0, symName: '__ZN4core6result19Result$LT$T$C$E$GT$3map17hdfa1161d2618c880E', symObjAddr: 0x32BC, symBinAddr: 0x32D74, symSize: 0xA4 }
  - { offset: 0x1015D7, size: 0x8, addend: 0x0, symName: '__ZN4core6result19Result$LT$T$C$E$GT$3map17he21d08d30ceb0db5E', symObjAddr: 0x3360, symBinAddr: 0x32E18, symSize: 0xC0 }
  - { offset: 0x10166A, size: 0x8, addend: 0x0, symName: '__ZN4core6result19Result$LT$T$C$E$GT$3map17he3c458f27f2dd679E', symObjAddr: 0x3420, symBinAddr: 0x32ED8, symSize: 0xC0 }
  - { offset: 0x1016FD, size: 0x8, addend: 0x0, symName: '__ZN4core6result19Result$LT$T$C$E$GT$3map17he5205f363f7cc015E', symObjAddr: 0x34E0, symBinAddr: 0x32F98, symSize: 0xC0 }
  - { offset: 0x1017A8, size: 0x8, addend: 0x0, symName: '__ZN4core6result19Result$LT$T$C$E$GT$3map17he77c1dfec90c9b88E', symObjAddr: 0x35A0, symBinAddr: 0x33058, symSize: 0x6C }
  - { offset: 0x101853, size: 0x8, addend: 0x0, symName: '__ZN4core6result19Result$LT$T$C$E$GT$3map17he9742aea1e1f694cE', symObjAddr: 0x360C, symBinAddr: 0x330C4, symSize: 0xC0 }
  - { offset: 0x1018FE, size: 0x8, addend: 0x0, symName: '__ZN4core6result19Result$LT$T$C$E$GT$3map17he98e1459c2d5c776E', symObjAddr: 0x36CC, symBinAddr: 0x33184, symSize: 0x6C }
  - { offset: 0x101991, size: 0x8, addend: 0x0, symName: '__ZN4core6result19Result$LT$T$C$E$GT$3map17hea0b37abc01b37a2E', symObjAddr: 0x3738, symBinAddr: 0x331F0, symSize: 0xC0 }
  - { offset: 0x101A24, size: 0x8, addend: 0x0, symName: '__ZN4core6result19Result$LT$T$C$E$GT$3map17hec129b31b84bebb9E', symObjAddr: 0x37F8, symBinAddr: 0x332B0, symSize: 0xC0 }
  - { offset: 0x101ACF, size: 0x8, addend: 0x0, symName: '__ZN4core6result19Result$LT$T$C$E$GT$3map17hf1ae3cc3c1bb5549E', symObjAddr: 0x38B8, symBinAddr: 0x33370, symSize: 0x94 }
  - { offset: 0x101B7A, size: 0x8, addend: 0x0, symName: '__ZN4core6result19Result$LT$T$C$E$GT$3map17hf3e1998214a4ce11E', symObjAddr: 0x394C, symBinAddr: 0x33404, symSize: 0x78 }
  - { offset: 0x101C25, size: 0x8, addend: 0x0, symName: '__ZN4core6result19Result$LT$T$C$E$GT$3map17hf65da0844ee1b3b0E', symObjAddr: 0x39C4, symBinAddr: 0x3347C, symSize: 0xA8 }
  - { offset: 0x101CD0, size: 0x8, addend: 0x0, symName: '__ZN4core6result19Result$LT$T$C$E$GT$3map17hf828bf67063a4368E', symObjAddr: 0x3A6C, symBinAddr: 0x33524, symSize: 0xBC }
  - { offset: 0x101D7B, size: 0x8, addend: 0x0, symName: '__ZN4core6result19Result$LT$T$C$E$GT$3map17hf8fdad8c428a7940E', symObjAddr: 0x3B28, symBinAddr: 0x335E0, symSize: 0x6C }
  - { offset: 0x101E0E, size: 0x8, addend: 0x0, symName: '__ZN4core6result19Result$LT$T$C$E$GT$3map17hfb4fdadd0f85cf95E', symObjAddr: 0x3B94, symBinAddr: 0x3364C, symSize: 0xA0 }
  - { offset: 0x101EB9, size: 0x8, addend: 0x0, symName: '__ZN4core6result19Result$LT$T$C$E$GT$3map17hff769cd971add04bE', symObjAddr: 0x3C34, symBinAddr: 0x336EC, symSize: 0xAC }
  - { offset: 0x101F6A, size: 0x8, addend: 0x0, symName: '__ZN4core6result19Result$LT$T$C$E$GT$3map17hfff5c30f91174623E', symObjAddr: 0x3CE0, symBinAddr: 0x33798, symSize: 0x94 }
  - { offset: 0x102024, size: 0x8, addend: 0x0, symName: '__ZN4core6result19Result$LT$T$C$E$GT$5is_ok17h2b7d42721183cf19E', symObjAddr: 0x3D74, symBinAddr: 0x3382C, symSize: 0x28 }
  - { offset: 0x102073, size: 0x8, addend: 0x0, symName: '__ZN4core6result19Result$LT$T$C$E$GT$5is_ok17hf0108b16d3dac7a3E', symObjAddr: 0x3D9C, symBinAddr: 0x33854, symSize: 0x28 }
  - { offset: 0x1020DA, size: 0x8, addend: 0x0, symName: '__ZN4core6result19Result$LT$T$C$E$GT$6is_err17h56c0431cee64d788E', symObjAddr: 0x3DC4, symBinAddr: 0x3387C, symSize: 0x20 }
  - { offset: 0x1021D5, size: 0x8, addend: 0x0, symName: '__ZN4core6result19Result$LT$T$C$E$GT$7map_err17h005482961288ed65E', symObjAddr: 0x3DE4, symBinAddr: 0x3389C, symSize: 0xAC }
  - { offset: 0x102280, size: 0x8, addend: 0x0, symName: '__ZN4core6result19Result$LT$T$C$E$GT$7map_err17h025829b31f9d28f3E', symObjAddr: 0x3E90, symBinAddr: 0x33948, symSize: 0xB8 }
  - { offset: 0x102313, size: 0x8, addend: 0x0, symName: '__ZN4core6result19Result$LT$T$C$E$GT$7map_err17h031aea9cbfc59255E', symObjAddr: 0x3F48, symBinAddr: 0x33A00, symSize: 0xA8 }
  - { offset: 0x1023A6, size: 0x8, addend: 0x0, symName: '__ZN4core6result19Result$LT$T$C$E$GT$7map_err17h0b9d7bbcf425c8c1E', symObjAddr: 0x3FF0, symBinAddr: 0x33AA8, symSize: 0xA8 }
  - { offset: 0x102439, size: 0x8, addend: 0x0, symName: '__ZN4core6result19Result$LT$T$C$E$GT$7map_err17h2688ca75d3339ae0E', symObjAddr: 0x4098, symBinAddr: 0x33B50, symSize: 0xA8 }
  - { offset: 0x1024CC, size: 0x8, addend: 0x0, symName: '__ZN4core6result19Result$LT$T$C$E$GT$7map_err17h2e77bd998ed055fdE', symObjAddr: 0x4140, symBinAddr: 0x33BF8, symSize: 0x84 }
  - { offset: 0x10255E, size: 0x8, addend: 0x0, symName: '__ZN4core6result19Result$LT$T$C$E$GT$7map_err17h36181fb05d03584eE', symObjAddr: 0x41C4, symBinAddr: 0x33C7C, symSize: 0x84 }
  - { offset: 0x1025F0, size: 0x8, addend: 0x0, symName: '__ZN4core6result19Result$LT$T$C$E$GT$7map_err17h3ddbd8feaa1c91b5E', symObjAddr: 0x4248, symBinAddr: 0x33D00, symSize: 0xA8 }
  - { offset: 0x102683, size: 0x8, addend: 0x0, symName: '__ZN4core6result19Result$LT$T$C$E$GT$7map_err17h67afa9485d16e1d7E', symObjAddr: 0x42F0, symBinAddr: 0x33DA8, symSize: 0xAC }
  - { offset: 0x102716, size: 0x8, addend: 0x0, symName: '__ZN4core6result19Result$LT$T$C$E$GT$7map_err17h70aa62070b1c128bE', symObjAddr: 0x439C, symBinAddr: 0x33E54, symSize: 0xB4 }
  - { offset: 0x1027A9, size: 0x8, addend: 0x0, symName: '__ZN4core6result19Result$LT$T$C$E$GT$7map_err17h76a5047f7dfffaddE', symObjAddr: 0x4450, symBinAddr: 0x33F08, symSize: 0xA8 }
  - { offset: 0x10283C, size: 0x8, addend: 0x0, symName: '__ZN4core6result19Result$LT$T$C$E$GT$7map_err17h7872b057cde0f733E', symObjAddr: 0x44F8, symBinAddr: 0x33FB0, symSize: 0x84 }
  - { offset: 0x1028CE, size: 0x8, addend: 0x0, symName: '__ZN4core6result19Result$LT$T$C$E$GT$7map_err17h7f8c024ac7807883E', symObjAddr: 0x457C, symBinAddr: 0x34034, symSize: 0x84 }
  - { offset: 0x102960, size: 0x8, addend: 0x0, symName: '__ZN4core6result19Result$LT$T$C$E$GT$7map_err17h80f01889e109d3c3E', symObjAddr: 0x4600, symBinAddr: 0x340B8, symSize: 0xA8 }
  - { offset: 0x102A0B, size: 0x8, addend: 0x0, symName: '__ZN4core6result19Result$LT$T$C$E$GT$7map_err17h8120900362a14574E', symObjAddr: 0x46A8, symBinAddr: 0x34160, symSize: 0x48 }
  - { offset: 0x102A9B, size: 0x8, addend: 0x0, symName: '__ZN4core6result19Result$LT$T$C$E$GT$7map_err17h894e9c0aa1dda6c9E', symObjAddr: 0x46F0, symBinAddr: 0x341A8, symSize: 0x78 }
  - { offset: 0x102B45, size: 0x8, addend: 0x0, symName: '__ZN4core6result19Result$LT$T$C$E$GT$7map_err17h8be11816eb23d201E', symObjAddr: 0x4768, symBinAddr: 0x34220, symSize: 0x30 }
  - { offset: 0x102BB9, size: 0x8, addend: 0x0, symName: '__ZN4core6result19Result$LT$T$C$E$GT$7map_err17haf74ac811e63089eE', symObjAddr: 0x4798, symBinAddr: 0x34250, symSize: 0xA8 }
  - { offset: 0x102C66, size: 0x8, addend: 0x0, symName: '__ZN4core6result19Result$LT$T$C$E$GT$7map_err17hb7e8f94ef3bd5ed2E', symObjAddr: 0x4840, symBinAddr: 0x342F8, symSize: 0x74 }
  - { offset: 0x102CF8, size: 0x8, addend: 0x0, symName: '__ZN4core6result19Result$LT$T$C$E$GT$7map_err17hc2431c24c56c8fd4E', symObjAddr: 0x48B4, symBinAddr: 0x3436C, symSize: 0xA8 }
  - { offset: 0x102D8B, size: 0x8, addend: 0x0, symName: '__ZN4core6result19Result$LT$T$C$E$GT$7map_err17hcb6e06c421a62fb2E', symObjAddr: 0x495C, symBinAddr: 0x34414, symSize: 0xCC }
  - { offset: 0x102E1F, size: 0x8, addend: 0x0, symName: '__ZN4core6result19Result$LT$T$C$E$GT$7map_err17hcec2b2a16214f174E', symObjAddr: 0x4A28, symBinAddr: 0x344E0, symSize: 0x84 }
  - { offset: 0x102EB1, size: 0x8, addend: 0x0, symName: '__ZN4core6result19Result$LT$T$C$E$GT$7map_err17hd5851c2b62558720E', symObjAddr: 0x4AAC, symBinAddr: 0x34564, symSize: 0xAC }
  - { offset: 0x102F44, size: 0x8, addend: 0x0, symName: '__ZN4core6result19Result$LT$T$C$E$GT$7map_err17hdd8762a8e0c48771E', symObjAddr: 0x4B58, symBinAddr: 0x34610, symSize: 0x78 }
  - { offset: 0x102FD6, size: 0x8, addend: 0x0, symName: '__ZN4core6result19Result$LT$T$C$E$GT$7map_err17he458905fbf393ff4E', symObjAddr: 0x4BD0, symBinAddr: 0x34688, symSize: 0xA8 }
  - { offset: 0x103076, size: 0x8, addend: 0x0, symName: '__ZN4core6result19Result$LT$T$C$E$GT$7map_err17hec6a65fcdbaa6bc5E', symObjAddr: 0x4C78, symBinAddr: 0x34730, symSize: 0x78 }
  - { offset: 0x103108, size: 0x8, addend: 0x0, symName: '__ZN4core6result19Result$LT$T$C$E$GT$7map_err17hf2f675153bd18dddE', symObjAddr: 0x4CF0, symBinAddr: 0x347A8, symSize: 0x74 }
  - { offset: 0x1031A7, size: 0x8, addend: 0x0, symName: '__ZN4core6result19Result$LT$T$C$E$GT$8and_then17h3c08a9059bda0e7bE', symObjAddr: 0x4D64, symBinAddr: 0x3481C, symSize: 0xB0 }
  - { offset: 0x10323A, size: 0x8, addend: 0x0, symName: '__ZN4core6result19Result$LT$T$C$E$GT$8and_then17hcf34201a9b45ef33E', symObjAddr: 0x4E14, symBinAddr: 0x348CC, symSize: 0x94 }
  - { offset: 0x10335B, size: 0x8, addend: 0x0, symName: __ZN4pyo311conversions3std3vec16extract_sequence17hdaf2dd9fb16c7f16E, symObjAddr: 0x0, symBinAddr: 0x36BDC, symSize: 0x3D0 }
  - { offset: 0x1049C3, size: 0x8, addend: 0x0, symName: __ZN4pyo311conversions3std3vec16extract_sequence17hdaf2dd9fb16c7f16E, symObjAddr: 0x0, symBinAddr: 0x36BDC, symSize: 0x3D0 }
  - { offset: 0x1055D2, size: 0x8, addend: 0x0, symName: '__ZN73_$LT$std..hash..random..RandomState$u20$as$u20$core..default..Default$GT$7default17hdf9a30f82f47b6fcE', symObjAddr: 0x0, symBinAddr: 0x36FAC, symSize: 0x1C }
  - { offset: 0x105623, size: 0x8, addend: 0x0, symName: '__ZN73_$LT$std..hash..random..RandomState$u20$as$u20$core..default..Default$GT$7default17hdf9a30f82f47b6fcE', symObjAddr: 0x0, symBinAddr: 0x36FAC, symSize: 0x1C }
  - { offset: 0x105684, size: 0x8, addend: 0x0, symName: '__ZN102_$LT$core..iter..adapters..zip..Zip$LT$A$C$B$GT$$u20$as$u20$core..iter..traits..iterator..Iterator$GT$4next17hc6bc722cab436fd3E', symObjAddr: 0x0, symBinAddr: 0x36FC8, symSize: 0x24 }
  - { offset: 0x105EB9, size: 0x8, addend: 0x0, symName: '__ZN102_$LT$core..iter..adapters..zip..Zip$LT$A$C$B$GT$$u20$as$u20$core..iter..traits..iterator..Iterator$GT$4next17hc6bc722cab436fd3E', symObjAddr: 0x0, symBinAddr: 0x36FC8, symSize: 0x24 }
  - { offset: 0x105EFD, size: 0x8, addend: 0x0, symName: '__ZN111_$LT$core..iter..adapters..zip..Zip$LT$A$C$B$GT$$u20$as$u20$core..iter..adapters..zip..ZipImpl$LT$A$C$B$GT$$GT$3new17h1a396aa169877aa1E', symObjAddr: 0x24, symBinAddr: 0x36FEC, symSize: 0x3C }
  - { offset: 0x105F49, size: 0x8, addend: 0x0, symName: '__ZN111_$LT$core..iter..adapters..zip..Zip$LT$A$C$B$GT$$u20$as$u20$core..iter..adapters..zip..ZipImpl$LT$A$C$B$GT$$GT$4next17h5c6dc76434de66f7E', symObjAddr: 0x60, symBinAddr: 0x37028, symSize: 0xE0 }
  - { offset: 0x106176, size: 0x8, addend: 0x0, symName: '__ZN63_$LT$I$u20$as$u20$core..iter..traits..collect..IntoIterator$GT$9into_iter17h2c167a25ea157b8eE', symObjAddr: 0x140, symBinAddr: 0x37108, symSize: 0x30 }
  - { offset: 0x1061AE, size: 0x8, addend: 0x0, symName: '__ZN63_$LT$I$u20$as$u20$core..iter..traits..collect..IntoIterator$GT$9into_iter17h99551f01425bd92aE', symObjAddr: 0x170, symBinAddr: 0x37138, symSize: 0x30 }
  - { offset: 0x10762D, size: 0x8, addend: 0x0, symName: __ZN10serde_core2de7Visitor12visit_string17h032ca52994883cf0E, symObjAddr: 0x0, symBinAddr: 0x37168, symSize: 0x98 }
  - { offset: 0x107810, size: 0x8, addend: 0x0, symName: '__ZN150_$LT$rdx_ast.._..$LT$impl$u20$serde_core..de..Deserialize$u20$for$u20$rdx_ast..Root$GT$..deserialize..__Visitor$u20$as$u20$serde_core..de..Visitor$GT$9visit_map17hf4217c86f958a5b0E', symObjAddr: 0x1870, symBinAddr: 0x389D8, symSize: 0xA34 }
  - { offset: 0x107AD1, size: 0x8, addend: 0x0, symName: '__ZN150_$LT$rdx_ast.._..$LT$impl$u20$serde_core..de..Deserialize$u20$for$u20$rdx_ast..Root$GT$..deserialize..__Visitor$u20$as$u20$serde_core..de..Visitor$GT$9visit_seq17h1580b83fe682c58fE', symObjAddr: 0x22A4, symBinAddr: 0x3940C, symSize: 0x458 }
  - { offset: 0x107C12, size: 0x8, addend: 0x0, symName: '__ZN151_$LT$rdx_ast.._..$LT$impl$u20$serde_core..de..Deserialize$u20$for$u20$rdx_ast..Point$GT$..deserialize..__Visitor$u20$as$u20$serde_core..de..Visitor$GT$9visit_map17h86d55a907fd3097bE', symObjAddr: 0x26FC, symBinAddr: 0x39864, symSize: 0x600 }
  - { offset: 0x107E6B, size: 0x8, addend: 0x0, symName: '__ZN151_$LT$rdx_ast.._..$LT$impl$u20$serde_core..de..Deserialize$u20$for$u20$rdx_ast..Point$GT$..deserialize..__Visitor$u20$as$u20$serde_core..de..Visitor$GT$9visit_map17h931ba83d9e798d54E', symObjAddr: 0x2CFC, symBinAddr: 0x39E64, symSize: 0x600 }
  - { offset: 0x1080C4, size: 0x8, addend: 0x0, symName: '__ZN151_$LT$rdx_ast.._..$LT$impl$u20$serde_core..de..Deserialize$u20$for$u20$rdx_ast..Point$GT$..deserialize..__Visitor$u20$as$u20$serde_core..de..Visitor$GT$9visit_map17hfdf35b78aca0a2d2E', symObjAddr: 0x32FC, symBinAddr: 0x3A464, symSize: 0x600 }
  - { offset: 0x10831D, size: 0x8, addend: 0x0, symName: '__ZN151_$LT$rdx_ast.._..$LT$impl$u20$serde_core..de..Deserialize$u20$for$u20$rdx_ast..Point$GT$..deserialize..__Visitor$u20$as$u20$serde_core..de..Visitor$GT$9visit_seq17h8e6dd3173e9acb77E', symObjAddr: 0x38FC, symBinAddr: 0x3AA64, symSize: 0x2A4 }
  - { offset: 0x1083F3, size: 0x8, addend: 0x0, symName: '__ZN151_$LT$rdx_ast.._..$LT$impl$u20$serde_core..de..Deserialize$u20$for$u20$rdx_ast..Point$GT$..deserialize..__Visitor$u20$as$u20$serde_core..de..Visitor$GT$9visit_seq17hc6be76594a1a4d6fE', symObjAddr: 0x3BA0, symBinAddr: 0x3AD08, symSize: 0x2A4 }
  - { offset: 0x1084C9, size: 0x8, addend: 0x0, symName: '__ZN151_$LT$rdx_ast.._..$LT$impl$u20$serde_core..de..Deserialize$u20$for$u20$rdx_ast..Point$GT$..deserialize..__Visitor$u20$as$u20$serde_core..de..Visitor$GT$9visit_seq17hf9366b5cccad26f1E', symObjAddr: 0x3E44, symBinAddr: 0x3AFAC, symSize: 0x2A4 }
  - { offset: 0x10859F, size: 0x8, addend: 0x0, symName: '__ZN154_$LT$rdx_ast.._..$LT$impl$u20$serde_core..de..Deserialize$u20$for$u20$rdx_ast..LinkNode$GT$..deserialize..__Visitor$u20$as$u20$serde_core..de..Visitor$GT$9visit_map17hbeda23b819f8eb22E', symObjAddr: 0x4170, symBinAddr: 0x3B2D8, symSize: 0xC20 }
  - { offset: 0x108894, size: 0x8, addend: 0x0, symName: '__ZN154_$LT$rdx_ast.._..$LT$impl$u20$serde_core..de..Deserialize$u20$for$u20$rdx_ast..LinkNode$GT$..deserialize..__Visitor$u20$as$u20$serde_core..de..Visitor$GT$9visit_seq17hc44f69e3b9b00e66E', symObjAddr: 0x4D90, symBinAddr: 0x3BEF8, symSize: 0x4E4 }
  - { offset: 0x1089F3, size: 0x8, addend: 0x0, symName: '__ZN154_$LT$rdx_ast.._..$LT$impl$u20$serde_core..de..Deserialize$u20$for$u20$rdx_ast..Position$GT$..deserialize..__Visitor$u20$as$u20$serde_core..de..Visitor$GT$9visit_map17h1710446da53d65a3E', symObjAddr: 0x5274, symBinAddr: 0x3C3DC, symSize: 0x518 }
  - { offset: 0x108BB8, size: 0x8, addend: 0x0, symName: '__ZN154_$LT$rdx_ast.._..$LT$impl$u20$serde_core..de..Deserialize$u20$for$u20$rdx_ast..Position$GT$..deserialize..__Visitor$u20$as$u20$serde_core..de..Visitor$GT$9visit_map17h284fbccd500c9071E', symObjAddr: 0x578C, symBinAddr: 0x3C8F4, symSize: 0x518 }
  - { offset: 0x108D7D, size: 0x8, addend: 0x0, symName: '__ZN154_$LT$rdx_ast.._..$LT$impl$u20$serde_core..de..Deserialize$u20$for$u20$rdx_ast..Position$GT$..deserialize..__Visitor$u20$as$u20$serde_core..de..Visitor$GT$9visit_map17h32e3a94941ab368dE', symObjAddr: 0x5CA4, symBinAddr: 0x3CE0C, symSize: 0x518 }
  - { offset: 0x108F42, size: 0x8, addend: 0x0, symName: '__ZN154_$LT$rdx_ast.._..$LT$impl$u20$serde_core..de..Deserialize$u20$for$u20$rdx_ast..Position$GT$..deserialize..__Visitor$u20$as$u20$serde_core..de..Visitor$GT$9visit_seq17h220c7cdf04afc493E', symObjAddr: 0x61BC, symBinAddr: 0x3D324, symSize: 0x220 }
  - { offset: 0x108FEE, size: 0x8, addend: 0x0, symName: '__ZN154_$LT$rdx_ast.._..$LT$impl$u20$serde_core..de..Deserialize$u20$for$u20$rdx_ast..Position$GT$..deserialize..__Visitor$u20$as$u20$serde_core..de..Visitor$GT$9visit_seq17hd39419a633468e46E', symObjAddr: 0x63DC, symBinAddr: 0x3D544, symSize: 0x220 }
  - { offset: 0x10909A, size: 0x8, addend: 0x0, symName: '__ZN154_$LT$rdx_ast.._..$LT$impl$u20$serde_core..de..Deserialize$u20$for$u20$rdx_ast..Position$GT$..deserialize..__Visitor$u20$as$u20$serde_core..de..Visitor$GT$9visit_seq17heb273a7b0ece3006E', symObjAddr: 0x65FC, symBinAddr: 0x3D764, symSize: 0x220 }
  - { offset: 0x109146, size: 0x8, addend: 0x0, symName: '__ZN154_$LT$rdx_ast.._..$LT$impl$u20$serde_core..de..Deserialize$u20$for$u20$rdx_ast..RootType$GT$..deserialize..__Visitor$u20$as$u20$serde_core..de..Visitor$GT$10visit_enum17ha0f4d81f164d3e6eE', symObjAddr: 0x681C, symBinAddr: 0x3D984, symSize: 0xD0 }
  - { offset: 0x1091EC, size: 0x8, addend: 0x0, symName: '__ZN154_$LT$rdx_ast.._..$LT$impl$u20$serde_core..de..Deserialize$u20$for$u20$rdx_ast..TextNode$GT$..deserialize..__Visitor$u20$as$u20$serde_core..de..Visitor$GT$9visit_map17he26d64d835b811ccE', symObjAddr: 0x68EC, symBinAddr: 0x3DA54, symSize: 0x65C }
  - { offset: 0x1093B9, size: 0x8, addend: 0x0, symName: '__ZN154_$LT$rdx_ast.._..$LT$impl$u20$serde_core..de..Deserialize$u20$for$u20$rdx_ast..TextNode$GT$..deserialize..__Visitor$u20$as$u20$serde_core..de..Visitor$GT$9visit_seq17h4db0b56ddb1c2703E', symObjAddr: 0x6F48, symBinAddr: 0x3E0B0, symSize: 0x280 }
  - { offset: 0x109483, size: 0x8, addend: 0x0, symName: '__ZN155_$LT$rdx_ast.._..$LT$impl$u20$serde_core..de..Deserialize$u20$for$u20$rdx_ast..ErrorNode$GT$..deserialize..__Visitor$u20$as$u20$serde_core..de..Visitor$GT$9visit_map17h5c0dcc23d37dfd53E', symObjAddr: 0x71C8, symBinAddr: 0x3E330, symSize: 0x93C }
  - { offset: 0x1096E4, size: 0x8, addend: 0x0, symName: '__ZN155_$LT$rdx_ast.._..$LT$impl$u20$serde_core..de..Deserialize$u20$for$u20$rdx_ast..ErrorNode$GT$..deserialize..__Visitor$u20$as$u20$serde_core..de..Visitor$GT$9visit_seq17h54ab1f8e4758dd46E', symObjAddr: 0x7B04, symBinAddr: 0x3EC6C, symSize: 0x3B0 }
  - { offset: 0x1097F8, size: 0x8, addend: 0x0, symName: '__ZN155_$LT$rdx_ast.._..$LT$impl$u20$serde_core..de..Deserialize$u20$for$u20$rdx_ast..ImageNode$GT$..deserialize..__Visitor$u20$as$u20$serde_core..de..Visitor$GT$9visit_map17he5cea5dcb9db4edbE', symObjAddr: 0x7EB4, symBinAddr: 0x3F01C, symSize: 0xF00 }
  - { offset: 0x109B81, size: 0x8, addend: 0x0, symName: '__ZN155_$LT$rdx_ast.._..$LT$impl$u20$serde_core..de..Deserialize$u20$for$u20$rdx_ast..ImageNode$GT$..deserialize..__Visitor$u20$as$u20$serde_core..de..Visitor$GT$9visit_seq17he31a4d5520fe29c4E', symObjAddr: 0x8DB4, symBinAddr: 0x3FF1C, symSize: 0x61C }
  - { offset: 0x109D29, size: 0x8, addend: 0x0, symName: '__ZN158_$LT$rdx_ast.._..$LT$impl$u20$serde_core..de..Deserialize$u20$for$u20$rdx_ast..FootnoteNode$GT$..deserialize..__Visitor$u20$as$u20$serde_core..de..Visitor$GT$9visit_map17h7318f2db645f1564E', symObjAddr: 0xB5E0, symBinAddr: 0x42748, symSize: 0x93C }
  - { offset: 0x109F8A, size: 0x8, addend: 0x0, symName: '__ZN158_$LT$rdx_ast.._..$LT$impl$u20$serde_core..de..Deserialize$u20$for$u20$rdx_ast..FootnoteNode$GT$..deserialize..__Visitor$u20$as$u20$serde_core..de..Visitor$GT$9visit_seq17h12cc6b86a73d8a3fE', symObjAddr: 0xBF1C, symBinAddr: 0x43084, symSize: 0x3B0 }
  - { offset: 0x10A09E, size: 0x8, addend: 0x0, symName: '__ZN158_$LT$rdx_ast.._..$LT$impl$u20$serde_core..de..Deserialize$u20$for$u20$rdx_ast..VariableNode$GT$..deserialize..__Visitor$u20$as$u20$serde_core..de..Visitor$GT$9visit_map17h1eb917e91cd380a9E', symObjAddr: 0xC2CC, symBinAddr: 0x43434, symSize: 0x65C }
  - { offset: 0x10A26B, size: 0x8, addend: 0x0, symName: '__ZN158_$LT$rdx_ast.._..$LT$impl$u20$serde_core..de..Deserialize$u20$for$u20$rdx_ast..VariableNode$GT$..deserialize..__Visitor$u20$as$u20$serde_core..de..Visitor$GT$9visit_map17habfdc943170dafbbE', symObjAddr: 0xC928, symBinAddr: 0x43A90, symSize: 0x65C }
  - { offset: 0x10A438, size: 0x8, addend: 0x0, symName: '__ZN158_$LT$rdx_ast.._..$LT$impl$u20$serde_core..de..Deserialize$u20$for$u20$rdx_ast..VariableNode$GT$..deserialize..__Visitor$u20$as$u20$serde_core..de..Visitor$GT$9visit_seq17h307c2324e2e48908E', symObjAddr: 0xCF84, symBinAddr: 0x440EC, symSize: 0x280 }
  - { offset: 0x10A502, size: 0x8, addend: 0x0, symName: '__ZN158_$LT$rdx_ast.._..$LT$impl$u20$serde_core..de..Deserialize$u20$for$u20$rdx_ast..VariableNode$GT$..deserialize..__Visitor$u20$as$u20$serde_core..de..Visitor$GT$9visit_seq17hf9d54fd5716155fdE', symObjAddr: 0xD204, symBinAddr: 0x4436C, symSize: 0x280 }
  - { offset: 0x10A5CC, size: 0x8, addend: 0x0, symName: '__ZN159_$LT$rdx_ast.._..$LT$impl$u20$serde_core..de..Deserialize$u20$for$u20$rdx_ast..AttributeNode$GT$..deserialize..__Visitor$u20$as$u20$serde_core..de..Visitor$GT$9visit_map17h9ce53a8f55a8112cE', symObjAddr: 0xD484, symBinAddr: 0x445EC, symSize: 0x970 }
  - { offset: 0x10A82D, size: 0x8, addend: 0x0, symName: '__ZN159_$LT$rdx_ast.._..$LT$impl$u20$serde_core..de..Deserialize$u20$for$u20$rdx_ast..AttributeNode$GT$..deserialize..__Visitor$u20$as$u20$serde_core..de..Visitor$GT$9visit_seq17he51d846781d17763E', symObjAddr: 0xDDF4, symBinAddr: 0x44F5C, symSize: 0x3D4 }
  - { offset: 0x10A941, size: 0x8, addend: 0x0, symName: '__ZN159_$LT$rdx_ast.._..$LT$impl$u20$serde_core..de..Deserialize$u20$for$u20$rdx_ast..CodeBlockNode$GT$..deserialize..__Visitor$u20$as$u20$serde_core..de..Visitor$GT$9visit_map17h7e22d52796658298E', symObjAddr: 0xE1C8, symBinAddr: 0x45330, symSize: 0xC20 }
  - { offset: 0x10AC36, size: 0x8, addend: 0x0, symName: '__ZN159_$LT$rdx_ast.._..$LT$impl$u20$serde_core..de..Deserialize$u20$for$u20$rdx_ast..CodeBlockNode$GT$..deserialize..__Visitor$u20$as$u20$serde_core..de..Visitor$GT$9visit_seq17h59168bdbfac38fd4E', symObjAddr: 0xEDE8, symBinAddr: 0x45F50, symSize: 0x4E8 }
  - { offset: 0x10AD95, size: 0x8, addend: 0x0, symName: '__ZN159_$LT$rdx_ast.._..$LT$impl$u20$serde_core..de..Deserialize$u20$for$u20$rdx_ast..ComponentNode$GT$..deserialize..__Visitor$u20$as$u20$serde_core..de..Visitor$GT$9visit_map17he18ab85a04825715E', symObjAddr: 0xF2D0, symBinAddr: 0x46438, symSize: 0xDA4 }
  - { offset: 0x10B11E, size: 0x8, addend: 0x0, symName: '__ZN159_$LT$rdx_ast.._..$LT$impl$u20$serde_core..de..Deserialize$u20$for$u20$rdx_ast..ComponentNode$GT$..deserialize..__Visitor$u20$as$u20$serde_core..de..Visitor$GT$9visit_seq17h8c4c4422da31501eE', symObjAddr: 0x10074, symBinAddr: 0x471DC, symSize: 0x5A4 }
  - { offset: 0x10B2A7, size: 0x8, addend: 0x0, symName: '__ZN163_$LT$rdx_ast.._..$LT$impl$u20$serde_core..de..Deserialize$u20$for$u20$rdx_ast..StandardBlockNode$GT$..deserialize..__Visitor$u20$as$u20$serde_core..de..Visitor$GT$9visit_map17h7dc8e0b3a8c19eefE', symObjAddr: 0x11CA8, symBinAddr: 0x48E10, symSize: 0xD80 }
  - { offset: 0x10B6C4, size: 0x8, addend: 0x0, symName: '__ZN163_$LT$rdx_ast.._..$LT$impl$u20$serde_core..de..Deserialize$u20$for$u20$rdx_ast..StandardBlockNode$GT$..deserialize..__Visitor$u20$as$u20$serde_core..de..Visitor$GT$9visit_seq17hcc2f43131b6b03baE', symObjAddr: 0x12A28, symBinAddr: 0x49B90, symSize: 0x5EC }
  - { offset: 0x10B861, size: 0x8, addend: 0x0, symName: '__ZN152_$LT$rdx_ast.._..$LT$impl$u20$serde_core..de..Deserialize$u20$for$u20$rdx_ast..Node$GT$..deserialize..__Field$u20$as$u20$serde_core..de..Deserialize$GT$11deserialize17h0a71b0bc952f2c1aE', symObjAddr: 0x40E8, symBinAddr: 0x3B250, symSize: 0x14 }
  - { offset: 0x10B897, size: 0x8, addend: 0x0, symName: '__ZN152_$LT$rdx_ast.._..$LT$impl$u20$serde_core..de..Deserialize$u20$for$u20$rdx_ast..Node$GT$..deserialize..__Field$u20$as$u20$serde_core..de..Deserialize$GT$11deserialize17h394cdba92ad76264E', symObjAddr: 0x40FC, symBinAddr: 0x3B264, symSize: 0x14 }
  - { offset: 0x10B8CD, size: 0x8, addend: 0x0, symName: '__ZN152_$LT$rdx_ast.._..$LT$impl$u20$serde_core..de..Deserialize$u20$for$u20$rdx_ast..Root$GT$..deserialize..__Field$u20$as$u20$serde_core..de..Deserialize$GT$11deserialize17h467ebbe4ea1e1ad2E', symObjAddr: 0x4110, symBinAddr: 0x3B278, symSize: 0x14 }
  - { offset: 0x10B903, size: 0x8, addend: 0x0, symName: '__ZN153_$LT$rdx_ast.._..$LT$impl$u20$serde_core..de..Deserialize$u20$for$u20$rdx_ast..Point$GT$..deserialize..__Field$u20$as$u20$serde_core..de..Deserialize$GT$11deserialize17h43efdcc6ea77eeceE', symObjAddr: 0x4124, symBinAddr: 0x3B28C, symSize: 0x24 }
  - { offset: 0x10B938, size: 0x8, addend: 0x0, symName: '__ZN153_$LT$rdx_ast.._..$LT$impl$u20$serde_core..de..Deserialize$u20$for$u20$rdx_ast..Point$GT$..deserialize..__Field$u20$as$u20$serde_core..de..Deserialize$GT$11deserialize17h67f0fca1d002d96fE', symObjAddr: 0x4148, symBinAddr: 0x3B2B0, symSize: 0x14 }
  - { offset: 0x10B96E, size: 0x8, addend: 0x0, symName: '__ZN153_$LT$rdx_ast.._..$LT$impl$u20$serde_core..de..Deserialize$u20$for$u20$rdx_ast..Point$GT$..deserialize..__Field$u20$as$u20$serde_core..de..Deserialize$GT$11deserialize17he2ded714de0914dfE', symObjAddr: 0x415C, symBinAddr: 0x3B2C4, symSize: 0x14 }
  - { offset: 0x10B9A4, size: 0x8, addend: 0x0, symName: '__ZN156_$LT$rdx_ast.._..$LT$impl$u20$serde_core..de..Deserialize$u20$for$u20$rdx_ast..LinkNode$GT$..deserialize..__Field$u20$as$u20$serde_core..de..Deserialize$GT$11deserialize17h51ea8aa2b1e2f661E', symObjAddr: 0xB1FC, symBinAddr: 0x42364, symSize: 0x14 }
  - { offset: 0x10B9DA, size: 0x8, addend: 0x0, symName: '__ZN156_$LT$rdx_ast.._..$LT$impl$u20$serde_core..de..Deserialize$u20$for$u20$rdx_ast..Position$GT$..deserialize..__Field$u20$as$u20$serde_core..de..Deserialize$GT$11deserialize17h625ae87df0eae92aE', symObjAddr: 0xB544, symBinAddr: 0x426AC, symSize: 0x14 }
  - { offset: 0x10BA10, size: 0x8, addend: 0x0, symName: '__ZN156_$LT$rdx_ast.._..$LT$impl$u20$serde_core..de..Deserialize$u20$for$u20$rdx_ast..Position$GT$..deserialize..__Field$u20$as$u20$serde_core..de..Deserialize$GT$11deserialize17h99d76df9dd3b6b28E', symObjAddr: 0xB558, symBinAddr: 0x426C0, symSize: 0x14 }
  - { offset: 0x10BA46, size: 0x8, addend: 0x0, symName: '__ZN156_$LT$rdx_ast.._..$LT$impl$u20$serde_core..de..Deserialize$u20$for$u20$rdx_ast..Position$GT$..deserialize..__Field$u20$as$u20$serde_core..de..Deserialize$GT$11deserialize17hb9a203388ec40548E', symObjAddr: 0xB56C, symBinAddr: 0x426D4, symSize: 0x24 }
  - { offset: 0x10BA7B, size: 0x8, addend: 0x0, symName: '__ZN156_$LT$rdx_ast.._..$LT$impl$u20$serde_core..de..Deserialize$u20$for$u20$rdx_ast..RootType$GT$..deserialize..__Field$u20$as$u20$serde_core..de..Deserialize$GT$11deserialize17h81e6f6472e6f5a2cE', symObjAddr: 0xB590, symBinAddr: 0x426F8, symSize: 0x14 }
  - { offset: 0x10BAB1, size: 0x8, addend: 0x0, symName: '__ZN156_$LT$rdx_ast.._..$LT$impl$u20$serde_core..de..Deserialize$u20$for$u20$rdx_ast..TextNode$GT$..deserialize..__Field$u20$as$u20$serde_core..de..Deserialize$GT$11deserialize17h633d77c9b83524b2E', symObjAddr: 0xB5A4, symBinAddr: 0x4270C, symSize: 0x14 }
  - { offset: 0x10BAE7, size: 0x8, addend: 0x0, symName: '__ZN157_$LT$rdx_ast.._..$LT$impl$u20$serde_core..de..Deserialize$u20$for$u20$rdx_ast..ErrorNode$GT$..deserialize..__Field$u20$as$u20$serde_core..de..Deserialize$GT$11deserialize17hdc6c68c473245868E', symObjAddr: 0xB5B8, symBinAddr: 0x42720, symSize: 0x14 }
  - { offset: 0x10BB1D, size: 0x8, addend: 0x0, symName: '__ZN157_$LT$rdx_ast.._..$LT$impl$u20$serde_core..de..Deserialize$u20$for$u20$rdx_ast..ImageNode$GT$..deserialize..__Field$u20$as$u20$serde_core..de..Deserialize$GT$11deserialize17h6a6a47c711fbb75eE', symObjAddr: 0xB5CC, symBinAddr: 0x42734, symSize: 0x14 }
  - { offset: 0x10BB53, size: 0x8, addend: 0x0, symName: '__ZN160_$LT$rdx_ast.._..$LT$impl$u20$serde_core..de..Deserialize$u20$for$u20$rdx_ast..FootnoteNode$GT$..deserialize..__Field$u20$as$u20$serde_core..de..Deserialize$GT$11deserialize17hbd7590f864232ebdE', symObjAddr: 0x11388, symBinAddr: 0x484F0, symSize: 0x14 }
  - { offset: 0x10BB89, size: 0x8, addend: 0x0, symName: '__ZN160_$LT$rdx_ast.._..$LT$impl$u20$serde_core..de..Deserialize$u20$for$u20$rdx_ast..VariableNode$GT$..deserialize..__Field$u20$as$u20$serde_core..de..Deserialize$GT$11deserialize17h233e43a0bb7ff272E', symObjAddr: 0x1189C, symBinAddr: 0x48A04, symSize: 0x24 }
  - { offset: 0x10BBBE, size: 0x8, addend: 0x0, symName: '__ZN160_$LT$rdx_ast.._..$LT$impl$u20$serde_core..de..Deserialize$u20$for$u20$rdx_ast..VariableNode$GT$..deserialize..__Field$u20$as$u20$serde_core..de..Deserialize$GT$11deserialize17h5e8de3e57004b601E', symObjAddr: 0x118C0, symBinAddr: 0x48A28, symSize: 0x14 }
  - { offset: 0x10BBF4, size: 0x8, addend: 0x0, symName: '__ZN161_$LT$rdx_ast.._..$LT$impl$u20$serde_core..de..Deserialize$u20$for$u20$rdx_ast..AttributeNode$GT$..deserialize..__Field$u20$as$u20$serde_core..de..Deserialize$GT$11deserialize17h7d9be89e63522a72E', symObjAddr: 0x118D4, symBinAddr: 0x48A3C, symSize: 0x14 }
  - { offset: 0x10BC2A, size: 0x8, addend: 0x0, symName: '__ZN161_$LT$rdx_ast.._..$LT$impl$u20$serde_core..de..Deserialize$u20$for$u20$rdx_ast..CodeBlockNode$GT$..deserialize..__Field$u20$as$u20$serde_core..de..Deserialize$GT$11deserialize17h29a69907e73464a5E', symObjAddr: 0x118E8, symBinAddr: 0x48A50, symSize: 0x14 }
  - { offset: 0x10BC60, size: 0x8, addend: 0x0, symName: '__ZN161_$LT$rdx_ast.._..$LT$impl$u20$serde_core..de..Deserialize$u20$for$u20$rdx_ast..ComponentNode$GT$..deserialize..__Field$u20$as$u20$serde_core..de..Deserialize$GT$11deserialize17h79eebcdec0e5dcbaE', symObjAddr: 0x118FC, symBinAddr: 0x48A64, symSize: 0x14 }
  - { offset: 0x10BC96, size: 0x8, addend: 0x0, symName: '__ZN165_$LT$rdx_ast.._..$LT$impl$u20$serde_core..de..Deserialize$u20$for$u20$rdx_ast..StandardBlockNode$GT$..deserialize..__Field$u20$as$u20$serde_core..de..Deserialize$GT$11deserialize17h1897b574c505a375E', symObjAddr: 0x13FD0, symBinAddr: 0x4B138, symSize: 0x14 }
  - { offset: 0x10BCD2, size: 0x8, addend: 0x0, symName: '__ZN155_$LT$rdx_ast.._..$LT$impl$u20$serde_core..de..Deserialize$u20$for$u20$rdx_ast..Node$GT$..deserialize..__FieldVisitor$u20$as$u20$serde_core..de..Visitor$GT$11visit_bytes17h1e358d1e1d68de52E', symObjAddr: 0x93D0, symBinAddr: 0x40538, symSize: 0x14C8 }
  - { offset: 0x10BD35, size: 0x8, addend: 0x0, symName: '__ZN155_$LT$rdx_ast.._..$LT$impl$u20$serde_core..de..Deserialize$u20$for$u20$rdx_ast..Node$GT$..deserialize..__FieldVisitor$u20$as$u20$serde_core..de..Visitor$GT$9visit_str17h632bc27b53ac1113E', symObjAddr: 0xA898, symBinAddr: 0x41A00, symSize: 0x5CC }
  - { offset: 0x10BD83, size: 0x8, addend: 0x0, symName: '__ZN155_$LT$rdx_ast.._..$LT$impl$u20$serde_core..de..Deserialize$u20$for$u20$rdx_ast..Node$GT$..deserialize..__FieldVisitor$u20$as$u20$serde_core..de..Visitor$GT$9visit_u6417he2031c88fc6bbb5dE', symObjAddr: 0xAE64, symBinAddr: 0x41FCC, symSize: 0x280 }
  - { offset: 0x10BDD1, size: 0x8, addend: 0x0, symName: '__ZN155_$LT$rdx_ast.._..$LT$impl$u20$serde_core..de..Deserialize$u20$for$u20$rdx_ast..Root$GT$..deserialize..__FieldVisitor$u20$as$u20$serde_core..de..Visitor$GT$9visit_str17h657839572d9490dbE', symObjAddr: 0xB0E4, symBinAddr: 0x4224C, symSize: 0x118 }
  - { offset: 0x10BE1F, size: 0x8, addend: 0x0, symName: '__ZN156_$LT$rdx_ast.._..$LT$impl$u20$serde_core..de..Deserialize$u20$for$u20$rdx_ast..Point$GT$..deserialize..__FieldVisitor$u20$as$u20$serde_core..de..Visitor$GT$11visit_bytes17h359f6f70de18a549E', symObjAddr: 0xB210, symBinAddr: 0x42378, symSize: 0x1C8 }
  - { offset: 0x10BE6D, size: 0x8, addend: 0x0, symName: '__ZN156_$LT$rdx_ast.._..$LT$impl$u20$serde_core..de..Deserialize$u20$for$u20$rdx_ast..Point$GT$..deserialize..__FieldVisitor$u20$as$u20$serde_core..de..Visitor$GT$9visit_str17h12003cf650f5eafdE', symObjAddr: 0xB3D8, symBinAddr: 0x42540, symSize: 0xE0 }
  - { offset: 0x10BEBB, size: 0x8, addend: 0x0, symName: '__ZN156_$LT$rdx_ast.._..$LT$impl$u20$serde_core..de..Deserialize$u20$for$u20$rdx_ast..Point$GT$..deserialize..__FieldVisitor$u20$as$u20$serde_core..de..Visitor$GT$9visit_u6417he4751877c456e756E', symObjAddr: 0xB4B8, symBinAddr: 0x42620, symSize: 0x8C }
  - { offset: 0x10BF09, size: 0x8, addend: 0x0, symName: '__ZN159_$LT$rdx_ast.._..$LT$impl$u20$serde_core..de..Deserialize$u20$for$u20$rdx_ast..LinkNode$GT$..deserialize..__FieldVisitor$u20$as$u20$serde_core..de..Visitor$GT$11visit_bytes17h735beb9724dc97d5E', symObjAddr: 0x10618, symBinAddr: 0x47780, symSize: 0x28C }
  - { offset: 0x10BF57, size: 0x8, addend: 0x0, symName: '__ZN159_$LT$rdx_ast.._..$LT$impl$u20$serde_core..de..Deserialize$u20$for$u20$rdx_ast..LinkNode$GT$..deserialize..__FieldVisitor$u20$as$u20$serde_core..de..Visitor$GT$9visit_str17h89a4fd5a787837caE', symObjAddr: 0x108A4, symBinAddr: 0x47A0C, symSize: 0x118 }
  - { offset: 0x10BFA5, size: 0x8, addend: 0x0, symName: '__ZN159_$LT$rdx_ast.._..$LT$impl$u20$serde_core..de..Deserialize$u20$for$u20$rdx_ast..LinkNode$GT$..deserialize..__FieldVisitor$u20$as$u20$serde_core..de..Visitor$GT$9visit_u6417h53b866531a00ab98E', symObjAddr: 0x109BC, symBinAddr: 0x47B24, symSize: 0xB0 }
  - { offset: 0x10BFF3, size: 0x8, addend: 0x0, symName: '__ZN159_$LT$rdx_ast.._..$LT$impl$u20$serde_core..de..Deserialize$u20$for$u20$rdx_ast..Position$GT$..deserialize..__FieldVisitor$u20$as$u20$serde_core..de..Visitor$GT$11visit_bytes17h306a78a76a4e11a9E', symObjAddr: 0x10A6C, symBinAddr: 0x47BD4, symSize: 0x114 }
  - { offset: 0x10C041, size: 0x8, addend: 0x0, symName: '__ZN159_$LT$rdx_ast.._..$LT$impl$u20$serde_core..de..Deserialize$u20$for$u20$rdx_ast..Position$GT$..deserialize..__FieldVisitor$u20$as$u20$serde_core..de..Visitor$GT$9visit_str17h8cd83871a8b37858E', symObjAddr: 0x10B80, symBinAddr: 0x47CE8, symSize: 0xA8 }
  - { offset: 0x10C08F, size: 0x8, addend: 0x0, symName: '__ZN159_$LT$rdx_ast.._..$LT$impl$u20$serde_core..de..Deserialize$u20$for$u20$rdx_ast..Position$GT$..deserialize..__FieldVisitor$u20$as$u20$serde_core..de..Visitor$GT$9visit_u6417hf7ed963738d5e955E', symObjAddr: 0x10C28, symBinAddr: 0x47D90, symSize: 0x68 }
  - { offset: 0x10C0DD, size: 0x8, addend: 0x0, symName: '__ZN159_$LT$rdx_ast.._..$LT$impl$u20$serde_core..de..Deserialize$u20$for$u20$rdx_ast..RootType$GT$..deserialize..__FieldVisitor$u20$as$u20$serde_core..de..Visitor$GT$9visit_str17h915a4ce603896446E', symObjAddr: 0x10C90, symBinAddr: 0x47DF8, symSize: 0x78 }
  - { offset: 0x10C12B, size: 0x8, addend: 0x0, symName: '__ZN159_$LT$rdx_ast.._..$LT$impl$u20$serde_core..de..Deserialize$u20$for$u20$rdx_ast..TextNode$GT$..deserialize..__FieldVisitor$u20$as$u20$serde_core..de..Visitor$GT$11visit_bytes17h2dab87c021f52c8cE', symObjAddr: 0x10D08, symBinAddr: 0x47E70, symSize: 0x178 }
  - { offset: 0x10C179, size: 0x8, addend: 0x0, symName: '__ZN159_$LT$rdx_ast.._..$LT$impl$u20$serde_core..de..Deserialize$u20$for$u20$rdx_ast..TextNode$GT$..deserialize..__FieldVisitor$u20$as$u20$serde_core..de..Visitor$GT$9visit_str17h4c6ad63688324e5fE', symObjAddr: 0x10E80, symBinAddr: 0x47FE8, symSize: 0xA8 }
  - { offset: 0x10C1C7, size: 0x8, addend: 0x0, symName: '__ZN159_$LT$rdx_ast.._..$LT$impl$u20$serde_core..de..Deserialize$u20$for$u20$rdx_ast..TextNode$GT$..deserialize..__FieldVisitor$u20$as$u20$serde_core..de..Visitor$GT$9visit_u6417h026ab10edaf31901E', symObjAddr: 0x10F28, symBinAddr: 0x48090, symSize: 0x68 }
  - { offset: 0x10C215, size: 0x8, addend: 0x0, symName: '__ZN160_$LT$rdx_ast.._..$LT$impl$u20$serde_core..de..Deserialize$u20$for$u20$rdx_ast..ErrorNode$GT$..deserialize..__FieldVisitor$u20$as$u20$serde_core..de..Visitor$GT$11visit_bytes17h5c1f28b455344ea8E', symObjAddr: 0x10F90, symBinAddr: 0x480F8, symSize: 0x28C }
  - { offset: 0x10C263, size: 0x8, addend: 0x0, symName: '__ZN160_$LT$rdx_ast.._..$LT$impl$u20$serde_core..de..Deserialize$u20$for$u20$rdx_ast..ErrorNode$GT$..deserialize..__FieldVisitor$u20$as$u20$serde_core..de..Visitor$GT$9visit_str17h5b589b0b2bbbdbb9E', symObjAddr: 0x1121C, symBinAddr: 0x48384, symSize: 0xE0 }
  - { offset: 0x10C2B1, size: 0x8, addend: 0x0, symName: '__ZN160_$LT$rdx_ast.._..$LT$impl$u20$serde_core..de..Deserialize$u20$for$u20$rdx_ast..ErrorNode$GT$..deserialize..__FieldVisitor$u20$as$u20$serde_core..de..Visitor$GT$9visit_u6417h676b46defe3d023aE', symObjAddr: 0x112FC, symBinAddr: 0x48464, symSize: 0x8C }
  - { offset: 0x10C2FF, size: 0x8, addend: 0x0, symName: '__ZN160_$LT$rdx_ast.._..$LT$impl$u20$serde_core..de..Deserialize$u20$for$u20$rdx_ast..ImageNode$GT$..deserialize..__FieldVisitor$u20$as$u20$serde_core..de..Visitor$GT$11visit_bytes17h36aa400e1f191b00E', symObjAddr: 0x1139C, symBinAddr: 0x48504, symSize: 0x2DC }
  - { offset: 0x10C34D, size: 0x8, addend: 0x0, symName: '__ZN160_$LT$rdx_ast.._..$LT$impl$u20$serde_core..de..Deserialize$u20$for$u20$rdx_ast..ImageNode$GT$..deserialize..__FieldVisitor$u20$as$u20$serde_core..de..Visitor$GT$9visit_str17h4e14b966555a7960E', symObjAddr: 0x11678, symBinAddr: 0x487E0, symSize: 0x150 }
  - { offset: 0x10C39B, size: 0x8, addend: 0x0, symName: '__ZN160_$LT$rdx_ast.._..$LT$impl$u20$serde_core..de..Deserialize$u20$for$u20$rdx_ast..ImageNode$GT$..deserialize..__FieldVisitor$u20$as$u20$serde_core..de..Visitor$GT$9visit_u6417h0ee7dc698eeb168dE', symObjAddr: 0x117C8, symBinAddr: 0x48930, symSize: 0xD4 }
  - { offset: 0x10C3E9, size: 0x8, addend: 0x0, symName: '__ZN163_$LT$rdx_ast.._..$LT$impl$u20$serde_core..de..Deserialize$u20$for$u20$rdx_ast..FootnoteNode$GT$..deserialize..__FieldVisitor$u20$as$u20$serde_core..de..Visitor$GT$11visit_bytes17h0a034072012bf730E', symObjAddr: 0x11910, symBinAddr: 0x48A78, symSize: 0x22C }
  - { offset: 0x10C437, size: 0x8, addend: 0x0, symName: '__ZN163_$LT$rdx_ast.._..$LT$impl$u20$serde_core..de..Deserialize$u20$for$u20$rdx_ast..FootnoteNode$GT$..deserialize..__FieldVisitor$u20$as$u20$serde_core..de..Visitor$GT$9visit_str17hab4dcc8a995b2801E', symObjAddr: 0x11B3C, symBinAddr: 0x48CA4, symSize: 0xE0 }
  - { offset: 0x10C485, size: 0x8, addend: 0x0, symName: '__ZN163_$LT$rdx_ast.._..$LT$impl$u20$serde_core..de..Deserialize$u20$for$u20$rdx_ast..FootnoteNode$GT$..deserialize..__FieldVisitor$u20$as$u20$serde_core..de..Visitor$GT$9visit_u6417hf6e923f9d1055999E', symObjAddr: 0x11C1C, symBinAddr: 0x48D84, symSize: 0x8C }
  - { offset: 0x10C4D3, size: 0x8, addend: 0x0, symName: '__ZN163_$LT$rdx_ast.._..$LT$impl$u20$serde_core..de..Deserialize$u20$for$u20$rdx_ast..VariableNode$GT$..deserialize..__FieldVisitor$u20$as$u20$serde_core..de..Visitor$GT$11visit_bytes17h704b16431a617b03E', symObjAddr: 0x13014, symBinAddr: 0x4A17C, symSize: 0x164 }
  - { offset: 0x10C521, size: 0x8, addend: 0x0, symName: '__ZN163_$LT$rdx_ast.._..$LT$impl$u20$serde_core..de..Deserialize$u20$for$u20$rdx_ast..VariableNode$GT$..deserialize..__FieldVisitor$u20$as$u20$serde_core..de..Visitor$GT$9visit_str17hb4d03766923b4851E', symObjAddr: 0x13178, symBinAddr: 0x4A2E0, symSize: 0xA8 }
  - { offset: 0x10C56F, size: 0x8, addend: 0x0, symName: '__ZN163_$LT$rdx_ast.._..$LT$impl$u20$serde_core..de..Deserialize$u20$for$u20$rdx_ast..VariableNode$GT$..deserialize..__FieldVisitor$u20$as$u20$serde_core..de..Visitor$GT$9visit_u6417h095397717870d6beE', symObjAddr: 0x13220, symBinAddr: 0x4A388, symSize: 0x68 }
  - { offset: 0x10C5BD, size: 0x8, addend: 0x0, symName: '__ZN164_$LT$rdx_ast.._..$LT$impl$u20$serde_core..de..Deserialize$u20$for$u20$rdx_ast..AttributeNode$GT$..deserialize..__FieldVisitor$u20$as$u20$serde_core..de..Visitor$GT$11visit_bytes17ha562fa41e2c250d5E', symObjAddr: 0x13288, symBinAddr: 0x4A3F0, symSize: 0x1EC }
  - { offset: 0x10C60B, size: 0x8, addend: 0x0, symName: '__ZN164_$LT$rdx_ast.._..$LT$impl$u20$serde_core..de..Deserialize$u20$for$u20$rdx_ast..AttributeNode$GT$..deserialize..__FieldVisitor$u20$as$u20$serde_core..de..Visitor$GT$9visit_str17h5157340e1cab42c6E', symObjAddr: 0x13474, symBinAddr: 0x4A5DC, symSize: 0xE0 }
  - { offset: 0x10C659, size: 0x8, addend: 0x0, symName: '__ZN164_$LT$rdx_ast.._..$LT$impl$u20$serde_core..de..Deserialize$u20$for$u20$rdx_ast..AttributeNode$GT$..deserialize..__FieldVisitor$u20$as$u20$serde_core..de..Visitor$GT$9visit_u6417h6de2777b52d4e801E', symObjAddr: 0x13554, symBinAddr: 0x4A6BC, symSize: 0x8C }
  - { offset: 0x10C6A7, size: 0x8, addend: 0x0, symName: '__ZN164_$LT$rdx_ast.._..$LT$impl$u20$serde_core..de..Deserialize$u20$for$u20$rdx_ast..CodeBlockNode$GT$..deserialize..__FieldVisitor$u20$as$u20$serde_core..de..Visitor$GT$11visit_bytes17h3615cfd615c9b6d1E', symObjAddr: 0x135E0, symBinAddr: 0x4A748, symSize: 0x250 }
  - { offset: 0x10C6F5, size: 0x8, addend: 0x0, symName: '__ZN164_$LT$rdx_ast.._..$LT$impl$u20$serde_core..de..Deserialize$u20$for$u20$rdx_ast..CodeBlockNode$GT$..deserialize..__FieldVisitor$u20$as$u20$serde_core..de..Visitor$GT$9visit_str17hac442f7b4f80b0b1E', symObjAddr: 0x13830, symBinAddr: 0x4A998, symSize: 0x118 }
  - { offset: 0x10C743, size: 0x8, addend: 0x0, symName: '__ZN164_$LT$rdx_ast.._..$LT$impl$u20$serde_core..de..Deserialize$u20$for$u20$rdx_ast..CodeBlockNode$GT$..deserialize..__FieldVisitor$u20$as$u20$serde_core..de..Visitor$GT$9visit_u6417h4da022b4fc17525aE', symObjAddr: 0x13948, symBinAddr: 0x4AAB0, symSize: 0xB0 }
  - { offset: 0x10C791, size: 0x8, addend: 0x0, symName: '__ZN164_$LT$rdx_ast.._..$LT$impl$u20$serde_core..de..Deserialize$u20$for$u20$rdx_ast..ComponentNode$GT$..deserialize..__FieldVisitor$u20$as$u20$serde_core..de..Visitor$GT$11visit_bytes17h034befd807343546E', symObjAddr: 0x139F8, symBinAddr: 0x4AB60, symSize: 0x3B4 }
  - { offset: 0x10C7DF, size: 0x8, addend: 0x0, symName: '__ZN164_$LT$rdx_ast.._..$LT$impl$u20$serde_core..de..Deserialize$u20$for$u20$rdx_ast..ComponentNode$GT$..deserialize..__FieldVisitor$u20$as$u20$serde_core..de..Visitor$GT$9visit_str17hd263f5574cbde8cdE', symObjAddr: 0x13DAC, symBinAddr: 0x4AF14, symSize: 0x150 }
  - { offset: 0x10C82D, size: 0x8, addend: 0x0, symName: '__ZN164_$LT$rdx_ast.._..$LT$impl$u20$serde_core..de..Deserialize$u20$for$u20$rdx_ast..ComponentNode$GT$..deserialize..__FieldVisitor$u20$as$u20$serde_core..de..Visitor$GT$9visit_u6417hb2f9da85417d9388E', symObjAddr: 0x13EFC, symBinAddr: 0x4B064, symSize: 0xD4 }
  - { offset: 0x10C87B, size: 0x8, addend: 0x0, symName: '__ZN168_$LT$rdx_ast.._..$LT$impl$u20$serde_core..de..Deserialize$u20$for$u20$rdx_ast..StandardBlockNode$GT$..deserialize..__FieldVisitor$u20$as$u20$serde_core..de..Visitor$GT$11visit_bytes17h87f92b1a7cafbfecE', symObjAddr: 0x13FE4, symBinAddr: 0x4B14C, symSize: 0x3C8 }
  - { offset: 0x10C8C9, size: 0x8, addend: 0x0, symName: '__ZN168_$LT$rdx_ast.._..$LT$impl$u20$serde_core..de..Deserialize$u20$for$u20$rdx_ast..StandardBlockNode$GT$..deserialize..__FieldVisitor$u20$as$u20$serde_core..de..Visitor$GT$9visit_str17hc4d6b34d23f74955E', symObjAddr: 0x143AC, symBinAddr: 0x4B514, symSize: 0x188 }
  - { offset: 0x10C917, size: 0x8, addend: 0x0, symName: '__ZN168_$LT$rdx_ast.._..$LT$impl$u20$serde_core..de..Deserialize$u20$for$u20$rdx_ast..StandardBlockNode$GT$..deserialize..__FieldVisitor$u20$as$u20$serde_core..de..Visitor$GT$9visit_u6417hcd0abb07ca1c9562E', symObjAddr: 0x14534, symBinAddr: 0x4B69C, symSize: 0xF8 }
  - { offset: 0x10CBCD, size: 0x8, addend: 0x0, symName: '__ZN7rdx_ast1_70_$LT$impl$u20$serde_core..ser..Serialize$u20$for$u20$rdx_ast..Node$GT$9serialize17h09ad792fb4ee6d20E', symObjAddr: 0x14AA4, symBinAddr: 0x4BC0C, symSize: 0x980 }
  - { offset: 0x10CEF7, size: 0x8, addend: 0x0, symName: '__ZN7rdx_ast1_70_$LT$impl$u20$serde_core..ser..Serialize$u20$for$u20$rdx_ast..Root$GT$9serialize17h3d1a0ff2eac35369E', symObjAddr: 0x15424, symBinAddr: 0x4C58C, symSize: 0x358 }
  - { offset: 0x10CFE1, size: 0x8, addend: 0x0, symName: '__ZN7rdx_ast1_71_$LT$impl$u20$serde_core..de..Deserialize$u20$for$u20$rdx_ast..Node$GT$11deserialize17h8a674f03f8dc628bE', symObjAddr: 0x1577C, symBinAddr: 0x4C8E4, symSize: 0x544 }
  - { offset: 0x10D06E, size: 0x8, addend: 0x0, symName: '__ZN7rdx_ast1_71_$LT$impl$u20$serde_core..de..Deserialize$u20$for$u20$rdx_ast..Node$GT$11deserialize17hf178fd0746326033E', symObjAddr: 0x15CC0, symBinAddr: 0x4CE28, symSize: 0x544 }
  - { offset: 0x10D0FB, size: 0x8, addend: 0x0, symName: '__ZN7rdx_ast1_71_$LT$impl$u20$serde_core..de..Deserialize$u20$for$u20$rdx_ast..Root$GT$11deserialize17h55a2b1f35b290927E', symObjAddr: 0x16204, symBinAddr: 0x4D36C, symSize: 0x30 }
  - { offset: 0x10D131, size: 0x8, addend: 0x0, symName: '__ZN7rdx_ast1_71_$LT$impl$u20$serde_core..ser..Serialize$u20$for$u20$rdx_ast..Point$GT$9serialize17h6358b92f39610617E', symObjAddr: 0x16234, symBinAddr: 0x4D39C, symSize: 0x2E4 }
  - { offset: 0x10D206, size: 0x8, addend: 0x0, symName: '__ZN7rdx_ast1_72_$LT$impl$u20$serde_core..de..Deserialize$u20$for$u20$rdx_ast..Point$GT$11deserialize17h728af648e727dabfE', symObjAddr: 0x16518, symBinAddr: 0x4D680, symSize: 0x44 }
  - { offset: 0x10D23B, size: 0x8, addend: 0x0, symName: '__ZN7rdx_ast1_72_$LT$impl$u20$serde_core..de..Deserialize$u20$for$u20$rdx_ast..Point$GT$11deserialize17h7af2a82afdfefe92E', symObjAddr: 0x1655C, symBinAddr: 0x4D6C4, symSize: 0x34 }
  - { offset: 0x10D271, size: 0x8, addend: 0x0, symName: '__ZN7rdx_ast1_72_$LT$impl$u20$serde_core..de..Deserialize$u20$for$u20$rdx_ast..Point$GT$11deserialize17hb824ef0217709c14E', symObjAddr: 0x16590, symBinAddr: 0x4D6F8, symSize: 0x34 }
  - { offset: 0x10D2A7, size: 0x8, addend: 0x0, symName: '__ZN7rdx_ast1_72_$LT$impl$u20$serde_core..de..Deserialize$u20$for$u20$rdx_ast..Point$GT$11deserialize17hfe0cfff6002919a5E', symObjAddr: 0x165C4, symBinAddr: 0x4D72C, symSize: 0x48 }
  - { offset: 0x10D2DC, size: 0x8, addend: 0x0, symName: '__ZN7rdx_ast1_74_$LT$impl$u20$serde_core..ser..Serialize$u20$for$u20$rdx_ast..LinkNode$GT$9serialize17h781166e83dc4b35cE', symObjAddr: 0x1660C, symBinAddr: 0x4D774, symSize: 0x49C }
  - { offset: 0x10D3DB, size: 0x8, addend: 0x0, symName: '__ZN7rdx_ast1_74_$LT$impl$u20$serde_core..ser..Serialize$u20$for$u20$rdx_ast..Position$GT$9serialize17hdcc0fe26b7afddbbE', symObjAddr: 0x16AA8, symBinAddr: 0x4DC10, symSize: 0x26C }
  - { offset: 0x10D49A, size: 0x8, addend: 0x0, symName: '__ZN7rdx_ast1_74_$LT$impl$u20$serde_core..ser..Serialize$u20$for$u20$rdx_ast..RootType$GT$9serialize17h4951f09307abd6f6E', symObjAddr: 0x16D14, symBinAddr: 0x4DE7C, symSize: 0x44 }
  - { offset: 0x10D4DD, size: 0x8, addend: 0x0, symName: '__ZN7rdx_ast1_74_$LT$impl$u20$serde_core..ser..Serialize$u20$for$u20$rdx_ast..TextNode$GT$9serialize17hdea9916cbbf3c77eE', symObjAddr: 0x16D58, symBinAddr: 0x4DEC0, symSize: 0x280 }
  - { offset: 0x10D59D, size: 0x8, addend: 0x0, symName: '__ZN7rdx_ast1_75_$LT$impl$u20$serde_core..de..Deserialize$u20$for$u20$rdx_ast..LinkNode$GT$11deserialize17h4333702579a3b2f6E', symObjAddr: 0x16FD8, symBinAddr: 0x4E140, symSize: 0x34 }
  - { offset: 0x10D5D3, size: 0x8, addend: 0x0, symName: '__ZN7rdx_ast1_75_$LT$impl$u20$serde_core..de..Deserialize$u20$for$u20$rdx_ast..Position$GT$11deserialize17h0562d49ece84d311E', symObjAddr: 0x1700C, symBinAddr: 0x4E174, symSize: 0x34 }
  - { offset: 0x10D609, size: 0x8, addend: 0x0, symName: '__ZN7rdx_ast1_75_$LT$impl$u20$serde_core..de..Deserialize$u20$for$u20$rdx_ast..Position$GT$11deserialize17h7aa05a4273575714E', symObjAddr: 0x17040, symBinAddr: 0x4E1A8, symSize: 0x34 }
  - { offset: 0x10D63F, size: 0x8, addend: 0x0, symName: '__ZN7rdx_ast1_75_$LT$impl$u20$serde_core..de..Deserialize$u20$for$u20$rdx_ast..Position$GT$11deserialize17hd010e88e3a43bdf1E', symObjAddr: 0x17074, symBinAddr: 0x4E1DC, symSize: 0x44 }
  - { offset: 0x10D674, size: 0x8, addend: 0x0, symName: '__ZN7rdx_ast1_75_$LT$impl$u20$serde_core..de..Deserialize$u20$for$u20$rdx_ast..Position$GT$11deserialize17hf4d4e3268f7496ddE', symObjAddr: 0x170B8, symBinAddr: 0x4E220, symSize: 0x48 }
  - { offset: 0x10D6A9, size: 0x8, addend: 0x0, symName: '__ZN7rdx_ast1_75_$LT$impl$u20$serde_core..de..Deserialize$u20$for$u20$rdx_ast..RootType$GT$11deserialize17h4a3eb08be63fd28fE', symObjAddr: 0x17100, symBinAddr: 0x4E268, symSize: 0x48 }
  - { offset: 0x10D6DE, size: 0x8, addend: 0x0, symName: '__ZN7rdx_ast1_75_$LT$impl$u20$serde_core..de..Deserialize$u20$for$u20$rdx_ast..RootType$GT$11deserialize17hb43a65a4dd296149E', symObjAddr: 0x17148, symBinAddr: 0x4E2B0, symSize: 0x34 }
  - { offset: 0x10D714, size: 0x8, addend: 0x0, symName: '__ZN7rdx_ast1_75_$LT$impl$u20$serde_core..de..Deserialize$u20$for$u20$rdx_ast..TextNode$GT$11deserialize17hbd2752497bcbe24eE', symObjAddr: 0x1717C, symBinAddr: 0x4E2E4, symSize: 0x34 }
  - { offset: 0x10D74A, size: 0x8, addend: 0x0, symName: '__ZN7rdx_ast1_75_$LT$impl$u20$serde_core..ser..Serialize$u20$for$u20$rdx_ast..ErrorNode$GT$9serialize17hae8b36cfeb970d16E', symObjAddr: 0x171B0, symBinAddr: 0x4E318, symSize: 0x2F8 }
  - { offset: 0x10D81F, size: 0x8, addend: 0x0, symName: '__ZN7rdx_ast1_75_$LT$impl$u20$serde_core..ser..Serialize$u20$for$u20$rdx_ast..ImageNode$GT$9serialize17hf73d1a2c2d388dd0E', symObjAddr: 0x174A8, symBinAddr: 0x4E610, symSize: 0x5FC }
  - { offset: 0x10D94A, size: 0x8, addend: 0x0, symName: '__ZN7rdx_ast1_76_$LT$impl$u20$serde_core..de..Deserialize$u20$for$u20$rdx_ast..ErrorNode$GT$11deserialize17h16fa4ed6d0990d40E', symObjAddr: 0x17AA4, symBinAddr: 0x4EC0C, symSize: 0x34 }
  - { offset: 0x10D980, size: 0x8, addend: 0x0, symName: '__ZN7rdx_ast1_76_$LT$impl$u20$serde_core..de..Deserialize$u20$for$u20$rdx_ast..ImageNode$GT$11deserialize17h1dee2b1471ea3c00E', symObjAddr: 0x17AD8, symBinAddr: 0x4EC40, symSize: 0x34 }
  - { offset: 0x10D9B6, size: 0x8, addend: 0x0, symName: '__ZN7rdx_ast1_78_$LT$impl$u20$serde_core..ser..Serialize$u20$for$u20$rdx_ast..FootnoteNode$GT$9serialize17h8d0489e80c52b79bE', symObjAddr: 0x17B0C, symBinAddr: 0x4EC74, symSize: 0x2F8 }
  - { offset: 0x10DA8B, size: 0x8, addend: 0x0, symName: '__ZN7rdx_ast1_78_$LT$impl$u20$serde_core..ser..Serialize$u20$for$u20$rdx_ast..VariableNode$GT$9serialize17h1a18cb51617cf078E', symObjAddr: 0x17E04, symBinAddr: 0x4EF6C, symSize: 0x280 }
  - { offset: 0x10DB4B, size: 0x8, addend: 0x0, symName: '__ZN7rdx_ast1_78_$LT$impl$u20$serde_core..ser..Serialize$u20$for$u20$rdx_ast..VariableNode$GT$9serialize17hc1e7e1dcffb9a5d2E', symObjAddr: 0x18084, symBinAddr: 0x4F1EC, symSize: 0x26C }
  - { offset: 0x10DC0A, size: 0x8, addend: 0x0, symName: '__ZN7rdx_ast1_79_$LT$impl$u20$serde_core..de..Deserialize$u20$for$u20$rdx_ast..FootnoteNode$GT$11deserialize17ha667c93c4e749a42E', symObjAddr: 0x182F0, symBinAddr: 0x4F458, symSize: 0x34 }
  - { offset: 0x10DC40, size: 0x8, addend: 0x0, symName: '__ZN7rdx_ast1_79_$LT$impl$u20$serde_core..de..Deserialize$u20$for$u20$rdx_ast..VariableNode$GT$11deserialize17h030fc76b01e73978E', symObjAddr: 0x18324, symBinAddr: 0x4F48C, symSize: 0x44 }
  - { offset: 0x10DC75, size: 0x8, addend: 0x0, symName: '__ZN7rdx_ast1_79_$LT$impl$u20$serde_core..de..Deserialize$u20$for$u20$rdx_ast..VariableNode$GT$11deserialize17h2aed2164fd66f3d0E', symObjAddr: 0x18368, symBinAddr: 0x4F4D0, symSize: 0x34 }
  - { offset: 0x10DCAB, size: 0x8, addend: 0x0, symName: '__ZN7rdx_ast1_79_$LT$impl$u20$serde_core..ser..Serialize$u20$for$u20$rdx_ast..AttributeNode$GT$9serialize17h7b922acdccd466c9E', symObjAddr: 0x1839C, symBinAddr: 0x4F504, symSize: 0x2E4 }
  - { offset: 0x10DD80, size: 0x8, addend: 0x0, symName: '__ZN7rdx_ast1_79_$LT$impl$u20$serde_core..ser..Serialize$u20$for$u20$rdx_ast..CodeBlockNode$GT$9serialize17hc1b07a512149d989E', symObjAddr: 0x18680, symBinAddr: 0x4F7E8, symSize: 0x560 }
  - { offset: 0x10DE95, size: 0x8, addend: 0x0, symName: '__ZN7rdx_ast1_79_$LT$impl$u20$serde_core..ser..Serialize$u20$for$u20$rdx_ast..ComponentNode$GT$9serialize17h571c09d32a274111E', symObjAddr: 0x18BE0, symBinAddr: 0x4FD48, symSize: 0x3E8 }
  - { offset: 0x10DF94, size: 0x8, addend: 0x0, symName: '__ZN7rdx_ast1_80_$LT$impl$u20$serde_core..de..Deserialize$u20$for$u20$rdx_ast..AttributeNode$GT$11deserialize17h14fc225143b24769E', symObjAddr: 0x18FC8, symBinAddr: 0x50130, symSize: 0x34 }
  - { offset: 0x10DFCA, size: 0x8, addend: 0x0, symName: '__ZN7rdx_ast1_80_$LT$impl$u20$serde_core..de..Deserialize$u20$for$u20$rdx_ast..CodeBlockNode$GT$11deserialize17hbe9f77824b5931b2E', symObjAddr: 0x18FFC, symBinAddr: 0x50164, symSize: 0x34 }
  - { offset: 0x10E000, size: 0x8, addend: 0x0, symName: '__ZN7rdx_ast1_80_$LT$impl$u20$serde_core..de..Deserialize$u20$for$u20$rdx_ast..ComponentNode$GT$11deserialize17hb6c2f9f8751d09f5E', symObjAddr: 0x19030, symBinAddr: 0x50198, symSize: 0x34 }
  - { offset: 0x10E036, size: 0x8, addend: 0x0, symName: '__ZN7rdx_ast1_80_$LT$impl$u20$serde_core..ser..Serialize$u20$for$u20$rdx_ast..AttributeValue$GT$9serialize17h18a70619e3eed19fE', symObjAddr: 0x19064, symBinAddr: 0x501CC, symSize: 0x154 }
  - { offset: 0x10E127, size: 0x8, addend: 0x0, symName: '__ZN7rdx_ast1_81_$LT$impl$u20$serde_core..de..Deserialize$u20$for$u20$rdx_ast..AttributeValue$GT$11deserialize17h2f0be3666b9d0875E', symObjAddr: 0x191B8, symBinAddr: 0x50320, symSize: 0x708 }
  - { offset: 0x10E272, size: 0x8, addend: 0x0, symName: '__ZN7rdx_ast1_81_$LT$impl$u20$serde_core..de..Deserialize$u20$for$u20$rdx_ast..AttributeValue$GT$11deserialize17h71ab7f24c44629eaE', symObjAddr: 0x198C0, symBinAddr: 0x50A28, symSize: 0x6FC }
  - { offset: 0x10E3BD, size: 0x8, addend: 0x0, symName: '__ZN7rdx_ast1_83_$LT$impl$u20$serde_core..ser..Serialize$u20$for$u20$rdx_ast..StandardBlockNode$GT$9serialize17h70cd9a8b634de132E', symObjAddr: 0x19FBC, symBinAddr: 0x51124, symSize: 0x840 }
  - { offset: 0x10E52A, size: 0x8, addend: 0x0, symName: '__ZN7rdx_ast1_84_$LT$impl$u20$serde_core..de..Deserialize$u20$for$u20$rdx_ast..StandardBlockNode$GT$11deserialize17h50a0de991f14f602E', symObjAddr: 0x1A7FC, symBinAddr: 0x51964, symSize: 0x34 }
  - { offset: 0x10EFDC, size: 0x8, addend: 0x0, symName: __ZN10serde_core2de7Visitor12visit_string17h032ca52994883cf0E, symObjAddr: 0x0, symBinAddr: 0x37168, symSize: 0x98 }
  - { offset: 0x10F02C, size: 0x8, addend: 0x0, symName: __ZN10serde_core2de7Visitor12visit_string17h1879a074974dc319E, symObjAddr: 0x98, symBinAddr: 0x37200, symSize: 0x98 }
  - { offset: 0x10F07C, size: 0x8, addend: 0x0, symName: __ZN10serde_core2de7Visitor12visit_string17h211dd4803b6266c0E, symObjAddr: 0x130, symBinAddr: 0x37298, symSize: 0x98 }
  - { offset: 0x10F0CC, size: 0x8, addend: 0x0, symName: __ZN10serde_core2de7Visitor12visit_string17h731f6747521128b4E, symObjAddr: 0x1C8, symBinAddr: 0x37330, symSize: 0x98 }
  - { offset: 0x10F11C, size: 0x8, addend: 0x0, symName: __ZN10serde_core2de7Visitor12visit_string17h7a73487241ce740cE, symObjAddr: 0x260, symBinAddr: 0x373C8, symSize: 0x98 }
  - { offset: 0x10F16C, size: 0x8, addend: 0x0, symName: __ZN10serde_core2de7Visitor12visit_string17h841c8f8fa0dea736E, symObjAddr: 0x2F8, symBinAddr: 0x37460, symSize: 0x98 }
  - { offset: 0x10F1BC, size: 0x8, addend: 0x0, symName: __ZN10serde_core2de7Visitor12visit_string17h9b9a6068cc70b97bE, symObjAddr: 0x390, symBinAddr: 0x374F8, symSize: 0x98 }
  - { offset: 0x10F20C, size: 0x8, addend: 0x0, symName: __ZN10serde_core2de7Visitor12visit_string17ha17f10b898aaa03aE, symObjAddr: 0x428, symBinAddr: 0x37590, symSize: 0x98 }
  - { offset: 0x10F25C, size: 0x8, addend: 0x0, symName: __ZN10serde_core2de7Visitor12visit_string17ha1a23e0fb9135eadE, symObjAddr: 0x4C0, symBinAddr: 0x37628, symSize: 0x98 }
  - { offset: 0x10F2AC, size: 0x8, addend: 0x0, symName: __ZN10serde_core2de7Visitor12visit_string17hb389cb3277dbff66E, symObjAddr: 0x558, symBinAddr: 0x376C0, symSize: 0x98 }
  - { offset: 0x10F2FC, size: 0x8, addend: 0x0, symName: __ZN10serde_core2de7Visitor12visit_string17hce38441178d6033aE, symObjAddr: 0x5F0, symBinAddr: 0x37758, symSize: 0x98 }
  - { offset: 0x10F34C, size: 0x8, addend: 0x0, symName: __ZN10serde_core2de7Visitor12visit_string17hcfccd5a95a42a775E, symObjAddr: 0x688, symBinAddr: 0x377F0, symSize: 0x98 }
  - { offset: 0x10F39C, size: 0x8, addend: 0x0, symName: __ZN10serde_core2de7Visitor12visit_string17hd5e07d669c07a127E, symObjAddr: 0x720, symBinAddr: 0x37888, symSize: 0x98 }
  - { offset: 0x10F3EC, size: 0x8, addend: 0x0, symName: __ZN10serde_core2de7Visitor12visit_string17hf34dfdfec6fb4cc7E, symObjAddr: 0x7B8, symBinAddr: 0x37920, symSize: 0x98 }
  - { offset: 0x10F43C, size: 0x8, addend: 0x0, symName: __ZN10serde_core2de7Visitor12visit_string17hf80f0633635bbc57E, symObjAddr: 0x850, symBinAddr: 0x379B8, symSize: 0x98 }
  - { offset: 0x10F48C, size: 0x8, addend: 0x0, symName: __ZN10serde_core2de7Visitor14visit_byte_buf17h1f57492c23f6e712E, symObjAddr: 0x8E8, symBinAddr: 0x37A50, symSize: 0x98 }
  - { offset: 0x10F4DC, size: 0x8, addend: 0x0, symName: __ZN10serde_core2de7Visitor14visit_byte_buf17h381b8f2270294793E, symObjAddr: 0x980, symBinAddr: 0x37AE8, symSize: 0x98 }
  - { offset: 0x10F52C, size: 0x8, addend: 0x0, symName: __ZN10serde_core2de7Visitor14visit_byte_buf17h48e0138515ada020E, symObjAddr: 0xA18, symBinAddr: 0x37B80, symSize: 0x98 }
  - { offset: 0x10F57C, size: 0x8, addend: 0x0, symName: __ZN10serde_core2de7Visitor14visit_byte_buf17ha097dc91c3e0f2a7E, symObjAddr: 0xAB0, symBinAddr: 0x37C18, symSize: 0x98 }
  - { offset: 0x10F5CC, size: 0x8, addend: 0x0, symName: __ZN10serde_core2de7Visitor14visit_byte_buf17ha99f342eec6e9286E, symObjAddr: 0xB48, symBinAddr: 0x37CB0, symSize: 0x98 }
  - { offset: 0x10F61C, size: 0x8, addend: 0x0, symName: __ZN10serde_core2de7Visitor14visit_byte_buf17hb118cf3a910de045E, symObjAddr: 0xBE0, symBinAddr: 0x37D48, symSize: 0x98 }
  - { offset: 0x10F66C, size: 0x8, addend: 0x0, symName: __ZN10serde_core2de7Visitor14visit_byte_buf17hb420d3533a14c543E, symObjAddr: 0xC78, symBinAddr: 0x37DE0, symSize: 0x98 }
  - { offset: 0x10F6BC, size: 0x8, addend: 0x0, symName: __ZN10serde_core2de7Visitor14visit_byte_buf17hc7ae04fb4c34abe8E, symObjAddr: 0xD10, symBinAddr: 0x37E78, symSize: 0x98 }
  - { offset: 0x10F70C, size: 0x8, addend: 0x0, symName: __ZN10serde_core2de7Visitor14visit_byte_buf17hcd63f7818b96ff52E, symObjAddr: 0xDA8, symBinAddr: 0x37F10, symSize: 0x98 }
  - { offset: 0x10F75C, size: 0x8, addend: 0x0, symName: __ZN10serde_core2de7Visitor14visit_byte_buf17hd317b96af7ac8b75E, symObjAddr: 0xE40, symBinAddr: 0x37FA8, symSize: 0x98 }
  - { offset: 0x10F7AC, size: 0x8, addend: 0x0, symName: __ZN10serde_core2de7Visitor14visit_byte_buf17he10cc0879e4b191fE, symObjAddr: 0xED8, symBinAddr: 0x38040, symSize: 0x98 }
  - { offset: 0x10F7FC, size: 0x8, addend: 0x0, symName: __ZN10serde_core2de7Visitor14visit_byte_buf17hf0002aca6003ef2fE, symObjAddr: 0xF70, symBinAddr: 0x380D8, symSize: 0x98 }
  - { offset: 0x10F84C, size: 0x8, addend: 0x0, symName: __ZN10serde_core2de7Visitor14visit_byte_buf17hf2afc401296669d0E, symObjAddr: 0x1008, symBinAddr: 0x38170, symSize: 0x98 }
  - { offset: 0x10F89C, size: 0x8, addend: 0x0, symName: __ZN10serde_core2de7Visitor18visit_borrowed_str17h19d8d3accea87857E, symObjAddr: 0x10A0, symBinAddr: 0x38208, symSize: 0x28 }
  - { offset: 0x10F8EB, size: 0x8, addend: 0x0, symName: __ZN10serde_core2de7Visitor18visit_borrowed_str17h1ace96b446daefbdE, symObjAddr: 0x10C8, symBinAddr: 0x38230, symSize: 0x28 }
  - { offset: 0x10F93A, size: 0x8, addend: 0x0, symName: __ZN10serde_core2de7Visitor18visit_borrowed_str17h31e4cad06fe505baE, symObjAddr: 0x10F0, symBinAddr: 0x38258, symSize: 0x28 }
  - { offset: 0x10F989, size: 0x8, addend: 0x0, symName: __ZN10serde_core2de7Visitor18visit_borrowed_str17h448389cfd92daeb9E, symObjAddr: 0x1118, symBinAddr: 0x38280, symSize: 0x28 }
  - { offset: 0x10F9D8, size: 0x8, addend: 0x0, symName: __ZN10serde_core2de7Visitor18visit_borrowed_str17h51d8dae706a29afdE, symObjAddr: 0x1140, symBinAddr: 0x382A8, symSize: 0x28 }
  - { offset: 0x10FA27, size: 0x8, addend: 0x0, symName: __ZN10serde_core2de7Visitor18visit_borrowed_str17h6bbe1c40b73c7740E, symObjAddr: 0x1168, symBinAddr: 0x382D0, symSize: 0x28 }
  - { offset: 0x10FA76, size: 0x8, addend: 0x0, symName: __ZN10serde_core2de7Visitor18visit_borrowed_str17h8a3c80fcf1e3c9a9E, symObjAddr: 0x1190, symBinAddr: 0x382F8, symSize: 0x28 }
  - { offset: 0x10FAC5, size: 0x8, addend: 0x0, symName: __ZN10serde_core2de7Visitor18visit_borrowed_str17h926ba05b046f9938E, symObjAddr: 0x11B8, symBinAddr: 0x38320, symSize: 0x28 }
  - { offset: 0x10FB14, size: 0x8, addend: 0x0, symName: __ZN10serde_core2de7Visitor18visit_borrowed_str17h97bb58ccd0825a67E, symObjAddr: 0x11E0, symBinAddr: 0x38348, symSize: 0x28 }
  - { offset: 0x10FB63, size: 0x8, addend: 0x0, symName: __ZN10serde_core2de7Visitor18visit_borrowed_str17ha23d97f2c0cd4a9fE, symObjAddr: 0x1208, symBinAddr: 0x38370, symSize: 0x28 }
  - { offset: 0x10FBB2, size: 0x8, addend: 0x0, symName: __ZN10serde_core2de7Visitor18visit_borrowed_str17hbe1265f93bfa5bb3E, symObjAddr: 0x1230, symBinAddr: 0x38398, symSize: 0x28 }
  - { offset: 0x10FC01, size: 0x8, addend: 0x0, symName: __ZN10serde_core2de7Visitor18visit_borrowed_str17hc6ac1b25078bb9bbE, symObjAddr: 0x1258, symBinAddr: 0x383C0, symSize: 0x28 }
  - { offset: 0x10FC50, size: 0x8, addend: 0x0, symName: __ZN10serde_core2de7Visitor18visit_borrowed_str17he8db0a1dbc139543E, symObjAddr: 0x1280, symBinAddr: 0x383E8, symSize: 0x28 }
  - { offset: 0x10FC9F, size: 0x8, addend: 0x0, symName: __ZN10serde_core2de7Visitor18visit_borrowed_str17hfef657e2120009b9E, symObjAddr: 0x12A8, symBinAddr: 0x38410, symSize: 0x28 }
  - { offset: 0x10FCEE, size: 0x8, addend: 0x0, symName: __ZN10serde_core2de7Visitor20visit_borrowed_bytes17h3621e5cbd27bcce3E, symObjAddr: 0x12D0, symBinAddr: 0x38438, symSize: 0x28 }
  - { offset: 0x10FD3D, size: 0x8, addend: 0x0, symName: __ZN10serde_core2de7Visitor20visit_borrowed_bytes17h4b4f93b85d74ae5aE, symObjAddr: 0x12F8, symBinAddr: 0x38460, symSize: 0x28 }
  - { offset: 0x10FD8C, size: 0x8, addend: 0x0, symName: __ZN10serde_core2de7Visitor20visit_borrowed_bytes17h4ed4052171151a2fE, symObjAddr: 0x1320, symBinAddr: 0x38488, symSize: 0x28 }
  - { offset: 0x10FDDB, size: 0x8, addend: 0x0, symName: __ZN10serde_core2de7Visitor20visit_borrowed_bytes17h635fad1851820868E, symObjAddr: 0x1348, symBinAddr: 0x384B0, symSize: 0x28 }
  - { offset: 0x10FE2A, size: 0x8, addend: 0x0, symName: __ZN10serde_core2de7Visitor20visit_borrowed_bytes17h656c50c1f0f035fbE, symObjAddr: 0x1370, symBinAddr: 0x384D8, symSize: 0x28 }
  - { offset: 0x10FE79, size: 0x8, addend: 0x0, symName: __ZN10serde_core2de7Visitor20visit_borrowed_bytes17h7086bb1025fefd9bE, symObjAddr: 0x1398, symBinAddr: 0x38500, symSize: 0x28 }
  - { offset: 0x10FEC8, size: 0x8, addend: 0x0, symName: __ZN10serde_core2de7Visitor20visit_borrowed_bytes17h73aa0bdcaa17b4b7E, symObjAddr: 0x13C0, symBinAddr: 0x38528, symSize: 0x28 }
  - { offset: 0x10FF17, size: 0x8, addend: 0x0, symName: __ZN10serde_core2de7Visitor20visit_borrowed_bytes17h7f1e08d7e88c94eeE, symObjAddr: 0x13E8, symBinAddr: 0x38550, symSize: 0x28 }
  - { offset: 0x10FF66, size: 0x8, addend: 0x0, symName: __ZN10serde_core2de7Visitor20visit_borrowed_bytes17ha3fe05ff6961c5a4E, symObjAddr: 0x1410, symBinAddr: 0x38578, symSize: 0x28 }
  - { offset: 0x10FFB5, size: 0x8, addend: 0x0, symName: __ZN10serde_core2de7Visitor20visit_borrowed_bytes17ha5ec340d0db09c2cE, symObjAddr: 0x1438, symBinAddr: 0x385A0, symSize: 0x28 }
  - { offset: 0x110004, size: 0x8, addend: 0x0, symName: __ZN10serde_core2de7Visitor20visit_borrowed_bytes17hb40e5e6849606ca8E, symObjAddr: 0x1460, symBinAddr: 0x385C8, symSize: 0x28 }
  - { offset: 0x110053, size: 0x8, addend: 0x0, symName: __ZN10serde_core2de7Visitor20visit_borrowed_bytes17hb53fad0b07550ac6E, symObjAddr: 0x1488, symBinAddr: 0x385F0, symSize: 0x28 }
  - { offset: 0x1100A2, size: 0x8, addend: 0x0, symName: __ZN10serde_core2de7Visitor20visit_borrowed_bytes17hd7727a0fcc84aaa6E, symObjAddr: 0x14B0, symBinAddr: 0x38618, symSize: 0x28 }
  - { offset: 0x1100F1, size: 0x8, addend: 0x0, symName: __ZN10serde_core2de7Visitor8visit_u817h18fe18a9bcd393ceE, symObjAddr: 0x14D8, symBinAddr: 0x38640, symSize: 0x28 }
  - { offset: 0x110140, size: 0x8, addend: 0x0, symName: __ZN10serde_core2de7Visitor8visit_u817h1932e6a6c0dabccfE, symObjAddr: 0x1500, symBinAddr: 0x38668, symSize: 0x28 }
  - { offset: 0x11018F, size: 0x8, addend: 0x0, symName: __ZN10serde_core2de7Visitor8visit_u817h2d877ded063126e4E, symObjAddr: 0x1528, symBinAddr: 0x38690, symSize: 0x28 }
  - { offset: 0x1101DE, size: 0x8, addend: 0x0, symName: __ZN10serde_core2de7Visitor8visit_u817h3624f172615aa351E, symObjAddr: 0x1550, symBinAddr: 0x386B8, symSize: 0x28 }
  - { offset: 0x11022D, size: 0x8, addend: 0x0, symName: __ZN10serde_core2de7Visitor8visit_u817h37b4a14b83b7457dE, symObjAddr: 0x1578, symBinAddr: 0x386E0, symSize: 0x28 }
  - { offset: 0x11027C, size: 0x8, addend: 0x0, symName: __ZN10serde_core2de7Visitor8visit_u817h4e07924b2cffc6fcE, symObjAddr: 0x15A0, symBinAddr: 0x38708, symSize: 0x28 }
  - { offset: 0x1102CB, size: 0x8, addend: 0x0, symName: __ZN10serde_core2de7Visitor8visit_u817h69b3984afd475ddaE, symObjAddr: 0x15C8, symBinAddr: 0x38730, symSize: 0x28 }
  - { offset: 0x11031A, size: 0x8, addend: 0x0, symName: __ZN10serde_core2de7Visitor8visit_u817h9f0bbc2b34b9ab9dE, symObjAddr: 0x15F0, symBinAddr: 0x38758, symSize: 0x28 }
  - { offset: 0x110369, size: 0x8, addend: 0x0, symName: __ZN10serde_core2de7Visitor8visit_u817hdeb4df3463215f87E, symObjAddr: 0x1618, symBinAddr: 0x38780, symSize: 0x28 }
  - { offset: 0x1103B8, size: 0x8, addend: 0x0, symName: __ZN10serde_core2de7Visitor8visit_u817hed66beaa873b5677E, symObjAddr: 0x1640, symBinAddr: 0x387A8, symSize: 0x28 }
  - { offset: 0x110407, size: 0x8, addend: 0x0, symName: __ZN10serde_core2de7Visitor8visit_u817hed76198be10cd0caE, symObjAddr: 0x1668, symBinAddr: 0x387D0, symSize: 0x28 }
  - { offset: 0x110456, size: 0x8, addend: 0x0, symName: __ZN10serde_core2de7Visitor8visit_u817heddaf943da013994E, symObjAddr: 0x1690, symBinAddr: 0x387F8, symSize: 0x28 }
  - { offset: 0x1104A5, size: 0x8, addend: 0x0, symName: __ZN10serde_core2de7Visitor8visit_u817hfc07fff06df32554E, symObjAddr: 0x16B8, symBinAddr: 0x38820, symSize: 0x28 }
  - { offset: 0x1104FA, size: 0x8, addend: 0x0, symName: '__ZN46_$LT$T$u20$as$u20$serde_core..de..Expected$GT$3fmt17h0fbf8e363dd441ccE', symObjAddr: 0x1462C, symBinAddr: 0x4B794, symSize: 0x2C }
  - { offset: 0x110540, size: 0x8, addend: 0x0, symName: '__ZN46_$LT$T$u20$as$u20$serde_core..de..Expected$GT$3fmt17h12aa5e48c77211f1E', symObjAddr: 0x14658, symBinAddr: 0x4B7C0, symSize: 0x2C }
  - { offset: 0x110586, size: 0x8, addend: 0x0, symName: '__ZN46_$LT$T$u20$as$u20$serde_core..de..Expected$GT$3fmt17h224b3eab00a28687E', symObjAddr: 0x14684, symBinAddr: 0x4B7EC, symSize: 0x2C }
  - { offset: 0x1105CC, size: 0x8, addend: 0x0, symName: '__ZN46_$LT$T$u20$as$u20$serde_core..de..Expected$GT$3fmt17h3f9de2579daab3bdE', symObjAddr: 0x146B0, symBinAddr: 0x4B818, symSize: 0x2C }
  - { offset: 0x110612, size: 0x8, addend: 0x0, symName: '__ZN46_$LT$T$u20$as$u20$serde_core..de..Expected$GT$3fmt17h49c75d24ce51b372E', symObjAddr: 0x146DC, symBinAddr: 0x4B844, symSize: 0x2C }
  - { offset: 0x110658, size: 0x8, addend: 0x0, symName: '__ZN46_$LT$T$u20$as$u20$serde_core..de..Expected$GT$3fmt17h57bc781fc5397ff4E', symObjAddr: 0x14708, symBinAddr: 0x4B870, symSize: 0x2C }
  - { offset: 0x11069E, size: 0x8, addend: 0x0, symName: '__ZN46_$LT$T$u20$as$u20$serde_core..de..Expected$GT$3fmt17h600edad6c4fde26eE', symObjAddr: 0x14734, symBinAddr: 0x4B89C, symSize: 0x2C }
  - { offset: 0x1106E4, size: 0x8, addend: 0x0, symName: '__ZN46_$LT$T$u20$as$u20$serde_core..de..Expected$GT$3fmt17h76b5424d595d8988E', symObjAddr: 0x14760, symBinAddr: 0x4B8C8, symSize: 0x2C }
  - { offset: 0x11072A, size: 0x8, addend: 0x0, symName: '__ZN46_$LT$T$u20$as$u20$serde_core..de..Expected$GT$3fmt17h7d9cb6f6f070eb03E', symObjAddr: 0x1478C, symBinAddr: 0x4B8F4, symSize: 0x2C }
  - { offset: 0x110770, size: 0x8, addend: 0x0, symName: '__ZN46_$LT$T$u20$as$u20$serde_core..de..Expected$GT$3fmt17h88d2be4c4c26538cE', symObjAddr: 0x147B8, symBinAddr: 0x4B920, symSize: 0x2C }
  - { offset: 0x1107B6, size: 0x8, addend: 0x0, symName: '__ZN46_$LT$T$u20$as$u20$serde_core..de..Expected$GT$3fmt17h8ad55a0b74920557E', symObjAddr: 0x147E4, symBinAddr: 0x4B94C, symSize: 0x2C }
  - { offset: 0x1107FC, size: 0x8, addend: 0x0, symName: '__ZN46_$LT$T$u20$as$u20$serde_core..de..Expected$GT$3fmt17ha4dd34d48018f7dcE', symObjAddr: 0x14810, symBinAddr: 0x4B978, symSize: 0x2C }
  - { offset: 0x110842, size: 0x8, addend: 0x0, symName: '__ZN46_$LT$T$u20$as$u20$serde_core..de..Expected$GT$3fmt17ha5db59772fb7b193E', symObjAddr: 0x1483C, symBinAddr: 0x4B9A4, symSize: 0x2C }
  - { offset: 0x110888, size: 0x8, addend: 0x0, symName: '__ZN46_$LT$T$u20$as$u20$serde_core..de..Expected$GT$3fmt17haf6a5b0577ce8dc2E', symObjAddr: 0x14868, symBinAddr: 0x4B9D0, symSize: 0x2C }
  - { offset: 0x1108CE, size: 0x8, addend: 0x0, symName: '__ZN46_$LT$T$u20$as$u20$serde_core..de..Expected$GT$3fmt17hbe0620d5c13c0cb9E', symObjAddr: 0x14894, symBinAddr: 0x4B9FC, symSize: 0x2C }
  - { offset: 0x110914, size: 0x8, addend: 0x0, symName: '__ZN46_$LT$T$u20$as$u20$serde_core..de..Expected$GT$3fmt17hc1faf22561dcac64E', symObjAddr: 0x148C0, symBinAddr: 0x4BA28, symSize: 0x2C }
  - { offset: 0x11095A, size: 0x8, addend: 0x0, symName: '__ZN46_$LT$T$u20$as$u20$serde_core..de..Expected$GT$3fmt17hc8d2878d19d80a7bE', symObjAddr: 0x148EC, symBinAddr: 0x4BA54, symSize: 0x2C }
  - { offset: 0x1109A0, size: 0x8, addend: 0x0, symName: '__ZN46_$LT$T$u20$as$u20$serde_core..de..Expected$GT$3fmt17hd3b6227888196cdfE', symObjAddr: 0x14918, symBinAddr: 0x4BA80, symSize: 0x2C }
  - { offset: 0x1109E6, size: 0x8, addend: 0x0, symName: '__ZN46_$LT$T$u20$as$u20$serde_core..de..Expected$GT$3fmt17hd65bf9b8e4b1cba4E', symObjAddr: 0x14944, symBinAddr: 0x4BAAC, symSize: 0x2C }
  - { offset: 0x110A2C, size: 0x8, addend: 0x0, symName: '__ZN46_$LT$T$u20$as$u20$serde_core..de..Expected$GT$3fmt17hdca46e1932341dc4E', symObjAddr: 0x14970, symBinAddr: 0x4BAD8, symSize: 0x2C }
  - { offset: 0x110A72, size: 0x8, addend: 0x0, symName: '__ZN46_$LT$T$u20$as$u20$serde_core..de..Expected$GT$3fmt17hddefcdf3a4081b2eE', symObjAddr: 0x1499C, symBinAddr: 0x4BB04, symSize: 0x2C }
  - { offset: 0x110AB8, size: 0x8, addend: 0x0, symName: '__ZN46_$LT$T$u20$as$u20$serde_core..de..Expected$GT$3fmt17he75c99aee1d9646cE', symObjAddr: 0x149C8, symBinAddr: 0x4BB30, symSize: 0x2C }
  - { offset: 0x110AFE, size: 0x8, addend: 0x0, symName: '__ZN46_$LT$T$u20$as$u20$serde_core..de..Expected$GT$3fmt17hf137caf612a9fc91E', symObjAddr: 0x149F4, symBinAddr: 0x4BB5C, symSize: 0x2C }
  - { offset: 0x110B44, size: 0x8, addend: 0x0, symName: '__ZN46_$LT$T$u20$as$u20$serde_core..de..Expected$GT$3fmt17hf2f2cb14fcdf9161E', symObjAddr: 0x14A20, symBinAddr: 0x4BB88, symSize: 0x2C }
  - { offset: 0x110B8A, size: 0x8, addend: 0x0, symName: '__ZN46_$LT$T$u20$as$u20$serde_core..de..Expected$GT$3fmt17hf63035bd8dd16c73E', symObjAddr: 0x14A4C, symBinAddr: 0x4BBB4, symSize: 0x2C }
  - { offset: 0x110BD0, size: 0x8, addend: 0x0, symName: '__ZN46_$LT$T$u20$as$u20$serde_core..de..Expected$GT$3fmt17hfbeac4f161bd05b7E', symObjAddr: 0x14A78, symBinAddr: 0x4BBE0, symSize: 0x2C }
  - { offset: 0x110C57, size: 0x8, addend: 0x0, symName: '__ZN10serde_core3ser5impls62_$LT$impl$u20$serde_core..ser..Serialize$u20$for$u20$$RF$T$GT$9serialize17h0574f49ce7881a04E', symObjAddr: 0x16E0, symBinAddr: 0x38848, symSize: 0x28 }
  - { offset: 0x110CA6, size: 0x8, addend: 0x0, symName: '__ZN10serde_core3ser5impls62_$LT$impl$u20$serde_core..ser..Serialize$u20$for$u20$$RF$T$GT$9serialize17h1ec13e43fa423e9dE', symObjAddr: 0x1708, symBinAddr: 0x38870, symSize: 0x28 }
  - { offset: 0x110CF5, size: 0x8, addend: 0x0, symName: '__ZN10serde_core3ser5impls62_$LT$impl$u20$serde_core..ser..Serialize$u20$for$u20$$RF$T$GT$9serialize17h376946ac7021f71fE', symObjAddr: 0x1730, symBinAddr: 0x38898, symSize: 0x28 }
  - { offset: 0x110D44, size: 0x8, addend: 0x0, symName: '__ZN10serde_core3ser5impls62_$LT$impl$u20$serde_core..ser..Serialize$u20$for$u20$$RF$T$GT$9serialize17h55efd295766bb94bE', symObjAddr: 0x1758, symBinAddr: 0x388C0, symSize: 0x28 }
  - { offset: 0x110D93, size: 0x8, addend: 0x0, symName: '__ZN10serde_core3ser5impls62_$LT$impl$u20$serde_core..ser..Serialize$u20$for$u20$$RF$T$GT$9serialize17h7bda5f61aef73aaaE', symObjAddr: 0x1780, symBinAddr: 0x388E8, symSize: 0x28 }
  - { offset: 0x110DE2, size: 0x8, addend: 0x0, symName: '__ZN10serde_core3ser5impls62_$LT$impl$u20$serde_core..ser..Serialize$u20$for$u20$$RF$T$GT$9serialize17h8b2805b70bcd9aaaE', symObjAddr: 0x17A8, symBinAddr: 0x38910, symSize: 0x28 }
  - { offset: 0x110E31, size: 0x8, addend: 0x0, symName: '__ZN10serde_core3ser5impls62_$LT$impl$u20$serde_core..ser..Serialize$u20$for$u20$$RF$T$GT$9serialize17hc08ad29e389d6b27E', symObjAddr: 0x17D0, symBinAddr: 0x38938, symSize: 0x28 }
  - { offset: 0x110E80, size: 0x8, addend: 0x0, symName: '__ZN10serde_core3ser5impls62_$LT$impl$u20$serde_core..ser..Serialize$u20$for$u20$$RF$T$GT$9serialize17hc29d133ca7cf8f62E', symObjAddr: 0x17F8, symBinAddr: 0x38960, symSize: 0x28 }
  - { offset: 0x110ECF, size: 0x8, addend: 0x0, symName: '__ZN10serde_core3ser5impls62_$LT$impl$u20$serde_core..ser..Serialize$u20$for$u20$$RF$T$GT$9serialize17hed2c9ecd5fce1b28E', symObjAddr: 0x1820, symBinAddr: 0x38988, symSize: 0x28 }
  - { offset: 0x110F1E, size: 0x8, addend: 0x0, symName: '__ZN10serde_core3ser5impls62_$LT$impl$u20$serde_core..ser..Serialize$u20$for$u20$$RF$T$GT$9serialize17heee48cbe8e62a07aE', symObjAddr: 0x1848, symBinAddr: 0x389B0, symSize: 0x28 }
  - { offset: 0x1145FC, size: 0x8, addend: 0x0, symName: __ZN4core9ub_checks23maybe_is_nonoverlapping7runtime17h608c2333857a5702E, symObjAddr: 0x0, symBinAddr: 0x51998, symSize: 0xD8 }
  - { offset: 0x114781, size: 0x8, addend: 0x0, symName: __ZN4core9ub_checks23maybe_is_nonoverlapping7runtime17h608c2333857a5702E, symObjAddr: 0x0, symBinAddr: 0x51998, symSize: 0xD8 }
  - { offset: 0x114994, size: 0x8, addend: 0x0, symName: '__ZN10serde_core2de5impls60_$LT$impl$u20$serde_core..de..Deserialize$u20$for$u20$u8$GT$11deserialize17h7889402128558623E', symObjAddr: 0x0, symBinAddr: 0x51A70, symSize: 0x14 }
  - { offset: 0x1149E2, size: 0x8, addend: 0x0, symName: '__ZN160_$LT$serde_core..de..impls..$LT$impl$u20$serde_core..de..Deserialize$u20$for$u20$usize$GT$..deserialize..PrimitiveVisitor$u20$as$u20$serde_core..de..Visitor$GT$8visit_i817hb1ade73c52f0485eE', symObjAddr: 0x610, symBinAddr: 0x52080, symSize: 0xAC }
  - { offset: 0x114A52, size: 0x8, addend: 0x0, symName: '__ZN160_$LT$serde_core..de..impls..$LT$impl$u20$serde_core..de..Deserialize$u20$for$u20$usize$GT$..deserialize..PrimitiveVisitor$u20$as$u20$serde_core..de..Visitor$GT$8visit_u817hd62dfff8befc9501E', symObjAddr: 0x6BC, symBinAddr: 0x5212C, symSize: 0x1C }
  - { offset: 0x114AA0, size: 0x8, addend: 0x0, symName: '__ZN160_$LT$serde_core..de..impls..$LT$impl$u20$serde_core..de..Deserialize$u20$for$u20$usize$GT$..deserialize..PrimitiveVisitor$u20$as$u20$serde_core..de..Visitor$GT$9visit_i1617h4fbdfa1aa1e134a4E', symObjAddr: 0x6D8, symBinAddr: 0x52148, symSize: 0xAC }
  - { offset: 0x114B10, size: 0x8, addend: 0x0, symName: '__ZN160_$LT$serde_core..de..impls..$LT$impl$u20$serde_core..de..Deserialize$u20$for$u20$usize$GT$..deserialize..PrimitiveVisitor$u20$as$u20$serde_core..de..Visitor$GT$9visit_i3217h17d31d948e623643E', symObjAddr: 0x784, symBinAddr: 0x521F4, symSize: 0xAC }
  - { offset: 0x114B80, size: 0x8, addend: 0x0, symName: '__ZN160_$LT$serde_core..de..impls..$LT$impl$u20$serde_core..de..Deserialize$u20$for$u20$usize$GT$..deserialize..PrimitiveVisitor$u20$as$u20$serde_core..de..Visitor$GT$9visit_i6417h2d2ef1ebe8dc28faE', symObjAddr: 0x830, symBinAddr: 0x522A0, symSize: 0x9C }
  - { offset: 0x114BF0, size: 0x8, addend: 0x0, symName: '__ZN160_$LT$serde_core..de..impls..$LT$impl$u20$serde_core..de..Deserialize$u20$for$u20$usize$GT$..deserialize..PrimitiveVisitor$u20$as$u20$serde_core..de..Visitor$GT$9visit_u1617hd9bb07d9c6c88146E', symObjAddr: 0x8CC, symBinAddr: 0x5233C, symSize: 0x1C }
  - { offset: 0x114C3E, size: 0x8, addend: 0x0, symName: '__ZN160_$LT$serde_core..de..impls..$LT$impl$u20$serde_core..de..Deserialize$u20$for$u20$usize$GT$..deserialize..PrimitiveVisitor$u20$as$u20$serde_core..de..Visitor$GT$9visit_u3217hcc72650b4d9ced44E', symObjAddr: 0x8E8, symBinAddr: 0x52358, symSize: 0x3C }
  - { offset: 0x114C95, size: 0x8, addend: 0x0, symName: '__ZN160_$LT$serde_core..de..impls..$LT$impl$u20$serde_core..de..Deserialize$u20$for$u20$usize$GT$..deserialize..PrimitiveVisitor$u20$as$u20$serde_core..de..Visitor$GT$9visit_u3228_$u7b$$u7b$closure$u7d$$u7d$17hb5e1e2b723e4acffE', symObjAddr: 0x924, symBinAddr: 0x52394, symSize: 0x48 }
  - { offset: 0x114CEA, size: 0x8, addend: 0x0, symName: '__ZN160_$LT$serde_core..de..impls..$LT$impl$u20$serde_core..de..Deserialize$u20$for$u20$usize$GT$..deserialize..PrimitiveVisitor$u20$as$u20$serde_core..de..Visitor$GT$9visit_u6417h4fb3d9ddda63bf53E', symObjAddr: 0x96C, symBinAddr: 0x523DC, symSize: 0x38 }
  - { offset: 0x114D41, size: 0x8, addend: 0x0, symName: '__ZN160_$LT$serde_core..de..impls..$LT$impl$u20$serde_core..de..Deserialize$u20$for$u20$usize$GT$..deserialize..PrimitiveVisitor$u20$as$u20$serde_core..de..Visitor$GT$9visit_u6428_$u7b$$u7b$closure$u7d$$u7d$17he3a46c1bf52d10a5E', symObjAddr: 0x9A4, symBinAddr: 0x52414, symSize: 0x48 }
  - { offset: 0x114D98, size: 0x8, addend: 0x0, symName: '__ZN10serde_core2de5impls63_$LT$impl$u20$serde_core..de..Deserialize$u20$for$u20$usize$GT$11deserialize17h36eef9b38a266b4bE', symObjAddr: 0x88, symBinAddr: 0x51AF8, symSize: 0x14 }
  - { offset: 0x114DCE, size: 0x8, addend: 0x0, symName: '__ZN10serde_core2de5impls63_$LT$impl$u20$serde_core..de..Deserialize$u20$for$u20$usize$GT$11deserialize17h58371e8a40a2c6dfE', symObjAddr: 0x9C, symBinAddr: 0x51B0C, symSize: 0x24 }
  - { offset: 0x114E03, size: 0x8, addend: 0x0, symName: '__ZN10serde_core2de5impls63_$LT$impl$u20$serde_core..de..Deserialize$u20$for$u20$usize$GT$11deserialize17h7775b119961ecbeeE', symObjAddr: 0xC0, symBinAddr: 0x51B30, symSize: 0x14 }
  - { offset: 0x114E39, size: 0x8, addend: 0x0, symName: '__ZN10serde_core2de5impls63_$LT$impl$u20$serde_core..de..Deserialize$u20$for$u20$usize$GT$11deserialize17hd2a191025f89aacfE', symObjAddr: 0xD4, symBinAddr: 0x51B44, symSize: 0x28 }
  - { offset: 0x114E86, size: 0x8, addend: 0x0, symName: '__ZN157_$LT$serde_core..de..impls..$LT$impl$u20$serde_core..de..Deserialize$u20$for$u20$u8$GT$..deserialize..PrimitiveVisitor$u20$as$u20$serde_core..de..Visitor$GT$8visit_i817h7c538e6dc2f3c6c0E', symObjAddr: 0x18C, symBinAddr: 0x51BFC, symSize: 0xB4 }
  - { offset: 0x114EF6, size: 0x8, addend: 0x0, symName: '__ZN157_$LT$serde_core..de..impls..$LT$impl$u20$serde_core..de..Deserialize$u20$for$u20$u8$GT$..deserialize..PrimitiveVisitor$u20$as$u20$serde_core..de..Visitor$GT$8visit_u817hf7908a3b23d12ff9E', symObjAddr: 0x240, symBinAddr: 0x51CB0, symSize: 0x18 }
  - { offset: 0x114F44, size: 0x8, addend: 0x0, symName: '__ZN157_$LT$serde_core..de..impls..$LT$impl$u20$serde_core..de..Deserialize$u20$for$u20$u8$GT$..deserialize..PrimitiveVisitor$u20$as$u20$serde_core..de..Visitor$GT$9visit_i1617h7f84f1207219597cE', symObjAddr: 0x258, symBinAddr: 0x51CC8, symSize: 0xB4 }
  - { offset: 0x114FB4, size: 0x8, addend: 0x0, symName: '__ZN157_$LT$serde_core..de..impls..$LT$impl$u20$serde_core..de..Deserialize$u20$for$u20$u8$GT$..deserialize..PrimitiveVisitor$u20$as$u20$serde_core..de..Visitor$GT$9visit_i3217hf7a5a7f07aca46f2E', symObjAddr: 0x30C, symBinAddr: 0x51D7C, symSize: 0xB4 }
  - { offset: 0x115024, size: 0x8, addend: 0x0, symName: '__ZN157_$LT$serde_core..de..impls..$LT$impl$u20$serde_core..de..Deserialize$u20$for$u20$u8$GT$..deserialize..PrimitiveVisitor$u20$as$u20$serde_core..de..Visitor$GT$9visit_i6417h34df18e6dda7f7f3E', symObjAddr: 0x3C0, symBinAddr: 0x51E30, symSize: 0xA4 }
  - { offset: 0x115094, size: 0x8, addend: 0x0, symName: '__ZN157_$LT$serde_core..de..impls..$LT$impl$u20$serde_core..de..Deserialize$u20$for$u20$u8$GT$..deserialize..PrimitiveVisitor$u20$as$u20$serde_core..de..Visitor$GT$9visit_u1617h0b5196f26afc5edeE', symObjAddr: 0x464, symBinAddr: 0x51ED4, symSize: 0x48 }
  - { offset: 0x1150EB, size: 0x8, addend: 0x0, symName: '__ZN157_$LT$serde_core..de..impls..$LT$impl$u20$serde_core..de..Deserialize$u20$for$u20$u8$GT$..deserialize..PrimitiveVisitor$u20$as$u20$serde_core..de..Visitor$GT$9visit_u1628_$u7b$$u7b$closure$u7d$$u7d$17h19adc47fab33c99eE', symObjAddr: 0x4AC, symBinAddr: 0x51F1C, symSize: 0x48 }
  - { offset: 0x115140, size: 0x8, addend: 0x0, symName: '__ZN157_$LT$serde_core..de..impls..$LT$impl$u20$serde_core..de..Deserialize$u20$for$u20$u8$GT$..deserialize..PrimitiveVisitor$u20$as$u20$serde_core..de..Visitor$GT$9visit_u3217h317cef2e75b4a9e6E', symObjAddr: 0x4F4, symBinAddr: 0x51F64, symSize: 0x48 }
  - { offset: 0x115197, size: 0x8, addend: 0x0, symName: '__ZN157_$LT$serde_core..de..impls..$LT$impl$u20$serde_core..de..Deserialize$u20$for$u20$u8$GT$..deserialize..PrimitiveVisitor$u20$as$u20$serde_core..de..Visitor$GT$9visit_u3228_$u7b$$u7b$closure$u7d$$u7d$17h78f08a91cdb4aa36E', symObjAddr: 0x53C, symBinAddr: 0x51FAC, symSize: 0x48 }
  - { offset: 0x1151EC, size: 0x8, addend: 0x0, symName: '__ZN157_$LT$serde_core..de..impls..$LT$impl$u20$serde_core..de..Deserialize$u20$for$u20$u8$GT$..deserialize..PrimitiveVisitor$u20$as$u20$serde_core..de..Visitor$GT$9visit_u6417h9ecb4ade6a7d4aceE', symObjAddr: 0x584, symBinAddr: 0x51FF4, symSize: 0x44 }
  - { offset: 0x115243, size: 0x8, addend: 0x0, symName: '__ZN157_$LT$serde_core..de..impls..$LT$impl$u20$serde_core..de..Deserialize$u20$for$u20$u8$GT$..deserialize..PrimitiveVisitor$u20$as$u20$serde_core..de..Visitor$GT$9visit_u6428_$u7b$$u7b$closure$u7d$$u7d$17h28c2bc4be0261ee5E', symObjAddr: 0x5C8, symBinAddr: 0x52038, symSize: 0x48 }
  - { offset: 0x11529A, size: 0x8, addend: 0x0, symName: '__ZN10serde_core2de5impls60_$LT$impl$u20$serde_core..de..Deserialize$u20$for$u20$u8$GT$11deserialize17h7889402128558623E', symObjAddr: 0x0, symBinAddr: 0x51A70, symSize: 0x14 }
  - { offset: 0x1152DE, size: 0x8, addend: 0x0, symName: '__ZN10serde_core2de5impls62_$LT$impl$u20$serde_core..de..Deserialize$u20$for$u20$bool$GT$11deserialize17h249f67d65c98cba8E', symObjAddr: 0x14, symBinAddr: 0x51A84, symSize: 0x14 }
  - { offset: 0x115314, size: 0x8, addend: 0x0, symName: '__ZN10serde_core2de5impls62_$LT$impl$u20$serde_core..de..Deserialize$u20$for$u20$bool$GT$11deserialize17h69e05a434dbcfebbE', symObjAddr: 0x28, symBinAddr: 0x51A98, symSize: 0x24 }
  - { offset: 0x115349, size: 0x8, addend: 0x0, symName: '__ZN10serde_core2de5impls62_$LT$impl$u20$serde_core..de..Deserialize$u20$for$u20$bool$GT$11deserialize17ha810154e8ebd9d61E', symObjAddr: 0x4C, symBinAddr: 0x51ABC, symSize: 0x28 }
  - { offset: 0x11537E, size: 0x8, addend: 0x0, symName: '__ZN10serde_core2de5impls62_$LT$impl$u20$serde_core..de..Deserialize$u20$for$u20$bool$GT$11deserialize17hdf1dc2a2fed72d91E', symObjAddr: 0x74, symBinAddr: 0x51AE4, symSize: 0x14 }
  - { offset: 0x1153C4, size: 0x8, addend: 0x0, symName: '__ZN182_$LT$serde_core..de..impls..$LT$impl$u20$serde_core..de..Deserialize$u20$for$u20$alloc..vec..Vec$LT$T$GT$$GT$..deserialize..VecVisitor$LT$T$GT$$u20$as$u20$serde_core..de..Visitor$GT$9expecting17h34b4f7e35898fcfdE', symObjAddr: 0x9EC, symBinAddr: 0x5245C, symSize: 0x40 }
  - { offset: 0x11540A, size: 0x8, addend: 0x0, symName: '__ZN182_$LT$serde_core..de..impls..$LT$impl$u20$serde_core..de..Deserialize$u20$for$u20$alloc..vec..Vec$LT$T$GT$$GT$..deserialize..VecVisitor$LT$T$GT$$u20$as$u20$serde_core..de..Visitor$GT$9expecting17h87a76683f77945c1E', symObjAddr: 0xA2C, symBinAddr: 0x5249C, symSize: 0x40 }
  - { offset: 0x115450, size: 0x8, addend: 0x0, symName: '__ZN182_$LT$serde_core..de..impls..$LT$impl$u20$serde_core..de..Deserialize$u20$for$u20$alloc..vec..Vec$LT$T$GT$$GT$..deserialize..VecVisitor$LT$T$GT$$u20$as$u20$serde_core..de..Visitor$GT$9expecting17h8c334bb15107d07eE', symObjAddr: 0xA6C, symBinAddr: 0x524DC, symSize: 0x40 }
  - { offset: 0x115496, size: 0x8, addend: 0x0, symName: '__ZN182_$LT$serde_core..de..impls..$LT$impl$u20$serde_core..de..Deserialize$u20$for$u20$alloc..vec..Vec$LT$T$GT$$GT$..deserialize..VecVisitor$LT$T$GT$$u20$as$u20$serde_core..de..Visitor$GT$9expecting17hd59ecfe0875d8e6eE', symObjAddr: 0xAAC, symBinAddr: 0x5251C, symSize: 0x40 }
  - { offset: 0x1154DC, size: 0x8, addend: 0x0, symName: '__ZN182_$LT$serde_core..de..impls..$LT$impl$u20$serde_core..de..Deserialize$u20$for$u20$alloc..vec..Vec$LT$T$GT$$GT$..deserialize..VecVisitor$LT$T$GT$$u20$as$u20$serde_core..de..Visitor$GT$9visit_seq17h06044b2acb6c347eE', symObjAddr: 0xAEC, symBinAddr: 0x5255C, symSize: 0x180 }
  - { offset: 0x115597, size: 0x8, addend: 0x0, symName: '__ZN182_$LT$serde_core..de..impls..$LT$impl$u20$serde_core..de..Deserialize$u20$for$u20$alloc..vec..Vec$LT$T$GT$$GT$..deserialize..VecVisitor$LT$T$GT$$u20$as$u20$serde_core..de..Visitor$GT$9visit_seq17h138ccbe96593adf5E', symObjAddr: 0xC6C, symBinAddr: 0x526DC, symSize: 0x15C }
  - { offset: 0x115652, size: 0x8, addend: 0x0, symName: '__ZN182_$LT$serde_core..de..impls..$LT$impl$u20$serde_core..de..Deserialize$u20$for$u20$alloc..vec..Vec$LT$T$GT$$GT$..deserialize..VecVisitor$LT$T$GT$$u20$as$u20$serde_core..de..Visitor$GT$9visit_seq17h5225dccddab00010E', symObjAddr: 0xDC8, symBinAddr: 0x52838, symSize: 0x164 }
  - { offset: 0x11570D, size: 0x8, addend: 0x0, symName: '__ZN182_$LT$serde_core..de..impls..$LT$impl$u20$serde_core..de..Deserialize$u20$for$u20$alloc..vec..Vec$LT$T$GT$$GT$..deserialize..VecVisitor$LT$T$GT$$u20$as$u20$serde_core..de..Visitor$GT$9visit_seq17hcddf64f8a6f43912E', symObjAddr: 0xF2C, symBinAddr: 0x5299C, symSize: 0x178 }
  - { offset: 0x1157C8, size: 0x8, addend: 0x0, symName: '__ZN182_$LT$serde_core..de..impls..$LT$impl$u20$serde_core..de..Deserialize$u20$for$u20$alloc..vec..Vec$LT$T$GT$$GT$..deserialize..VecVisitor$LT$T$GT$$u20$as$u20$serde_core..de..Visitor$GT$9visit_seq17hd482a4a56e2ba250E', symObjAddr: 0x10A4, symBinAddr: 0x52B14, symSize: 0x180 }
  - { offset: 0x11590D, size: 0x8, addend: 0x0, symName: '__ZN219_$LT$serde_core..de..impls..$LT$impl$u20$serde_core..de..Deserialize$u20$for$u20$std..collections..hash..map..HashMap$LT$K$C$V$C$S$GT$$GT$..deserialize..MapVisitor$LT$K$C$V$C$S$GT$$u20$as$u20$serde_core..de..Visitor$GT$9expecting17h037c63f2aa6f73eaE', symObjAddr: 0x1224, symBinAddr: 0x52C94, symSize: 0x40 }
  - { offset: 0x115965, size: 0x8, addend: 0x0, symName: '__ZN219_$LT$serde_core..de..impls..$LT$impl$u20$serde_core..de..Deserialize$u20$for$u20$std..collections..hash..map..HashMap$LT$K$C$V$C$S$GT$$GT$..deserialize..MapVisitor$LT$K$C$V$C$S$GT$$u20$as$u20$serde_core..de..Visitor$GT$9expecting17h3e8529f6149e4c72E', symObjAddr: 0x1264, symBinAddr: 0x52CD4, symSize: 0x40 }
  - { offset: 0x1159BD, size: 0x8, addend: 0x0, symName: '__ZN219_$LT$serde_core..de..impls..$LT$impl$u20$serde_core..de..Deserialize$u20$for$u20$std..collections..hash..map..HashMap$LT$K$C$V$C$S$GT$$GT$..deserialize..MapVisitor$LT$K$C$V$C$S$GT$$u20$as$u20$serde_core..de..Visitor$GT$9visit_map17hcb287f4464b7c468E', symObjAddr: 0x12A4, symBinAddr: 0x52D14, symSize: 0x1C8 }
  - { offset: 0x115A87, size: 0x8, addend: 0x0, symName: '__ZN219_$LT$serde_core..de..impls..$LT$impl$u20$serde_core..de..Deserialize$u20$for$u20$std..collections..hash..map..HashMap$LT$K$C$V$C$S$GT$$GT$..deserialize..MapVisitor$LT$K$C$V$C$S$GT$$u20$as$u20$serde_core..de..Visitor$GT$9visit_map17he7c5cae37426c620E', symObjAddr: 0x146C, symBinAddr: 0x52EDC, symSize: 0x1C8 }
  - { offset: 0x115BB9, size: 0x8, addend: 0x0, symName: '__ZN78_$LT$serde_core..de..impls..BoolVisitor$u20$as$u20$serde_core..de..Visitor$GT$10visit_bool17heb9218317d87f9a7E', symObjAddr: 0x17EC, symBinAddr: 0x5325C, symSize: 0x18 }
  - { offset: 0x115C0D, size: 0x8, addend: 0x0, symName: '__ZN80_$LT$serde_core..de..impls..StringVisitor$u20$as$u20$serde_core..de..Visitor$GT$11visit_bytes17h1255fc51b3d23882E', symObjAddr: 0x1804, symBinAddr: 0x53274, symSize: 0xB4 }
  - { offset: 0x115C7D, size: 0x8, addend: 0x0, symName: '__ZN80_$LT$serde_core..de..impls..StringVisitor$u20$as$u20$serde_core..de..Visitor$GT$12visit_string17h611a5dab4e67a18aE', symObjAddr: 0x18B8, symBinAddr: 0x53328, symSize: 0x20 }
  - { offset: 0x115CCF, size: 0x8, addend: 0x0, symName: '__ZN80_$LT$serde_core..de..impls..StringVisitor$u20$as$u20$serde_core..de..Visitor$GT$14visit_byte_buf17h5620581efe2edf13E', symObjAddr: 0x18D8, symBinAddr: 0x53348, symSize: 0x13C }
  - { offset: 0x115D59, size: 0x8, addend: 0x0, symName: '__ZN80_$LT$serde_core..de..impls..StringVisitor$u20$as$u20$serde_core..de..Visitor$GT$9visit_str17hd4f84123229d1109E', symObjAddr: 0x1A14, symBinAddr: 0x53484, symSize: 0x44 }
  - { offset: 0x115DB1, size: 0x8, addend: 0x0, symName: '__ZN89_$LT$serde_core..de..impls..OptionVisitor$LT$T$GT$$u20$as$u20$serde_core..de..Visitor$GT$10visit_none17h36139aba43c99cd9E', symObjAddr: 0x1A58, symBinAddr: 0x534C8, symSize: 0x28 }
  - { offset: 0x115DFD, size: 0x8, addend: 0x0, symName: '__ZN89_$LT$serde_core..de..impls..OptionVisitor$LT$T$GT$$u20$as$u20$serde_core..de..Visitor$GT$10visit_none17h3d4cc5cdf921e392E', symObjAddr: 0x1A80, symBinAddr: 0x534F0, symSize: 0x28 }
  - { offset: 0x115E49, size: 0x8, addend: 0x0, symName: '__ZN89_$LT$serde_core..de..impls..OptionVisitor$LT$T$GT$$u20$as$u20$serde_core..de..Visitor$GT$10visit_none17h7d6d02fed9496344E', symObjAddr: 0x1AA8, symBinAddr: 0x53518, symSize: 0x24 }
  - { offset: 0x115E95, size: 0x8, addend: 0x0, symName: '__ZN89_$LT$serde_core..de..impls..OptionVisitor$LT$T$GT$$u20$as$u20$serde_core..de..Visitor$GT$10visit_none17hd099b52eec7ded11E', symObjAddr: 0x1ACC, symBinAddr: 0x5353C, symSize: 0x18 }
  - { offset: 0x115EE1, size: 0x8, addend: 0x0, symName: '__ZN89_$LT$serde_core..de..impls..OptionVisitor$LT$T$GT$$u20$as$u20$serde_core..de..Visitor$GT$10visit_none17hee3a7c6bb6b8ce92E', symObjAddr: 0x1AE4, symBinAddr: 0x53554, symSize: 0x18 }
  - { offset: 0x115F2D, size: 0x8, addend: 0x0, symName: '__ZN89_$LT$serde_core..de..impls..OptionVisitor$LT$T$GT$$u20$as$u20$serde_core..de..Visitor$GT$10visit_some17h2ac0785533642475E', symObjAddr: 0x1AFC, symBinAddr: 0x5356C, symSize: 0x34 }
  - { offset: 0x115F89, size: 0x8, addend: 0x0, symName: '__ZN89_$LT$serde_core..de..impls..OptionVisitor$LT$T$GT$$u20$as$u20$serde_core..de..Visitor$GT$10visit_some17h54b88f26feac9f51E', symObjAddr: 0x1B30, symBinAddr: 0x535A0, symSize: 0x34 }
  - { offset: 0x115FE5, size: 0x8, addend: 0x0, symName: '__ZN89_$LT$serde_core..de..impls..OptionVisitor$LT$T$GT$$u20$as$u20$serde_core..de..Visitor$GT$10visit_some17h78d9a3d8aa695538E', symObjAddr: 0x1B64, symBinAddr: 0x535D4, symSize: 0x34 }
  - { offset: 0x116041, size: 0x8, addend: 0x0, symName: '__ZN89_$LT$serde_core..de..impls..OptionVisitor$LT$T$GT$$u20$as$u20$serde_core..de..Visitor$GT$10visit_some17h9771b66eb93c5d8fE', symObjAddr: 0x1B98, symBinAddr: 0x53608, symSize: 0x34 }
  - { offset: 0x11609D, size: 0x8, addend: 0x0, symName: '__ZN89_$LT$serde_core..de..impls..OptionVisitor$LT$T$GT$$u20$as$u20$serde_core..de..Visitor$GT$10visit_some17hae044ee2473d7b3bE', symObjAddr: 0x1BCC, symBinAddr: 0x5363C, symSize: 0x34 }
  - { offset: 0x1160F9, size: 0x8, addend: 0x0, symName: '__ZN89_$LT$serde_core..de..impls..OptionVisitor$LT$T$GT$$u20$as$u20$serde_core..de..Visitor$GT$10visit_some17hd6f5c53481450e31E', symObjAddr: 0x1C00, symBinAddr: 0x53670, symSize: 0x34 }
  - { offset: 0x116155, size: 0x8, addend: 0x0, symName: '__ZN89_$LT$serde_core..de..impls..OptionVisitor$LT$T$GT$$u20$as$u20$serde_core..de..Visitor$GT$10visit_unit17h81d0f02366346dedE', symObjAddr: 0x1C34, symBinAddr: 0x536A4, symSize: 0x18 }
  - { offset: 0x1161A1, size: 0x8, addend: 0x0, symName: '__ZN89_$LT$serde_core..de..impls..OptionVisitor$LT$T$GT$$u20$as$u20$serde_core..de..Visitor$GT$10visit_unit17haf014bcb05e367ccE', symObjAddr: 0x1C4C, symBinAddr: 0x536BC, symSize: 0x18 }
  - { offset: 0x1161ED, size: 0x8, addend: 0x0, symName: '__ZN89_$LT$serde_core..de..impls..OptionVisitor$LT$T$GT$$u20$as$u20$serde_core..de..Visitor$GT$10visit_unit17hf35df19fb8e47124E', symObjAddr: 0x1C64, symBinAddr: 0x536D4, symSize: 0x28 }
  - { offset: 0x1162DE, size: 0x8, addend: 0x0, symName: __ZN10serde_core2de7Visitor20visit_borrowed_bytes17h3ea0e311ea99d365E, symObjAddr: 0xFC, symBinAddr: 0x51B6C, symSize: 0x28 }
  - { offset: 0x11632D, size: 0x8, addend: 0x0, symName: __ZN10serde_core2de7Visitor9visit_f6417hbe19b6dd1d619bf7E, symObjAddr: 0x124, symBinAddr: 0x51B94, symSize: 0x68 }
  - { offset: 0x116382, size: 0x8, addend: 0x0, symName: '__ZN46_$LT$T$u20$as$u20$serde_core..de..Expected$GT$3fmt17h0d7d92b13d9ee6b3E', symObjAddr: 0x1634, symBinAddr: 0x530A4, symSize: 0x2C }
  - { offset: 0x1163C8, size: 0x8, addend: 0x0, symName: '__ZN46_$LT$T$u20$as$u20$serde_core..de..Expected$GT$3fmt17h31c21e0042bd56a4E', symObjAddr: 0x1660, symBinAddr: 0x530D0, symSize: 0x2C }
  - { offset: 0x11640E, size: 0x8, addend: 0x0, symName: '__ZN46_$LT$T$u20$as$u20$serde_core..de..Expected$GT$3fmt17h3331f001663a3e3fE', symObjAddr: 0x168C, symBinAddr: 0x530FC, symSize: 0x2C }
  - { offset: 0x116454, size: 0x8, addend: 0x0, symName: '__ZN46_$LT$T$u20$as$u20$serde_core..de..Expected$GT$3fmt17h34445af0d25be879E', symObjAddr: 0x16B8, symBinAddr: 0x53128, symSize: 0x2C }
  - { offset: 0x11649A, size: 0x8, addend: 0x0, symName: '__ZN46_$LT$T$u20$as$u20$serde_core..de..Expected$GT$3fmt17h3476a0c656fc28cbE', symObjAddr: 0x16E4, symBinAddr: 0x53154, symSize: 0x2C }
  - { offset: 0x1164E0, size: 0x8, addend: 0x0, symName: '__ZN46_$LT$T$u20$as$u20$serde_core..de..Expected$GT$3fmt17h3b67697d4f9ce677E', symObjAddr: 0x1710, symBinAddr: 0x53180, symSize: 0x2C }
  - { offset: 0x116526, size: 0x8, addend: 0x0, symName: '__ZN46_$LT$T$u20$as$u20$serde_core..de..Expected$GT$3fmt17h71aa743cbd5c12cdE', symObjAddr: 0x173C, symBinAddr: 0x531AC, symSize: 0x2C }
  - { offset: 0x11656C, size: 0x8, addend: 0x0, symName: '__ZN46_$LT$T$u20$as$u20$serde_core..de..Expected$GT$3fmt17h7f44f280e2d2d703E', symObjAddr: 0x1768, symBinAddr: 0x531D8, symSize: 0x2C }
  - { offset: 0x1165B2, size: 0x8, addend: 0x0, symName: '__ZN46_$LT$T$u20$as$u20$serde_core..de..Expected$GT$3fmt17h98959ec392fac982E', symObjAddr: 0x1794, symBinAddr: 0x53204, symSize: 0x2C }
  - { offset: 0x1165F8, size: 0x8, addend: 0x0, symName: '__ZN46_$LT$T$u20$as$u20$serde_core..de..Expected$GT$3fmt17hc9d2f7dccc74fa4fE', symObjAddr: 0x17C0, symBinAddr: 0x53230, symSize: 0x2C }
  - { offset: 0x11B344, size: 0x8, addend: 0x0, symName: '__ZN5alloc3str56_$LT$impl$u20$alloc..borrow..ToOwned$u20$for$u20$str$GT$8to_owned17h04ea4ef105570e49E', symObjAddr: 0x0, symBinAddr: 0x536FC, symSize: 0x50 }
  - { offset: 0x11B5FA, size: 0x8, addend: 0x0, symName: '__ZN5alloc3str56_$LT$impl$u20$alloc..borrow..ToOwned$u20$for$u20$str$GT$8to_owned17h04ea4ef105570e49E', symObjAddr: 0x0, symBinAddr: 0x536FC, symSize: 0x50 }
  - { offset: 0x11B702, size: 0x8, addend: 0x0, symName: '__ZN104_$LT$core..iter..adapters..copied..Copied$LT$I$GT$$u20$as$u20$core..iter..traits..iterator..Iterator$GT$4next17hb1843321e05859d4E', symObjAddr: 0x0, symBinAddr: 0x5374C, symSize: 0x5C }
  - { offset: 0x11C9B3, size: 0x8, addend: 0x0, symName: '__ZN104_$LT$core..iter..adapters..copied..Copied$LT$I$GT$$u20$as$u20$core..iter..traits..iterator..Iterator$GT$4next17hb1843321e05859d4E', symObjAddr: 0x0, symBinAddr: 0x5374C, symSize: 0x5C }
  - { offset: 0x11CA58, size: 0x8, addend: 0x0, symName: '__ZN63_$LT$I$u20$as$u20$core..iter..traits..collect..IntoIterator$GT$9into_iter17h0a13516d0a48cbf2E', symObjAddr: 0x5C, symBinAddr: 0x537A8, symSize: 0x1C }
  - { offset: 0x11D0F6, size: 0x8, addend: 0x0, symName: __ZN4pyo35impl_5panic9PanicTrap3new17h19e6111adcbe096fE, symObjAddr: 0x0, symBinAddr: 0x537C4, symSize: 0x18 }
  - { offset: 0x11D185, size: 0x8, addend: 0x0, symName: __ZN4pyo35impl_5panic9PanicTrap3new17h19e6111adcbe096fE, symObjAddr: 0x0, symBinAddr: 0x537C4, symSize: 0x18 }
  - { offset: 0x11D1A7, size: 0x8, addend: 0x0, symName: __ZN4pyo35impl_5panic9PanicTrap6disarm17h0436bcf191136ad0E, symObjAddr: 0x18, symBinAddr: 0x537DC, symSize: 0x28 }
  - { offset: 0x11D1FF, size: 0x8, addend: 0x0, symName: __ZN4_rdx5parse9_PYO3_DEF17h6d84275c9987198fE, symObjAddr: 0x58, symBinAddr: 0x3A4568, symSize: 0x0 }
  - { offset: 0x11E78B, size: 0x8, addend: 0x0, symName: '__ZN100_$LT$serde..private..de..content..TagOrContentVisitor$u20$as$u20$serde_core..de..DeserializeSeed$GT$11deserialize17ha39e2f0f9b9fedcdE', symObjAddr: 0x0, symBinAddr: 0x53804, symSize: 0x40 }
  - { offset: 0x11E8C0, size: 0x8, addend: 0x0, symName: __ZN10serde_core2de7Visitor10visit_bool17h11c4f3100fbaeb79E, symObjAddr: 0x968C, symBinAddr: 0x5CE90, symSize: 0x78 }
  - { offset: 0x11E910, size: 0x8, addend: 0x0, symName: __ZN10serde_core2de7Visitor10visit_bool17h2c7488e41ef22543E, symObjAddr: 0x9704, symBinAddr: 0x5CF08, symSize: 0x64 }
  - { offset: 0x11E960, size: 0x8, addend: 0x0, symName: __ZN10serde_core2de7Visitor10visit_char17h12469b56b8f279efE, symObjAddr: 0x9768, symBinAddr: 0x5CF6C, symSize: 0xAC }
  - { offset: 0x11E9B0, size: 0x8, addend: 0x0, symName: __ZN10serde_core2de7Visitor10visit_char17ha3a0379227a3d66cE, symObjAddr: 0x9814, symBinAddr: 0x5D018, symSize: 0xAC }
  - { offset: 0x11EA00, size: 0x8, addend: 0x0, symName: __ZN10serde_core2de7Visitor10visit_none17h3068f234334c59fbE, symObjAddr: 0x98C0, symBinAddr: 0x5D0C4, symSize: 0x6C }
  - { offset: 0x11EA41, size: 0x8, addend: 0x0, symName: __ZN10serde_core2de7Visitor10visit_some17ha100e732fa984ed7E, symObjAddr: 0x992C, symBinAddr: 0x5D130, symSize: 0xA4 }
  - { offset: 0x11EA92, size: 0x8, addend: 0x0, symName: __ZN10serde_core2de7Visitor10visit_some17hd48e25a19d6c0b77E, symObjAddr: 0x99D0, symBinAddr: 0x5D1D4, symSize: 0x6C }
  - { offset: 0x11EAE2, size: 0x8, addend: 0x0, symName: __ZN10serde_core2de7Visitor10visit_unit17hea54d0f7f263c206E, symObjAddr: 0x9A3C, symBinAddr: 0x5D240, symSize: 0x6C }
  - { offset: 0x11EB23, size: 0x8, addend: 0x0, symName: __ZN10serde_core2de7Visitor11visit_bytes17hb4e14e2f6fe0d554E, symObjAddr: 0x9AA8, symBinAddr: 0x5D2AC, symSize: 0x74 }
  - { offset: 0x11EB73, size: 0x8, addend: 0x0, symName: __ZN10serde_core2de7Visitor11visit_bytes17he72e15c57041edadE, symObjAddr: 0x9B1C, symBinAddr: 0x5D320, symSize: 0x88 }
  - { offset: 0x11EBC3, size: 0x8, addend: 0x0, symName: __ZN10serde_core2de7Visitor12visit_string17h866e34ce9571b55eE, symObjAddr: 0x9BA4, symBinAddr: 0x5D3A8, symSize: 0xB4 }
  - { offset: 0x11EC14, size: 0x8, addend: 0x0, symName: __ZN10serde_core2de7Visitor14visit_byte_buf17hc8ff8c4fdf17f19aE, symObjAddr: 0x9C58, symBinAddr: 0x5D45C, symSize: 0xB4 }
  - { offset: 0x11EC65, size: 0x8, addend: 0x0, symName: __ZN10serde_core2de7Visitor18visit_borrowed_str17h39872ee94855b2d8E, symObjAddr: 0x9D0C, symBinAddr: 0x5D510, symSize: 0x28 }
  - { offset: 0x11ECB5, size: 0x8, addend: 0x0, symName: __ZN10serde_core2de7Visitor18visit_borrowed_str17hc51f174174698cf1E, symObjAddr: 0x9D34, symBinAddr: 0x5D538, symSize: 0x28 }
  - { offset: 0x11ED05, size: 0x8, addend: 0x0, symName: __ZN10serde_core2de7Visitor20visit_borrowed_bytes17h51b406d485b76385E, symObjAddr: 0x9D5C, symBinAddr: 0x5D560, symSize: 0x28 }
  - { offset: 0x11ED55, size: 0x8, addend: 0x0, symName: __ZN10serde_core2de7Visitor20visit_borrowed_bytes17hc0722b6cb8e8aea2E, symObjAddr: 0x9D84, symBinAddr: 0x5D588, symSize: 0x28 }
  - { offset: 0x11EDA5, size: 0x8, addend: 0x0, symName: __ZN10serde_core2de7Visitor20visit_newtype_struct17h951038d475d6e8f9E, symObjAddr: 0x9DAC, symBinAddr: 0x5D5B0, symSize: 0xA4 }
  - { offset: 0x11EDF6, size: 0x8, addend: 0x0, symName: __ZN10serde_core2de7Visitor20visit_newtype_struct17hdf131ae3f4009852E, symObjAddr: 0x9E50, symBinAddr: 0x5D654, symSize: 0x6C }
  - { offset: 0x11EE46, size: 0x8, addend: 0x0, symName: __ZN10serde_core2de7Visitor8visit_i817hd03a70b7bbf9b844E, symObjAddr: 0x9EBC, symBinAddr: 0x5D6C0, symSize: 0x28 }
  - { offset: 0x11EE96, size: 0x8, addend: 0x0, symName: __ZN10serde_core2de7Visitor8visit_i817hf92e11be931f7ab7E, symObjAddr: 0x9EE4, symBinAddr: 0x5D6E8, symSize: 0x28 }
  - { offset: 0x11EEE6, size: 0x8, addend: 0x0, symName: __ZN10serde_core2de7Visitor8visit_u817h3e1689767058bc68E, symObjAddr: 0x9F0C, symBinAddr: 0x5D710, symSize: 0x28 }
  - { offset: 0x11EF36, size: 0x8, addend: 0x0, symName: __ZN10serde_core2de7Visitor8visit_u817h4281db91ac8ce1a2E, symObjAddr: 0x9F34, symBinAddr: 0x5D738, symSize: 0x28 }
  - { offset: 0x11EF86, size: 0x8, addend: 0x0, symName: __ZN10serde_core2de7Visitor9visit_f3217h014abd935316012fE, symObjAddr: 0x9F5C, symBinAddr: 0x5D760, symSize: 0x24 }
  - { offset: 0x11EFD6, size: 0x8, addend: 0x0, symName: __ZN10serde_core2de7Visitor9visit_f3217ha41cdf11c090ea9dE, symObjAddr: 0x9F80, symBinAddr: 0x5D784, symSize: 0x24 }
  - { offset: 0x11F026, size: 0x8, addend: 0x0, symName: __ZN10serde_core2de7Visitor9visit_f6417h7e78d14b35f77c09E, symObjAddr: 0x9FA4, symBinAddr: 0x5D7A8, symSize: 0x74 }
  - { offset: 0x11F076, size: 0x8, addend: 0x0, symName: __ZN10serde_core2de7Visitor9visit_f6417hcf6f277a43397989E, symObjAddr: 0xA018, symBinAddr: 0x5D81C, symSize: 0x60 }
  - { offset: 0x11F0C6, size: 0x8, addend: 0x0, symName: __ZN10serde_core2de7Visitor9visit_i1617h173bb3f47e7d3348E, symObjAddr: 0xA078, symBinAddr: 0x5D87C, symSize: 0x28 }
  - { offset: 0x11F116, size: 0x8, addend: 0x0, symName: __ZN10serde_core2de7Visitor9visit_i1617h7fb271f535b53e4aE, symObjAddr: 0xA0A0, symBinAddr: 0x5D8A4, symSize: 0x28 }
  - { offset: 0x11F166, size: 0x8, addend: 0x0, symName: __ZN10serde_core2de7Visitor9visit_i3217h04ac52fa6a7ca233E, symObjAddr: 0xA0C8, symBinAddr: 0x5D8CC, symSize: 0x28 }
  - { offset: 0x11F1B6, size: 0x8, addend: 0x0, symName: __ZN10serde_core2de7Visitor9visit_i3217hb7f0282ea3e82ebfE, symObjAddr: 0xA0F0, symBinAddr: 0x5D8F4, symSize: 0x28 }
  - { offset: 0x11F206, size: 0x8, addend: 0x0, symName: __ZN10serde_core2de7Visitor9visit_i6417h2c69a4917248d923E, symObjAddr: 0xA118, symBinAddr: 0x5D91C, symSize: 0x68 }
  - { offset: 0x11F256, size: 0x8, addend: 0x0, symName: __ZN10serde_core2de7Visitor9visit_i6417hdceaa6cab262573dE, symObjAddr: 0xA180, symBinAddr: 0x5D984, symSize: 0x7C }
  - { offset: 0x11F2A6, size: 0x8, addend: 0x0, symName: __ZN10serde_core2de7Visitor9visit_map17h9002ad463df0ecfbE, symObjAddr: 0xA1FC, symBinAddr: 0x5DA00, symSize: 0x6C }
  - { offset: 0x11F2F6, size: 0x8, addend: 0x0, symName: __ZN10serde_core2de7Visitor9visit_seq17h337f0dcefe196781E, symObjAddr: 0xA268, symBinAddr: 0x5DA6C, symSize: 0x6C }
  - { offset: 0x11F346, size: 0x8, addend: 0x0, symName: __ZN10serde_core2de7Visitor9visit_str17h2c33f9cda71ccbbdE, symObjAddr: 0xA2D4, symBinAddr: 0x5DAD8, symSize: 0x74 }
  - { offset: 0x11F396, size: 0x8, addend: 0x0, symName: __ZN10serde_core2de7Visitor9visit_str17h86df383130121f8eE, symObjAddr: 0xA348, symBinAddr: 0x5DB4C, symSize: 0x88 }
  - { offset: 0x11F3E6, size: 0x8, addend: 0x0, symName: __ZN10serde_core2de7Visitor9visit_u1617h7c5b591cbb6aa7bbE, symObjAddr: 0xA3D0, symBinAddr: 0x5DBD4, symSize: 0x28 }
  - { offset: 0x11F436, size: 0x8, addend: 0x0, symName: __ZN10serde_core2de7Visitor9visit_u1617h8b86edc2648fe278E, symObjAddr: 0xA3F8, symBinAddr: 0x5DBFC, symSize: 0x28 }
  - { offset: 0x11F486, size: 0x8, addend: 0x0, symName: __ZN10serde_core2de7Visitor9visit_u3217he3f0dd4647a2e346E, symObjAddr: 0xA420, symBinAddr: 0x5DC24, symSize: 0x28 }
  - { offset: 0x11F4D6, size: 0x8, addend: 0x0, symName: __ZN10serde_core2de7Visitor9visit_u3217he9cb22c5979b0284E, symObjAddr: 0xA448, symBinAddr: 0x5DC4C, symSize: 0x28 }
  - { offset: 0x11F526, size: 0x8, addend: 0x0, symName: __ZN10serde_core2de7Visitor9visit_u6417h25fc972ef09e1d09E, symObjAddr: 0xA470, symBinAddr: 0x5DC74, symSize: 0x68 }
  - { offset: 0x11F576, size: 0x8, addend: 0x0, symName: __ZN10serde_core2de7Visitor9visit_u6417hd0ab6258a52e0e6bE, symObjAddr: 0xA4D8, symBinAddr: 0x5DCDC, symSize: 0x7C }
  - { offset: 0x11F5CC, size: 0x8, addend: 0x0, symName: __ZN10serde_core2de9MapAccess10next_entry17h123676f6db0b4d5fE, symObjAddr: 0xA554, symBinAddr: 0x5DD58, symSize: 0x24 }
  - { offset: 0x11F615, size: 0x8, addend: 0x0, symName: __ZN10serde_core2de9MapAccess10next_value17h1a8c73248c9c597bE, symObjAddr: 0xA578, symBinAddr: 0x5DD7C, symSize: 0x24 }
  - { offset: 0x11F655, size: 0x8, addend: 0x0, symName: __ZN10serde_core2de9MapAccess10next_value17h1c007d45c1bdcf25E, symObjAddr: 0xA59C, symBinAddr: 0x5DDA0, symSize: 0x24 }
  - { offset: 0x11F695, size: 0x8, addend: 0x0, symName: __ZN10serde_core2de9MapAccess10next_value17h2b229d7f09647bf9E, symObjAddr: 0xA5C0, symBinAddr: 0x5DDC4, symSize: 0x24 }
  - { offset: 0x11F6D5, size: 0x8, addend: 0x0, symName: __ZN10serde_core2de9MapAccess10next_value17h36a0ea9a6c7aab53E, symObjAddr: 0xA5E4, symBinAddr: 0x5DDE8, symSize: 0x24 }
  - { offset: 0x11F715, size: 0x8, addend: 0x0, symName: __ZN10serde_core2de9MapAccess10next_value17h3ac38d4ceb8a1ad1E, symObjAddr: 0xA608, symBinAddr: 0x5DE0C, symSize: 0x24 }
  - { offset: 0x11F755, size: 0x8, addend: 0x0, symName: __ZN10serde_core2de9MapAccess10next_value17h3b850ca643670299E, symObjAddr: 0xA62C, symBinAddr: 0x5DE30, symSize: 0x24 }
  - { offset: 0x11F795, size: 0x8, addend: 0x0, symName: __ZN10serde_core2de9MapAccess10next_value17h653681e9cc5d9b2eE, symObjAddr: 0xA650, symBinAddr: 0x5DE54, symSize: 0x24 }
  - { offset: 0x11F7D5, size: 0x8, addend: 0x0, symName: __ZN10serde_core2de9MapAccess10next_value17h70913732f4ce90dbE, symObjAddr: 0xA674, symBinAddr: 0x5DE78, symSize: 0x24 }
  - { offset: 0x11F815, size: 0x8, addend: 0x0, symName: __ZN10serde_core2de9MapAccess10next_value17h8aed3615992a266eE, symObjAddr: 0xA698, symBinAddr: 0x5DE9C, symSize: 0x24 }
  - { offset: 0x11F855, size: 0x8, addend: 0x0, symName: __ZN10serde_core2de9MapAccess10next_value17h9a68d678235c4ed7E, symObjAddr: 0xA6BC, symBinAddr: 0x5DEC0, symSize: 0x24 }
  - { offset: 0x11F895, size: 0x8, addend: 0x0, symName: __ZN10serde_core2de9MapAccess10next_value17h9d6de8763245ad58E, symObjAddr: 0xA6E0, symBinAddr: 0x5DEE4, symSize: 0x24 }
  - { offset: 0x11F8D5, size: 0x8, addend: 0x0, symName: __ZN10serde_core2de9MapAccess10next_value17ha6aea0395aa7f0b7E, symObjAddr: 0xA704, symBinAddr: 0x5DF08, symSize: 0x24 }
  - { offset: 0x11F915, size: 0x8, addend: 0x0, symName: __ZN10serde_core2de9MapAccess10next_value17hb9af23db6edd9482E, symObjAddr: 0xA728, symBinAddr: 0x5DF2C, symSize: 0x24 }
  - { offset: 0x11F955, size: 0x8, addend: 0x0, symName: __ZN10serde_core2de9MapAccess10next_value17hbbfa5544ea0f656aE, symObjAddr: 0xA74C, symBinAddr: 0x5DF50, symSize: 0x24 }
  - { offset: 0x11F995, size: 0x8, addend: 0x0, symName: __ZN10serde_core2de9MapAccess10next_value17hc8da6305216d8b50E, symObjAddr: 0xA770, symBinAddr: 0x5DF74, symSize: 0x24 }
  - { offset: 0x11F9D5, size: 0x8, addend: 0x0, symName: __ZN10serde_core2de9MapAccess10next_value17hd2c69a9699534e74E, symObjAddr: 0xA794, symBinAddr: 0x5DF98, symSize: 0x24 }
  - { offset: 0x11FA15, size: 0x8, addend: 0x0, symName: __ZN10serde_core2de9MapAccess10next_value17hdd9986c23b67bc68E, symObjAddr: 0xA7B8, symBinAddr: 0x5DFBC, symSize: 0x24 }
  - { offset: 0x11FA55, size: 0x8, addend: 0x0, symName: __ZN10serde_core2de9MapAccess10next_value17hdd9eeaf013f70ef7E, symObjAddr: 0xA7DC, symBinAddr: 0x5DFE0, symSize: 0x24 }
  - { offset: 0x11FA95, size: 0x8, addend: 0x0, symName: __ZN10serde_core2de9MapAccess10next_value17hf0996fe471efd2d9E, symObjAddr: 0xA800, symBinAddr: 0x5E004, symSize: 0x24 }
  - { offset: 0x11FAD5, size: 0x8, addend: 0x0, symName: __ZN10serde_core2de9MapAccess8next_key17h31d0b70bd13e31b2E, symObjAddr: 0xA824, symBinAddr: 0x5E028, symSize: 0x24 }
  - { offset: 0x11FB15, size: 0x8, addend: 0x0, symName: __ZN10serde_core2de9MapAccess8next_key17h3a973caa376542acE, symObjAddr: 0xA848, symBinAddr: 0x5E04C, symSize: 0x24 }
  - { offset: 0x11FB55, size: 0x8, addend: 0x0, symName: __ZN10serde_core2de9MapAccess8next_key17h400dd377bee4ff90E, symObjAddr: 0xA86C, symBinAddr: 0x5E070, symSize: 0x24 }
  - { offset: 0x11FB95, size: 0x8, addend: 0x0, symName: __ZN10serde_core2de9MapAccess8next_key17h487fdf52acece1dfE, symObjAddr: 0xA890, symBinAddr: 0x5E094, symSize: 0x24 }
  - { offset: 0x11FBD5, size: 0x8, addend: 0x0, symName: __ZN10serde_core2de9MapAccess8next_key17h52c4c335870eb980E, symObjAddr: 0xA8B4, symBinAddr: 0x5E0B8, symSize: 0x24 }
  - { offset: 0x11FC15, size: 0x8, addend: 0x0, symName: __ZN10serde_core2de9MapAccess8next_key17h591af0bfa4e25096E, symObjAddr: 0xA8D8, symBinAddr: 0x5E0DC, symSize: 0x24 }
  - { offset: 0x11FC55, size: 0x8, addend: 0x0, symName: __ZN10serde_core2de9MapAccess8next_key17h6c33c321506adf21E, symObjAddr: 0xA8FC, symBinAddr: 0x5E100, symSize: 0x24 }
  - { offset: 0x11FC95, size: 0x8, addend: 0x0, symName: __ZN10serde_core2de9MapAccess8next_key17h7d73637edd61bb0cE, symObjAddr: 0xA920, symBinAddr: 0x5E124, symSize: 0x24 }
  - { offset: 0x11FCD5, size: 0x8, addend: 0x0, symName: __ZN10serde_core2de9MapAccess8next_key17h91d694424fb5ae9dE, symObjAddr: 0xA944, symBinAddr: 0x5E148, symSize: 0x24 }
  - { offset: 0x11FD15, size: 0x8, addend: 0x0, symName: __ZN10serde_core2de9MapAccess8next_key17hb12fb8d745170adeE, symObjAddr: 0xA968, symBinAddr: 0x5E16C, symSize: 0x24 }
  - { offset: 0x11FD55, size: 0x8, addend: 0x0, symName: __ZN10serde_core2de9MapAccess8next_key17hbbac89839a8a5d3eE, symObjAddr: 0xA98C, symBinAddr: 0x5E190, symSize: 0x24 }
  - { offset: 0x11FD95, size: 0x8, addend: 0x0, symName: __ZN10serde_core2de9MapAccess8next_key17hbd9ae33bed9d6329E, symObjAddr: 0xA9B0, symBinAddr: 0x5E1B4, symSize: 0x24 }
  - { offset: 0x11FDD5, size: 0x8, addend: 0x0, symName: __ZN10serde_core2de9MapAccess8next_key17hdb446ecdca367e60E, symObjAddr: 0xA9D4, symBinAddr: 0x5E1D8, symSize: 0x24 }
  - { offset: 0x11FE15, size: 0x8, addend: 0x0, symName: __ZN10serde_core2de9MapAccess8next_key17he5ae9f8b2339bf9bE, symObjAddr: 0xA9F8, symBinAddr: 0x5E1FC, symSize: 0x24 }
  - { offset: 0x11FE55, size: 0x8, addend: 0x0, symName: __ZN10serde_core2de9MapAccess8next_key17hfc40e9a902921328E, symObjAddr: 0xAA1C, symBinAddr: 0x5E220, symSize: 0x24 }
  - { offset: 0x11FE9B, size: 0x8, addend: 0x0, symName: __ZN10serde_core2de9SeqAccess12next_element17h0c2317450e2b0515E, symObjAddr: 0xAA40, symBinAddr: 0x5E244, symSize: 0x24 }
  - { offset: 0x11FEDB, size: 0x8, addend: 0x0, symName: __ZN10serde_core2de9SeqAccess12next_element17h172353f277835660E, symObjAddr: 0xAA64, symBinAddr: 0x5E268, symSize: 0x24 }
  - { offset: 0x11FF1B, size: 0x8, addend: 0x0, symName: __ZN10serde_core2de9SeqAccess12next_element17h24701d3fe236705dE, symObjAddr: 0xAA88, symBinAddr: 0x5E28C, symSize: 0x24 }
  - { offset: 0x11FF5B, size: 0x8, addend: 0x0, symName: __ZN10serde_core2de9SeqAccess12next_element17h2bd62c301cf09538E, symObjAddr: 0xAAAC, symBinAddr: 0x5E2B0, symSize: 0x24 }
  - { offset: 0x11FF9B, size: 0x8, addend: 0x0, symName: __ZN10serde_core2de9SeqAccess12next_element17h33aced55e71abe85E, symObjAddr: 0xAAD0, symBinAddr: 0x5E2D4, symSize: 0x24 }
  - { offset: 0x11FFDB, size: 0x8, addend: 0x0, symName: __ZN10serde_core2de9SeqAccess12next_element17h450d60b7919fb23fE, symObjAddr: 0xAAF4, symBinAddr: 0x5E2F8, symSize: 0x24 }
  - { offset: 0x12001B, size: 0x8, addend: 0x0, symName: __ZN10serde_core2de9SeqAccess12next_element17h4c9a5b8ce7d8a08bE, symObjAddr: 0xAB18, symBinAddr: 0x5E31C, symSize: 0x24 }
  - { offset: 0x12005B, size: 0x8, addend: 0x0, symName: __ZN10serde_core2de9SeqAccess12next_element17h597357a5554855eaE, symObjAddr: 0xAB3C, symBinAddr: 0x5E340, symSize: 0x24 }
  - { offset: 0x12009B, size: 0x8, addend: 0x0, symName: __ZN10serde_core2de9SeqAccess12next_element17h6042ea944838bf87E, symObjAddr: 0xAB60, symBinAddr: 0x5E364, symSize: 0x24 }
  - { offset: 0x1200DB, size: 0x8, addend: 0x0, symName: __ZN10serde_core2de9SeqAccess12next_element17h6e2e669c3ff82e31E, symObjAddr: 0xAB84, symBinAddr: 0x5E388, symSize: 0x24 }
  - { offset: 0x12011B, size: 0x8, addend: 0x0, symName: __ZN10serde_core2de9SeqAccess12next_element17h73935c73fa763ca2E, symObjAddr: 0xABA8, symBinAddr: 0x5E3AC, symSize: 0x24 }
  - { offset: 0x12015B, size: 0x8, addend: 0x0, symName: __ZN10serde_core2de9SeqAccess12next_element17h7c11aaf9b62d7dffE, symObjAddr: 0xABCC, symBinAddr: 0x5E3D0, symSize: 0x24 }
  - { offset: 0x12019B, size: 0x8, addend: 0x0, symName: __ZN10serde_core2de9SeqAccess12next_element17ha20cbd68f082ff49E, symObjAddr: 0xABF0, symBinAddr: 0x5E3F4, symSize: 0x24 }
  - { offset: 0x1201DB, size: 0x8, addend: 0x0, symName: __ZN10serde_core2de9SeqAccess12next_element17hae354a71907efb1dE, symObjAddr: 0xAC14, symBinAddr: 0x5E418, symSize: 0x24 }
  - { offset: 0x12021B, size: 0x8, addend: 0x0, symName: __ZN10serde_core2de9SeqAccess12next_element17hc51494212d700b6dE, symObjAddr: 0xAC38, symBinAddr: 0x5E43C, symSize: 0x24 }
  - { offset: 0x12025B, size: 0x8, addend: 0x0, symName: __ZN10serde_core2de9SeqAccess12next_element17hd4bde80ee7a98278E, symObjAddr: 0xAC5C, symBinAddr: 0x5E460, symSize: 0x24 }
  - { offset: 0x12029B, size: 0x8, addend: 0x0, symName: __ZN10serde_core2de9SeqAccess12next_element17hdd655997ccb9c840E, symObjAddr: 0xAC80, symBinAddr: 0x5E484, symSize: 0x24 }
  - { offset: 0x1202DB, size: 0x8, addend: 0x0, symName: __ZN10serde_core2de9SeqAccess12next_element17he2a25c459d2b2a5cE, symObjAddr: 0xACA4, symBinAddr: 0x5E4A8, symSize: 0x24 }
  - { offset: 0x12031B, size: 0x8, addend: 0x0, symName: __ZN10serde_core2de9SeqAccess12next_element17hffed622a032ed8edE, symObjAddr: 0xACC8, symBinAddr: 0x5E4CC, symSize: 0x24 }
  - { offset: 0x120361, size: 0x8, addend: 0x0, symName: '__ZN46_$LT$T$u20$as$u20$serde_core..de..Expected$GT$3fmt17h5aec132ef82a6fadE', symObjAddr: 0xACEC, symBinAddr: 0x5E4F0, symSize: 0x2C }
  - { offset: 0x1203A7, size: 0x8, addend: 0x0, symName: '__ZN46_$LT$T$u20$as$u20$serde_core..de..Expected$GT$3fmt17h83b862bd32d40941E', symObjAddr: 0xAD18, symBinAddr: 0x5E51C, symSize: 0x2C }
  - { offset: 0x1203F3, size: 0x8, addend: 0x0, symName: '__ZN59_$LT$$RF$mut$u20$A$u20$as$u20$serde_core..de..MapAccess$GT$10next_entry17hec814e775a734776E', symObjAddr: 0xAD44, symBinAddr: 0x5E548, symSize: 0x28 }
  - { offset: 0x12043C, size: 0x8, addend: 0x0, symName: '__ZN59_$LT$$RF$mut$u20$A$u20$as$u20$serde_core..de..MapAccess$GT$10next_value17h1027a349387e66d8E', symObjAddr: 0xAD6C, symBinAddr: 0x5E570, symSize: 0x28 }
  - { offset: 0x12047C, size: 0x8, addend: 0x0, symName: '__ZN59_$LT$$RF$mut$u20$A$u20$as$u20$serde_core..de..MapAccess$GT$10next_value17h2618ab159f7fae3bE', symObjAddr: 0xAD94, symBinAddr: 0x5E598, symSize: 0x28 }
  - { offset: 0x1204BC, size: 0x8, addend: 0x0, symName: '__ZN59_$LT$$RF$mut$u20$A$u20$as$u20$serde_core..de..MapAccess$GT$10next_value17h27d1e8b088d2ac0dE', symObjAddr: 0xADBC, symBinAddr: 0x5E5C0, symSize: 0x28 }
  - { offset: 0x1204FC, size: 0x8, addend: 0x0, symName: '__ZN59_$LT$$RF$mut$u20$A$u20$as$u20$serde_core..de..MapAccess$GT$10next_value17h38a9a5a5b04e5081E', symObjAddr: 0xADE4, symBinAddr: 0x5E5E8, symSize: 0x28 }
  - { offset: 0x12053C, size: 0x8, addend: 0x0, symName: '__ZN59_$LT$$RF$mut$u20$A$u20$as$u20$serde_core..de..MapAccess$GT$10next_value17h39012688adec6c20E', symObjAddr: 0xAE0C, symBinAddr: 0x5E610, symSize: 0x28 }
  - { offset: 0x12057C, size: 0x8, addend: 0x0, symName: '__ZN59_$LT$$RF$mut$u20$A$u20$as$u20$serde_core..de..MapAccess$GT$10next_value17h3a31c680c88ce193E', symObjAddr: 0xAE34, symBinAddr: 0x5E638, symSize: 0x28 }
  - { offset: 0x1205BC, size: 0x8, addend: 0x0, symName: '__ZN59_$LT$$RF$mut$u20$A$u20$as$u20$serde_core..de..MapAccess$GT$10next_value17h463d61404de83295E', symObjAddr: 0xAE5C, symBinAddr: 0x5E660, symSize: 0x28 }
  - { offset: 0x1205FC, size: 0x8, addend: 0x0, symName: '__ZN59_$LT$$RF$mut$u20$A$u20$as$u20$serde_core..de..MapAccess$GT$10next_value17h54b3ea39a1a38ae5E', symObjAddr: 0xAE84, symBinAddr: 0x5E688, symSize: 0x28 }
  - { offset: 0x12063C, size: 0x8, addend: 0x0, symName: '__ZN59_$LT$$RF$mut$u20$A$u20$as$u20$serde_core..de..MapAccess$GT$10next_value17h5f4cd8df8ff32fd1E', symObjAddr: 0xAEAC, symBinAddr: 0x5E6B0, symSize: 0x28 }
  - { offset: 0x12067C, size: 0x8, addend: 0x0, symName: '__ZN59_$LT$$RF$mut$u20$A$u20$as$u20$serde_core..de..MapAccess$GT$10next_value17h7619b2fd136135abE', symObjAddr: 0xAED4, symBinAddr: 0x5E6D8, symSize: 0x28 }
  - { offset: 0x1206BC, size: 0x8, addend: 0x0, symName: '__ZN59_$LT$$RF$mut$u20$A$u20$as$u20$serde_core..de..MapAccess$GT$10next_value17h9bb1b07a140722d6E', symObjAddr: 0xAEFC, symBinAddr: 0x5E700, symSize: 0x28 }
  - { offset: 0x1206FC, size: 0x8, addend: 0x0, symName: '__ZN59_$LT$$RF$mut$u20$A$u20$as$u20$serde_core..de..MapAccess$GT$10next_value17h9e3b82a396b4409fE', symObjAddr: 0xAF24, symBinAddr: 0x5E728, symSize: 0x28 }
  - { offset: 0x12073C, size: 0x8, addend: 0x0, symName: '__ZN59_$LT$$RF$mut$u20$A$u20$as$u20$serde_core..de..MapAccess$GT$10next_value17hb6d2a6e97ace2696E', symObjAddr: 0xAF4C, symBinAddr: 0x5E750, symSize: 0x28 }
  - { offset: 0x12077C, size: 0x8, addend: 0x0, symName: '__ZN59_$LT$$RF$mut$u20$A$u20$as$u20$serde_core..de..MapAccess$GT$10next_value17hdd13bb0f65d52252E', symObjAddr: 0xAF74, symBinAddr: 0x5E778, symSize: 0x28 }
  - { offset: 0x1207BC, size: 0x8, addend: 0x0, symName: '__ZN59_$LT$$RF$mut$u20$A$u20$as$u20$serde_core..de..MapAccess$GT$10next_value17he4d85918b57c3a06E', symObjAddr: 0xAF9C, symBinAddr: 0x5E7A0, symSize: 0x28 }
  - { offset: 0x1207FC, size: 0x8, addend: 0x0, symName: '__ZN59_$LT$$RF$mut$u20$A$u20$as$u20$serde_core..de..MapAccess$GT$10next_value17he98fa08949c6a4fdE', symObjAddr: 0xAFC4, symBinAddr: 0x5E7C8, symSize: 0x28 }
  - { offset: 0x12083C, size: 0x8, addend: 0x0, symName: '__ZN59_$LT$$RF$mut$u20$A$u20$as$u20$serde_core..de..MapAccess$GT$10next_value17hf1ee5b869cae8e35E', symObjAddr: 0xAFEC, symBinAddr: 0x5E7F0, symSize: 0x28 }
  - { offset: 0x12087C, size: 0x8, addend: 0x0, symName: '__ZN59_$LT$$RF$mut$u20$A$u20$as$u20$serde_core..de..MapAccess$GT$10next_value17hf6a2465a2caf4dc9E', symObjAddr: 0xB014, symBinAddr: 0x5E818, symSize: 0x28 }
  - { offset: 0x1208BC, size: 0x8, addend: 0x0, symName: '__ZN59_$LT$$RF$mut$u20$A$u20$as$u20$serde_core..de..MapAccess$GT$10next_value17hfee752b2d1ae31f6E', symObjAddr: 0xB03C, symBinAddr: 0x5E840, symSize: 0x28 }
  - { offset: 0x1208FC, size: 0x8, addend: 0x0, symName: '__ZN59_$LT$$RF$mut$u20$A$u20$as$u20$serde_core..de..MapAccess$GT$13next_key_seed17h3d040d99ad89f69dE', symObjAddr: 0xB064, symBinAddr: 0x5E868, symSize: 0x28 }
  - { offset: 0x12094B, size: 0x8, addend: 0x0, symName: '__ZN59_$LT$$RF$mut$u20$A$u20$as$u20$serde_core..de..MapAccess$GT$13next_key_seed17haaf0083d67c015b8E', symObjAddr: 0xB08C, symBinAddr: 0x5E890, symSize: 0x34 }
  - { offset: 0x12099A, size: 0x8, addend: 0x0, symName: '__ZN59_$LT$$RF$mut$u20$A$u20$as$u20$serde_core..de..MapAccess$GT$15next_entry_seed17hcb497aa9d0e0da6eE', symObjAddr: 0xB0C0, symBinAddr: 0x5E8C4, symSize: 0x28 }
  - { offset: 0x120A01, size: 0x8, addend: 0x0, symName: '__ZN59_$LT$$RF$mut$u20$A$u20$as$u20$serde_core..de..MapAccess$GT$15next_value_seed17h6d3c3911fcc65547E', symObjAddr: 0xB0E8, symBinAddr: 0x5E8EC, symSize: 0x28 }
  - { offset: 0x120A50, size: 0x8, addend: 0x0, symName: '__ZN59_$LT$$RF$mut$u20$A$u20$as$u20$serde_core..de..MapAccess$GT$8next_key17h185cb97e09aa37beE', symObjAddr: 0xB110, symBinAddr: 0x5E914, symSize: 0x28 }
  - { offset: 0x120A90, size: 0x8, addend: 0x0, symName: '__ZN59_$LT$$RF$mut$u20$A$u20$as$u20$serde_core..de..MapAccess$GT$8next_key17h3d57808670d47542E', symObjAddr: 0xB138, symBinAddr: 0x5E93C, symSize: 0x28 }
  - { offset: 0x120AD0, size: 0x8, addend: 0x0, symName: '__ZN59_$LT$$RF$mut$u20$A$u20$as$u20$serde_core..de..MapAccess$GT$8next_key17h48d625d2035fe568E', symObjAddr: 0xB160, symBinAddr: 0x5E964, symSize: 0x28 }
  - { offset: 0x120B10, size: 0x8, addend: 0x0, symName: '__ZN59_$LT$$RF$mut$u20$A$u20$as$u20$serde_core..de..MapAccess$GT$8next_key17h6b768c148ec1dd87E', symObjAddr: 0xB188, symBinAddr: 0x5E98C, symSize: 0x28 }
  - { offset: 0x120B50, size: 0x8, addend: 0x0, symName: '__ZN59_$LT$$RF$mut$u20$A$u20$as$u20$serde_core..de..MapAccess$GT$8next_key17h74463e753fd21b84E', symObjAddr: 0xB1B0, symBinAddr: 0x5E9B4, symSize: 0x28 }
  - { offset: 0x120B90, size: 0x8, addend: 0x0, symName: '__ZN59_$LT$$RF$mut$u20$A$u20$as$u20$serde_core..de..MapAccess$GT$8next_key17h8552bff9bf96337aE', symObjAddr: 0xB1D8, symBinAddr: 0x5E9DC, symSize: 0x28 }
  - { offset: 0x120BD0, size: 0x8, addend: 0x0, symName: '__ZN59_$LT$$RF$mut$u20$A$u20$as$u20$serde_core..de..MapAccess$GT$8next_key17h8940af37b9cad093E', symObjAddr: 0xB200, symBinAddr: 0x5EA04, symSize: 0x28 }
  - { offset: 0x120C10, size: 0x8, addend: 0x0, symName: '__ZN59_$LT$$RF$mut$u20$A$u20$as$u20$serde_core..de..MapAccess$GT$8next_key17h895b70cd638580bcE', symObjAddr: 0xB228, symBinAddr: 0x5EA2C, symSize: 0x28 }
  - { offset: 0x120C50, size: 0x8, addend: 0x0, symName: '__ZN59_$LT$$RF$mut$u20$A$u20$as$u20$serde_core..de..MapAccess$GT$8next_key17h9b0cc5645be71354E', symObjAddr: 0xB250, symBinAddr: 0x5EA54, symSize: 0x28 }
  - { offset: 0x120C90, size: 0x8, addend: 0x0, symName: '__ZN59_$LT$$RF$mut$u20$A$u20$as$u20$serde_core..de..MapAccess$GT$8next_key17ha1e50f9680b4ae55E', symObjAddr: 0xB278, symBinAddr: 0x5EA7C, symSize: 0x28 }
  - { offset: 0x120CD0, size: 0x8, addend: 0x0, symName: '__ZN59_$LT$$RF$mut$u20$A$u20$as$u20$serde_core..de..MapAccess$GT$8next_key17ha98d47050b3783fbE', symObjAddr: 0xB2A0, symBinAddr: 0x5EAA4, symSize: 0x28 }
  - { offset: 0x120D10, size: 0x8, addend: 0x0, symName: '__ZN59_$LT$$RF$mut$u20$A$u20$as$u20$serde_core..de..MapAccess$GT$8next_key17hc47012abd95cad7aE', symObjAddr: 0xB2C8, symBinAddr: 0x5EACC, symSize: 0x28 }
  - { offset: 0x120D50, size: 0x8, addend: 0x0, symName: '__ZN59_$LT$$RF$mut$u20$A$u20$as$u20$serde_core..de..MapAccess$GT$8next_key17hd5b09bd497ec22f0E', symObjAddr: 0xB2F0, symBinAddr: 0x5EAF4, symSize: 0x28 }
  - { offset: 0x120D90, size: 0x8, addend: 0x0, symName: '__ZN59_$LT$$RF$mut$u20$A$u20$as$u20$serde_core..de..MapAccess$GT$8next_key17he2d1d570cfa86524E', symObjAddr: 0xB318, symBinAddr: 0x5EB1C, symSize: 0x28 }
  - { offset: 0x120DD0, size: 0x8, addend: 0x0, symName: '__ZN59_$LT$$RF$mut$u20$A$u20$as$u20$serde_core..de..MapAccess$GT$8next_key17hf0e304dd3d03da27E', symObjAddr: 0xB340, symBinAddr: 0x5EB44, symSize: 0x28 }
  - { offset: 0x120E10, size: 0x8, addend: 0x0, symName: '__ZN59_$LT$$RF$mut$u20$A$u20$as$u20$serde_core..de..MapAccess$GT$9size_hint17h2d697014bd7a6124E', symObjAddr: 0xB368, symBinAddr: 0x5EB6C, symSize: 0x28 }
  - { offset: 0x120E4D, size: 0x8, addend: 0x0, symName: '__ZN59_$LT$$RF$mut$u20$A$u20$as$u20$serde_core..de..SeqAccess$GT$12next_element17h0030979bb9196792E', symObjAddr: 0xB390, symBinAddr: 0x5EB94, symSize: 0x28 }
  - { offset: 0x120E8D, size: 0x8, addend: 0x0, symName: '__ZN59_$LT$$RF$mut$u20$A$u20$as$u20$serde_core..de..SeqAccess$GT$12next_element17h0a050d43ddcfdac2E', symObjAddr: 0xB3B8, symBinAddr: 0x5EBBC, symSize: 0x28 }
  - { offset: 0x120ECD, size: 0x8, addend: 0x0, symName: '__ZN59_$LT$$RF$mut$u20$A$u20$as$u20$serde_core..de..SeqAccess$GT$12next_element17h1e3ff8cd72b2c490E', symObjAddr: 0xB3E0, symBinAddr: 0x5EBE4, symSize: 0x28 }
  - { offset: 0x120F0D, size: 0x8, addend: 0x0, symName: '__ZN59_$LT$$RF$mut$u20$A$u20$as$u20$serde_core..de..SeqAccess$GT$12next_element17h262226bdaa7927abE', symObjAddr: 0xB408, symBinAddr: 0x5EC0C, symSize: 0x28 }
  - { offset: 0x120F4D, size: 0x8, addend: 0x0, symName: '__ZN59_$LT$$RF$mut$u20$A$u20$as$u20$serde_core..de..SeqAccess$GT$12next_element17h29eb98a60743e1ccE', symObjAddr: 0xB430, symBinAddr: 0x5EC34, symSize: 0x28 }
  - { offset: 0x120F8D, size: 0x8, addend: 0x0, symName: '__ZN59_$LT$$RF$mut$u20$A$u20$as$u20$serde_core..de..SeqAccess$GT$12next_element17h494ea545acf4121cE', symObjAddr: 0xB458, symBinAddr: 0x5EC5C, symSize: 0x28 }
  - { offset: 0x120FCD, size: 0x8, addend: 0x0, symName: '__ZN59_$LT$$RF$mut$u20$A$u20$as$u20$serde_core..de..SeqAccess$GT$12next_element17h5dcfa39695003b94E', symObjAddr: 0xB480, symBinAddr: 0x5EC84, symSize: 0x28 }
  - { offset: 0x12100D, size: 0x8, addend: 0x0, symName: '__ZN59_$LT$$RF$mut$u20$A$u20$as$u20$serde_core..de..SeqAccess$GT$12next_element17h5ee9731656582f08E', symObjAddr: 0xB4A8, symBinAddr: 0x5ECAC, symSize: 0x28 }
  - { offset: 0x12104D, size: 0x8, addend: 0x0, symName: '__ZN59_$LT$$RF$mut$u20$A$u20$as$u20$serde_core..de..SeqAccess$GT$12next_element17h61ca587d97c8f1b5E', symObjAddr: 0xB4D0, symBinAddr: 0x5ECD4, symSize: 0x28 }
  - { offset: 0x12108D, size: 0x8, addend: 0x0, symName: '__ZN59_$LT$$RF$mut$u20$A$u20$as$u20$serde_core..de..SeqAccess$GT$12next_element17h71a2fa0a66fa1144E', symObjAddr: 0xB4F8, symBinAddr: 0x5ECFC, symSize: 0x28 }
  - { offset: 0x1210CD, size: 0x8, addend: 0x0, symName: '__ZN59_$LT$$RF$mut$u20$A$u20$as$u20$serde_core..de..SeqAccess$GT$12next_element17h79eb1239ed351d96E', symObjAddr: 0xB520, symBinAddr: 0x5ED24, symSize: 0x28 }
  - { offset: 0x12110D, size: 0x8, addend: 0x0, symName: '__ZN59_$LT$$RF$mut$u20$A$u20$as$u20$serde_core..de..SeqAccess$GT$12next_element17h7d3b1ce6ed06b275E', symObjAddr: 0xB548, symBinAddr: 0x5ED4C, symSize: 0x28 }
  - { offset: 0x12114D, size: 0x8, addend: 0x0, symName: '__ZN59_$LT$$RF$mut$u20$A$u20$as$u20$serde_core..de..SeqAccess$GT$12next_element17h8a97a7d69357f144E', symObjAddr: 0xB570, symBinAddr: 0x5ED74, symSize: 0x28 }
  - { offset: 0x12118D, size: 0x8, addend: 0x0, symName: '__ZN59_$LT$$RF$mut$u20$A$u20$as$u20$serde_core..de..SeqAccess$GT$12next_element17hbbd42b3241555461E', symObjAddr: 0xB598, symBinAddr: 0x5ED9C, symSize: 0x28 }
  - { offset: 0x1211CD, size: 0x8, addend: 0x0, symName: '__ZN59_$LT$$RF$mut$u20$A$u20$as$u20$serde_core..de..SeqAccess$GT$12next_element17hc589044b82b0acacE', symObjAddr: 0xB5C0, symBinAddr: 0x5EDC4, symSize: 0x28 }
  - { offset: 0x12120D, size: 0x8, addend: 0x0, symName: '__ZN59_$LT$$RF$mut$u20$A$u20$as$u20$serde_core..de..SeqAccess$GT$12next_element17hc79fee27c40140cbE', symObjAddr: 0xB5E8, symBinAddr: 0x5EDEC, symSize: 0x28 }
  - { offset: 0x12124D, size: 0x8, addend: 0x0, symName: '__ZN59_$LT$$RF$mut$u20$A$u20$as$u20$serde_core..de..SeqAccess$GT$12next_element17hcb021c389365274eE', symObjAddr: 0xB610, symBinAddr: 0x5EE14, symSize: 0x28 }
  - { offset: 0x12128D, size: 0x8, addend: 0x0, symName: '__ZN59_$LT$$RF$mut$u20$A$u20$as$u20$serde_core..de..SeqAccess$GT$12next_element17hde63a456a80a4dd8E', symObjAddr: 0xB638, symBinAddr: 0x5EE3C, symSize: 0x28 }
  - { offset: 0x1212CD, size: 0x8, addend: 0x0, symName: '__ZN59_$LT$$RF$mut$u20$A$u20$as$u20$serde_core..de..SeqAccess$GT$12next_element17hfc0a19c997935949E', symObjAddr: 0xB660, symBinAddr: 0x5EE64, symSize: 0x28 }
  - { offset: 0x12130D, size: 0x8, addend: 0x0, symName: '__ZN59_$LT$$RF$mut$u20$A$u20$as$u20$serde_core..de..SeqAccess$GT$17next_element_seed17h2e23bcea141b7884E', symObjAddr: 0xB688, symBinAddr: 0x5EE8C, symSize: 0x28 }
  - { offset: 0x12135C, size: 0x8, addend: 0x0, symName: '__ZN59_$LT$$RF$mut$u20$A$u20$as$u20$serde_core..de..SeqAccess$GT$9size_hint17h22e11793214ffc55E', symObjAddr: 0xB6B0, symBinAddr: 0x5EEB4, symSize: 0x28 }
  - { offset: 0x121393, size: 0x8, addend: 0x0, symName: '__ZN59_$LT$$RF$mut$u20$A$u20$as$u20$serde_core..de..SeqAccess$GT$9size_hint17h9699e7879912535fE', symObjAddr: 0xB6D8, symBinAddr: 0x5EEDC, symSize: 0x28 }
  - { offset: 0x126D6A, size: 0x8, addend: 0x0, symName: '__ZN100_$LT$serde..private..de..content..TagOrContentVisitor$u20$as$u20$serde_core..de..DeserializeSeed$GT$11deserialize17ha39e2f0f9b9fedcdE', symObjAddr: 0x0, symBinAddr: 0x53804, symSize: 0x40 }
  - { offset: 0x126DB1, size: 0x8, addend: 0x0, symName: '__ZN100_$LT$serde..private..de..content..TagOrContentVisitor$u20$as$u20$serde_core..de..DeserializeSeed$GT$11deserialize17he11db8937999eb03E', symObjAddr: 0x40, symBinAddr: 0x53844, symSize: 0x40 }
  - { offset: 0x126DFE, size: 0x8, addend: 0x0, symName: '__ZN102_$LT$serde..private..de..content..MapRefDeserializer$LT$E$GT$$u20$as$u20$serde_core..de..MapAccess$GT$13next_key_seed17h2f5cc4652ee6d273E', symObjAddr: 0x80, symBinAddr: 0x53884, symSize: 0x140 }
  - { offset: 0x126E73, size: 0x8, addend: 0x0, symName: '__ZN102_$LT$serde..private..de..content..MapRefDeserializer$LT$E$GT$$u20$as$u20$serde_core..de..MapAccess$GT$13next_key_seed17haeb56794f4a5ad9dE', symObjAddr: 0x1C0, symBinAddr: 0x539C4, symSize: 0x134 }
  - { offset: 0x126EE8, size: 0x8, addend: 0x0, symName: '__ZN102_$LT$serde..private..de..content..MapRefDeserializer$LT$E$GT$$u20$as$u20$serde_core..de..MapAccess$GT$13next_key_seed17hb7a808e2663a308eE', symObjAddr: 0x2F4, symBinAddr: 0x53AF8, symSize: 0x134 }
  - { offset: 0x126F5D, size: 0x8, addend: 0x0, symName: '__ZN102_$LT$serde..private..de..content..MapRefDeserializer$LT$E$GT$$u20$as$u20$serde_core..de..MapAccess$GT$13next_key_seed17hc69d99fbca269609E', symObjAddr: 0x428, symBinAddr: 0x53C2C, symSize: 0x134 }
  - { offset: 0x126FD2, size: 0x8, addend: 0x0, symName: '__ZN102_$LT$serde..private..de..content..MapRefDeserializer$LT$E$GT$$u20$as$u20$serde_core..de..MapAccess$GT$15next_entry_seed17h5febf6d6ca22d1deE', symObjAddr: 0x55C, symBinAddr: 0x53D60, symSize: 0x2D0 }
  - { offset: 0x1270F0, size: 0x8, addend: 0x0, symName: '__ZN102_$LT$serde..private..de..content..MapRefDeserializer$LT$E$GT$$u20$as$u20$serde_core..de..MapAccess$GT$15next_value_seed17h233f872e08787df9E', symObjAddr: 0x82C, symBinAddr: 0x54030, symSize: 0xF4 }
  - { offset: 0x12716B, size: 0x8, addend: 0x0, symName: '__ZN102_$LT$serde..private..de..content..MapRefDeserializer$LT$E$GT$$u20$as$u20$serde_core..de..MapAccess$GT$15next_value_seed17h4141ca5e20f48b35E', symObjAddr: 0x920, symBinAddr: 0x54124, symSize: 0xF4 }
  - { offset: 0x1271E6, size: 0x8, addend: 0x0, symName: '__ZN102_$LT$serde..private..de..content..MapRefDeserializer$LT$E$GT$$u20$as$u20$serde_core..de..MapAccess$GT$15next_value_seed17h4ce83714da669d97E', symObjAddr: 0xA14, symBinAddr: 0x54218, symSize: 0xF4 }
  - { offset: 0x127261, size: 0x8, addend: 0x0, symName: '__ZN102_$LT$serde..private..de..content..MapRefDeserializer$LT$E$GT$$u20$as$u20$serde_core..de..MapAccess$GT$15next_value_seed17h52902ebb29a90664E', symObjAddr: 0xB08, symBinAddr: 0x5430C, symSize: 0xFC }
  - { offset: 0x1272DC, size: 0x8, addend: 0x0, symName: '__ZN102_$LT$serde..private..de..content..MapRefDeserializer$LT$E$GT$$u20$as$u20$serde_core..de..MapAccess$GT$15next_value_seed17haf9f9c255fe01ed9E', symObjAddr: 0xC04, symBinAddr: 0x54408, symSize: 0xF4 }
  - { offset: 0x127357, size: 0x8, addend: 0x0, symName: '__ZN102_$LT$serde..private..de..content..MapRefDeserializer$LT$E$GT$$u20$as$u20$serde_core..de..MapAccess$GT$15next_value_seed17hd9ed91c7fed9a6c5E', symObjAddr: 0xCF8, symBinAddr: 0x544FC, symSize: 0xF4 }
  - { offset: 0x1273D8, size: 0x8, addend: 0x0, symName: '__ZN102_$LT$serde..private..de..content..SeqRefDeserializer$LT$E$GT$$u20$as$u20$serde_core..de..SeqAccess$GT$17next_element_seed17h0090e1752871d812E', symObjAddr: 0xDEC, symBinAddr: 0x545F0, symSize: 0x164 }
  - { offset: 0x12743D, size: 0x8, addend: 0x0, symName: '__ZN102_$LT$serde..private..de..content..SeqRefDeserializer$LT$E$GT$$u20$as$u20$serde_core..de..SeqAccess$GT$17next_element_seed17h1d494ff7f4bf79f8E', symObjAddr: 0xF50, symBinAddr: 0x54754, symSize: 0x168 }
  - { offset: 0x1274A2, size: 0x8, addend: 0x0, symName: '__ZN102_$LT$serde..private..de..content..SeqRefDeserializer$LT$E$GT$$u20$as$u20$serde_core..de..SeqAccess$GT$17next_element_seed17h5631cc3eaaffe912E', symObjAddr: 0x10B8, symBinAddr: 0x548BC, symSize: 0x168 }
  - { offset: 0x127507, size: 0x8, addend: 0x0, symName: '__ZN102_$LT$serde..private..de..content..SeqRefDeserializer$LT$E$GT$$u20$as$u20$serde_core..de..SeqAccess$GT$17next_element_seed17hcc2182495f7b01c7E', symObjAddr: 0x1220, symBinAddr: 0x54A24, symSize: 0x164 }
  - { offset: 0x12756C, size: 0x8, addend: 0x0, symName: '__ZN102_$LT$serde..private..de..content..SeqRefDeserializer$LT$E$GT$$u20$as$u20$serde_core..de..SeqAccess$GT$17next_element_seed17hfb5dcfebf00baad6E', symObjAddr: 0x1384, symBinAddr: 0x54B88, symSize: 0x164 }
  - { offset: 0x1275D1, size: 0x8, addend: 0x0, symName: '__ZN102_$LT$serde..private..de..content..SeqRefDeserializer$LT$E$GT$$u20$as$u20$serde_core..de..SeqAccess$GT$9size_hint17hafd44f9bade7da24E', symObjAddr: 0x14E8, symBinAddr: 0x54CEC, symSize: 0x24 }
  - { offset: 0x12760E, size: 0x8, addend: 0x0, symName: '__ZN102_$LT$serde..private..de..content..TaggedContentVisitor$LT$T$GT$$u20$as$u20$serde_core..de..Visitor$GT$9expecting17h6f859715e8db305bE', symObjAddr: 0x150C, symBinAddr: 0x54D10, symSize: 0x3C }
  - { offset: 0x127654, size: 0x8, addend: 0x0, symName: '__ZN102_$LT$serde..private..de..content..TaggedContentVisitor$LT$T$GT$$u20$as$u20$serde_core..de..Visitor$GT$9visit_map17h141791f73310eeeeE', symObjAddr: 0x1548, symBinAddr: 0x54D4C, symSize: 0x4C4 }
  - { offset: 0x1277B3, size: 0x8, addend: 0x0, symName: '__ZN102_$LT$serde..private..de..content..TaggedContentVisitor$LT$T$GT$$u20$as$u20$serde_core..de..Visitor$GT$9visit_map17h9e4e6af7edfc8dd4E', symObjAddr: 0x1A0C, symBinAddr: 0x55210, symSize: 0x4C4 }
  - { offset: 0x127912, size: 0x8, addend: 0x0, symName: '__ZN102_$LT$serde..private..de..content..TaggedContentVisitor$LT$T$GT$$u20$as$u20$serde_core..de..Visitor$GT$9visit_seq17h21c77101a3a100c5E', symObjAddr: 0x1ED0, symBinAddr: 0x556D4, symSize: 0x228 }
  - { offset: 0x1279E6, size: 0x8, addend: 0x0, symName: '__ZN102_$LT$serde..private..de..content..TaggedContentVisitor$LT$T$GT$$u20$as$u20$serde_core..de..Visitor$GT$9visit_seq17hc2f38643e613ec0aE', symObjAddr: 0x20F8, symBinAddr: 0x558FC, symSize: 0x228 }
  - { offset: 0x127AC0, size: 0x8, addend: 0x0, symName: '__ZN106_$LT$serde..private..de..content..ContentDeserializer$LT$E$GT$$u20$as$u20$serde_core..de..Deserializer$GT$14deserialize_u817h9b74eed2796e1a77E', symObjAddr: 0x2320, symBinAddr: 0x55B24, symSize: 0x1C }
  - { offset: 0x127B10, size: 0x8, addend: 0x0, symName: '__ZN106_$LT$serde..private..de..content..ContentDeserializer$LT$E$GT$$u20$as$u20$serde_core..de..Deserializer$GT$15deserialize_any17h73abbe1dc1a2215fE', symObjAddr: 0x233C, symBinAddr: 0x55B40, symSize: 0x4B4 }
  - { offset: 0x127DBB, size: 0x8, addend: 0x0, symName: '__ZN106_$LT$serde..private..de..content..ContentDeserializer$LT$E$GT$$u20$as$u20$serde_core..de..Deserializer$GT$15deserialize_any17hc4fd95e4e6a5212cE', symObjAddr: 0x27F0, symBinAddr: 0x55FF4, symSize: 0x4F0 }
  - { offset: 0x128066, size: 0x8, addend: 0x0, symName: '__ZN106_$LT$serde..private..de..content..ContentDeserializer$LT$E$GT$$u20$as$u20$serde_core..de..Deserializer$GT$15deserialize_seq17h2607b366b986c27eE', symObjAddr: 0x2CE0, symBinAddr: 0x564E4, symSize: 0x154 }
  - { offset: 0x1280CC, size: 0x8, addend: 0x0, symName: '__ZN106_$LT$serde..private..de..content..ContentDeserializer$LT$E$GT$$u20$as$u20$serde_core..de..Deserializer$GT$15deserialize_seq17hfab3b5c5f974742eE', symObjAddr: 0x2E34, symBinAddr: 0x56638, symSize: 0x154 }
  - { offset: 0x128132, size: 0x8, addend: 0x0, symName: '__ZN106_$LT$serde..private..de..content..ContentDeserializer$LT$E$GT$$u20$as$u20$serde_core..de..Deserializer$GT$15deserialize_u6417h6c6b4b40fe965fe5E', symObjAddr: 0x2F88, symBinAddr: 0x5678C, symSize: 0x1C }
  - { offset: 0x128182, size: 0x8, addend: 0x0, symName: '__ZN106_$LT$serde..private..de..content..ContentDeserializer$LT$E$GT$$u20$as$u20$serde_core..de..Deserializer$GT$16deserialize_bool17hc34a019ec54aec37E', symObjAddr: 0x2FA4, symBinAddr: 0x567A8, symSize: 0x124 }
  - { offset: 0x1281E8, size: 0x8, addend: 0x0, symName: '__ZN106_$LT$serde..private..de..content..ContentDeserializer$LT$E$GT$$u20$as$u20$serde_core..de..Deserializer$GT$18deserialize_option17h46def261e1c75b6aE', symObjAddr: 0x30C8, symBinAddr: 0x568CC, symSize: 0x208 }
  - { offset: 0x12824E, size: 0x8, addend: 0x0, symName: '__ZN106_$LT$serde..private..de..content..ContentDeserializer$LT$E$GT$$u20$as$u20$serde_core..de..Deserializer$GT$18deserialize_option17h673038e28eae2e72E', symObjAddr: 0x32D0, symBinAddr: 0x56AD4, symSize: 0x208 }
  - { offset: 0x1282B4, size: 0x8, addend: 0x0, symName: '__ZN106_$LT$serde..private..de..content..ContentDeserializer$LT$E$GT$$u20$as$u20$serde_core..de..Deserializer$GT$18deserialize_option17heee256065c42678dE', symObjAddr: 0x34D8, symBinAddr: 0x56CDC, symSize: 0x208 }
  - { offset: 0x12831A, size: 0x8, addend: 0x0, symName: '__ZN106_$LT$serde..private..de..content..ContentDeserializer$LT$E$GT$$u20$as$u20$serde_core..de..Deserializer$GT$18deserialize_string17h1774c9972cc17ba6E', symObjAddr: 0x36E0, symBinAddr: 0x56EE4, symSize: 0x23C }
  - { offset: 0x1283C4, size: 0x8, addend: 0x0, symName: '__ZN106_$LT$serde..private..de..content..ContentDeserializer$LT$E$GT$$u20$as$u20$serde_core..de..Deserializer$GT$18deserialize_struct17h04fde1f459fe1d93E', symObjAddr: 0x391C, symBinAddr: 0x57120, symSize: 0x1C4 }
  - { offset: 0x12845F, size: 0x8, addend: 0x0, symName: '__ZN106_$LT$serde..private..de..content..ContentDeserializer$LT$E$GT$$u20$as$u20$serde_core..de..Deserializer$GT$18deserialize_struct17h083436b8b5b155c5E', symObjAddr: 0x3AE0, symBinAddr: 0x572E4, symSize: 0x1C4 }
  - { offset: 0x1284FA, size: 0x8, addend: 0x0, symName: '__ZN106_$LT$serde..private..de..content..ContentDeserializer$LT$E$GT$$u20$as$u20$serde_core..de..Deserializer$GT$18deserialize_struct17h2112db575326fbafE', symObjAddr: 0x3CA4, symBinAddr: 0x574A8, symSize: 0x1C4 }
  - { offset: 0x128595, size: 0x8, addend: 0x0, symName: '__ZN106_$LT$serde..private..de..content..ContentDeserializer$LT$E$GT$$u20$as$u20$serde_core..de..Deserializer$GT$18deserialize_struct17h54013666b844ddfaE', symObjAddr: 0x3E68, symBinAddr: 0x5766C, symSize: 0x1C4 }
  - { offset: 0x128630, size: 0x8, addend: 0x0, symName: '__ZN106_$LT$serde..private..de..content..ContentDeserializer$LT$E$GT$$u20$as$u20$serde_core..de..Deserializer$GT$18deserialize_struct17h5d06a2408e39bdf2E', symObjAddr: 0x402C, symBinAddr: 0x57830, symSize: 0x1C4 }
  - { offset: 0x1286CB, size: 0x8, addend: 0x0, symName: '__ZN106_$LT$serde..private..de..content..ContentDeserializer$LT$E$GT$$u20$as$u20$serde_core..de..Deserializer$GT$18deserialize_struct17h719e1edfb4853e6eE', symObjAddr: 0x41F0, symBinAddr: 0x579F4, symSize: 0x1C4 }
  - { offset: 0x128766, size: 0x8, addend: 0x0, symName: '__ZN106_$LT$serde..private..de..content..ContentDeserializer$LT$E$GT$$u20$as$u20$serde_core..de..Deserializer$GT$18deserialize_struct17h7de3c05be1232a19E', symObjAddr: 0x43B4, symBinAddr: 0x57BB8, symSize: 0x1C4 }
  - { offset: 0x128801, size: 0x8, addend: 0x0, symName: '__ZN106_$LT$serde..private..de..content..ContentDeserializer$LT$E$GT$$u20$as$u20$serde_core..de..Deserializer$GT$18deserialize_struct17h7eb2ac54b30665e9E', symObjAddr: 0x4578, symBinAddr: 0x57D7C, symSize: 0x1C4 }
  - { offset: 0x12889C, size: 0x8, addend: 0x0, symName: '__ZN106_$LT$serde..private..de..content..ContentDeserializer$LT$E$GT$$u20$as$u20$serde_core..de..Deserializer$GT$18deserialize_struct17haa7e3c5d25b615a8E', symObjAddr: 0x473C, symBinAddr: 0x57F40, symSize: 0x1C4 }
